
example.bin:     file format binary


Disassembly of section .data:

0000000000000000 <.data>:
       0:	48 be 90 e1 26 6b f6 	movabs rsi,0x7ff66b26e190
       7:	7f 00 00 
       a:	49 bc 10 b3 9f da ff 	movabs r12,0x7fffda9fb310
      11:	7f 00 00 
      14:	49 bd 90 94 9f da ff 	movabs r13,0x7fffda9f9490
      1b:	7f 00 00 
      1e:	48 83 ec 20          	sub    rsp,0x20
      22:	80 06 0d             	add    BYTE PTR [rsi],0xd
      25:	8a 06                	mov    al,BYTE PTR [rsi]
      27:	84 c0                	test   al,al
      29:	0f 84 29 00 00 00    	je     0x58
      2f:	fe 0e                	dec    BYTE PTR [rsi]
      31:	48 ff c6             	inc    rsi
      34:	80 06 02             	add    BYTE PTR [rsi],0x2
      37:	48 81 c6 03 00 00 00 	add    rsi,0x3
      3e:	80 06 05             	add    BYTE PTR [rsi],0x5
      41:	48 ff c6             	inc    rsi
      44:	80 06 02             	add    BYTE PTR [rsi],0x2
      47:	48 ff c6             	inc    rsi
      4a:	fe 06                	inc    BYTE PTR [rsi]
      4c:	48 81 c6 fa ff ff ff 	add    rsi,0xfffffffffffffffa
      53:	e9 cd ff ff ff       	jmp    0x25
      58:	48 81 c6 05 00 00 00 	add    rsi,0x5
      5f:	80 06 06             	add    BYTE PTR [rsi],0x6
      62:	48 ff c6             	inc    rsi
      65:	80 06 fd             	add    BYTE PTR [rsi],0xfd
      68:	48 81 c6 0a 00 00 00 	add    rsi,0xa
      6f:	80 06 0f             	add    BYTE PTR [rsi],0xf
      72:	8a 06                	mov    al,BYTE PTR [rsi]
      74:	84 c0                	test   al,al
      76:	0f 84 3c 00 00 00    	je     0xb8
      7c:	8a 06                	mov    al,BYTE PTR [rsi]
      7e:	84 c0                	test   al,al
      80:	0f 84 0c 00 00 00    	je     0x92
      86:	48 81 c6 09 00 00 00 	add    rsi,0x9
      8d:	e9 ea ff ff ff       	jmp    0x7c
      92:	fe 06                	inc    BYTE PTR [rsi]
      94:	8a 06                	mov    al,BYTE PTR [rsi]
      96:	84 c0                	test   al,al
      98:	0f 84 0c 00 00 00    	je     0xaa
      9e:	48 81 c6 f7 ff ff ff 	add    rsi,0xfffffffffffffff7
      a5:	e9 ea ff ff ff       	jmp    0x94
      aa:	48 81 c6 09 00 00 00 	add    rsi,0x9
      b1:	fe 0e                	dec    BYTE PTR [rsi]
      b3:	e9 ba ff ff ff       	jmp    0x72
      b8:	fe 06                	inc    BYTE PTR [rsi]
      ba:	8a 06                	mov    al,BYTE PTR [rsi]
      bc:	84 c0                	test   al,al
      be:	0f 84 20 00 00 00    	je     0xe4
      c4:	48 81 c6 08 00 00 00 	add    rsi,0x8
      cb:	8a 06                	mov    al,BYTE PTR [rsi]
      cd:	84 c0                	test   al,al
      cf:	0f 84 07 00 00 00    	je     0xdc
      d5:	fe 0e                	dec    BYTE PTR [rsi]
      d7:	e9 ef ff ff ff       	jmp    0xcb
      dc:	48 ff c6             	inc    rsi
      df:	e9 d6 ff ff ff       	jmp    0xba
      e4:	48 81 c6 f7 ff ff ff 	add    rsi,0xfffffffffffffff7
      eb:	8a 06                	mov    al,BYTE PTR [rsi]
      ed:	84 c0                	test   al,al
      ef:	0f 84 0c 00 00 00    	je     0x101
      f5:	48 81 c6 f7 ff ff ff 	add    rsi,0xfffffffffffffff7
      fc:	e9 ea ff ff ff       	jmp    0xeb
     101:	48 81 c6 08 00 00 00 	add    rsi,0x8
     108:	8a 06                	mov    al,BYTE PTR [rsi]
     10a:	84 c0                	test   al,al
     10c:	0f 84 07 00 00 00    	je     0x119
     112:	fe 0e                	dec    BYTE PTR [rsi]
     114:	e9 ef ff ff ff       	jmp    0x108
     119:	fe 06                	inc    BYTE PTR [rsi]
     11b:	48 81 c6 f9 ff ff ff 	add    rsi,0xfffffffffffffff9
     122:	80 06 05             	add    BYTE PTR [rsi],0x5
     125:	8a 06                	mov    al,BYTE PTR [rsi]
     127:	84 c0                	test   al,al
     129:	0f 84 2f 00 00 00    	je     0x15e
     12f:	fe 0e                	dec    BYTE PTR [rsi]
     131:	8a 06                	mov    al,BYTE PTR [rsi]
     133:	84 c0                	test   al,al
     135:	0f 84 17 00 00 00    	je     0x152
     13b:	fe 0e                	dec    BYTE PTR [rsi]
     13d:	48 81 c6 09 00 00 00 	add    rsi,0x9
     144:	fe 06                	inc    BYTE PTR [rsi]
     146:	48 81 c6 f7 ff ff ff 	add    rsi,0xfffffffffffffff7
     14d:	e9 df ff ff ff       	jmp    0x131
     152:	48 81 c6 09 00 00 00 	add    rsi,0x9
     159:	e9 c7 ff ff ff       	jmp    0x125
     15e:	48 81 c6 07 00 00 00 	add    rsi,0x7
     165:	fe 06                	inc    BYTE PTR [rsi]
     167:	48 81 c6 1a 00 00 00 	add    rsi,0x1a
     16e:	48 ff c6             	inc    rsi
     171:	fe 06                	inc    BYTE PTR [rsi]
     173:	48 81 c6 ef ff ff ff 	add    rsi,0xffffffffffffffef
     17a:	8a 06                	mov    al,BYTE PTR [rsi]
     17c:	84 c0                	test   al,al
     17e:	0f 84 0c 00 00 00    	je     0x190
     184:	48 81 c6 f7 ff ff ff 	add    rsi,0xfffffffffffffff7
     18b:	e9 ea ff ff ff       	jmp    0x17a
     190:	48 81 c6 03 00 00 00 	add    rsi,0x3
     197:	8a 06                	mov    al,BYTE PTR [rsi]
     199:	84 c0                	test   al,al
     19b:	0f 84 07 00 00 00    	je     0x1a8
     1a1:	fe 0e                	dec    BYTE PTR [rsi]
     1a3:	e9 ef ff ff ff       	jmp    0x197
     1a8:	fe 06                	inc    BYTE PTR [rsi]
     1aa:	8a 06                	mov    al,BYTE PTR [rsi]
     1ac:	84 c0                	test   al,al
     1ae:	0f 84 38 59 00 00    	je     0x5aec
     1b4:	48 81 c6 06 00 00 00 	add    rsi,0x6
     1bb:	8a 06                	mov    al,BYTE PTR [rsi]
     1bd:	84 c0                	test   al,al
     1bf:	0f 84 24 00 00 00    	je     0x1e9
     1c5:	48 81 c6 07 00 00 00 	add    rsi,0x7
     1cc:	8a 06                	mov    al,BYTE PTR [rsi]
     1ce:	84 c0                	test   al,al
     1d0:	0f 84 07 00 00 00    	je     0x1dd
     1d6:	fe 0e                	dec    BYTE PTR [rsi]
     1d8:	e9 ef ff ff ff       	jmp    0x1cc
     1dd:	48 81 c6 02 00 00 00 	add    rsi,0x2
     1e4:	e9 d2 ff ff ff       	jmp    0x1bb
     1e9:	48 81 c6 f7 ff ff ff 	add    rsi,0xfffffffffffffff7
     1f0:	8a 06                	mov    al,BYTE PTR [rsi]
     1f2:	84 c0                	test   al,al
     1f4:	0f 84 0c 00 00 00    	je     0x206
     1fa:	48 81 c6 f7 ff ff ff 	add    rsi,0xfffffffffffffff7
     201:	e9 ea ff ff ff       	jmp    0x1f0
     206:	48 81 c6 02 00 00 00 	add    rsi,0x2
     20d:	48 81 c6 05 00 00 00 	add    rsi,0x5
     214:	8a 06                	mov    al,BYTE PTR [rsi]
     216:	84 c0                	test   al,al
     218:	0f 84 07 00 00 00    	je     0x225
     21e:	fe 0e                	dec    BYTE PTR [rsi]
     220:	e9 ef ff ff ff       	jmp    0x214
     225:	fe 06                	inc    BYTE PTR [rsi]
     227:	48 81 c6 fa ff ff ff 	add    rsi,0xfffffffffffffffa
     22e:	80 06 04             	add    BYTE PTR [rsi],0x4
     231:	8a 06                	mov    al,BYTE PTR [rsi]
     233:	84 c0                	test   al,al
     235:	0f 84 2f 00 00 00    	je     0x26a
     23b:	fe 0e                	dec    BYTE PTR [rsi]
     23d:	8a 06                	mov    al,BYTE PTR [rsi]
     23f:	84 c0                	test   al,al
     241:	0f 84 17 00 00 00    	je     0x25e
     247:	fe 0e                	dec    BYTE PTR [rsi]
     249:	48 81 c6 09 00 00 00 	add    rsi,0x9
     250:	fe 06                	inc    BYTE PTR [rsi]
     252:	48 81 c6 f7 ff ff ff 	add    rsi,0xfffffffffffffff7
     259:	e9 df ff ff ff       	jmp    0x23d
     25e:	48 81 c6 09 00 00 00 	add    rsi,0x9
     265:	e9 c7 ff ff ff       	jmp    0x231
     26a:	48 81 c6 06 00 00 00 	add    rsi,0x6
     271:	fe 06                	inc    BYTE PTR [rsi]
     273:	48 81 c6 fa ff ff ff 	add    rsi,0xfffffffffffffffa
     27a:	80 06 07             	add    BYTE PTR [rsi],0x7
     27d:	8a 06                	mov    al,BYTE PTR [rsi]
     27f:	84 c0                	test   al,al
     281:	0f 84 36 00 00 00    	je     0x2bd
     287:	fe 0e                	dec    BYTE PTR [rsi]
     289:	8a 06                	mov    al,BYTE PTR [rsi]
     28b:	84 c0                	test   al,al
     28d:	0f 84 1e 00 00 00    	je     0x2b1
     293:	fe 0e                	dec    BYTE PTR [rsi]
     295:	48 81 c6 03 00 00 00 	add    rsi,0x3
     29c:	48 81 c6 06 00 00 00 	add    rsi,0x6
     2a3:	fe 06                	inc    BYTE PTR [rsi]
     2a5:	48 81 c6 f7 ff ff ff 	add    rsi,0xfffffffffffffff7
     2ac:	e9 d8 ff ff ff       	jmp    0x289
     2b1:	48 81 c6 09 00 00 00 	add    rsi,0x9
     2b8:	e9 c0 ff ff ff       	jmp    0x27d
     2bd:	48 81 c6 06 00 00 00 	add    rsi,0x6
     2c4:	fe 06                	inc    BYTE PTR [rsi]
     2c6:	48 81 c6 f0 ff ff ff 	add    rsi,0xfffffffffffffff0
     2cd:	8a 06                	mov    al,BYTE PTR [rsi]
     2cf:	84 c0                	test   al,al
     2d1:	0f 84 0c 00 00 00    	je     0x2e3
     2d7:	48 81 c6 f7 ff ff ff 	add    rsi,0xfffffffffffffff7
     2de:	e9 ea ff ff ff       	jmp    0x2cd
     2e3:	48 81 c6 03 00 00 00 	add    rsi,0x3
     2ea:	8a 06                	mov    al,BYTE PTR [rsi]
     2ec:	84 c0                	test   al,al
     2ee:	0f 84 e7 4e 00 00    	je     0x51db
     2f4:	8a 06                	mov    al,BYTE PTR [rsi]
     2f6:	84 c0                	test   al,al
     2f8:	0f 84 07 00 00 00    	je     0x305
     2fe:	fe 0e                	dec    BYTE PTR [rsi]
     300:	e9 ef ff ff ff       	jmp    0x2f4
     305:	48 81 c6 06 00 00 00 	add    rsi,0x6
     30c:	8a 06                	mov    al,BYTE PTR [rsi]
     30e:	84 c0                	test   al,al
     310:	0f 84 71 00 00 00    	je     0x387
     316:	48 81 c6 05 00 00 00 	add    rsi,0x5
     31d:	48 81 c6 02 00 00 00 	add    rsi,0x2
     324:	8a 06                	mov    al,BYTE PTR [rsi]
     326:	84 c0                	test   al,al
     328:	0f 84 17 00 00 00    	je     0x345
     32e:	fe 0e                	dec    BYTE PTR [rsi]
     330:	48 81 c6 fa ff ff ff 	add    rsi,0xfffffffffffffffa
     337:	fe 06                	inc    BYTE PTR [rsi]
     339:	48 81 c6 06 00 00 00 	add    rsi,0x6
     340:	e9 df ff ff ff       	jmp    0x324
     345:	48 81 c6 fa ff ff ff 	add    rsi,0xfffffffffffffffa
     34c:	8a 06                	mov    al,BYTE PTR [rsi]
     34e:	84 c0                	test   al,al
     350:	0f 84 25 00 00 00    	je     0x37b
     356:	fe 0e                	dec    BYTE PTR [rsi]
     358:	48 81 c6 06 00 00 00 	add    rsi,0x6
     35f:	fe 06                	inc    BYTE PTR [rsi]
     361:	48 81 c6 fe ff ff ff 	add    rsi,0xfffffffffffffffe
     368:	fe 06                	inc    BYTE PTR [rsi]
     36a:	48 81 c6 fd ff ff ff 	add    rsi,0xfffffffffffffffd
     371:	fe 06                	inc    BYTE PTR [rsi]
     373:	48 ff ce             	dec    rsi
     376:	e9 d1 ff ff ff       	jmp    0x34c
     37b:	48 81 c6 08 00 00 00 	add    rsi,0x8
     382:	e9 85 ff ff ff       	jmp    0x30c
     387:	48 81 c6 f7 ff ff ff 	add    rsi,0xfffffffffffffff7
     38e:	8a 06                	mov    al,BYTE PTR [rsi]
     390:	84 c0                	test   al,al
     392:	0f 84 0c 00 00 00    	je     0x3a4
     398:	48 81 c6 f7 ff ff ff 	add    rsi,0xfffffffffffffff7
     39f:	e9 ea ff ff ff       	jmp    0x38e
     3a4:	48 81 c6 09 00 00 00 	add    rsi,0x9
     3ab:	8a 06                	mov    al,BYTE PTR [rsi]
     3ad:	84 c0                	test   al,al
     3af:	0f 84 6e 00 00 00    	je     0x423
     3b5:	48 81 c6 08 00 00 00 	add    rsi,0x8
     3bc:	8a 06                	mov    al,BYTE PTR [rsi]
     3be:	84 c0                	test   al,al
     3c0:	0f 84 17 00 00 00    	je     0x3dd
     3c6:	fe 0e                	dec    BYTE PTR [rsi]
     3c8:	48 81 c6 f9 ff ff ff 	add    rsi,0xfffffffffffffff9
     3cf:	fe 06                	inc    BYTE PTR [rsi]
     3d1:	48 81 c6 07 00 00 00 	add    rsi,0x7
     3d8:	e9 df ff ff ff       	jmp    0x3bc
     3dd:	48 81 c6 f9 ff ff ff 	add    rsi,0xfffffffffffffff9
     3e4:	8a 06                	mov    al,BYTE PTR [rsi]
     3e6:	84 c0                	test   al,al
     3e8:	0f 84 29 00 00 00    	je     0x417
     3ee:	fe 0e                	dec    BYTE PTR [rsi]
     3f0:	48 81 c6 07 00 00 00 	add    rsi,0x7
     3f7:	fe 06                	inc    BYTE PTR [rsi]
     3f9:	48 81 c6 fe ff ff ff 	add    rsi,0xfffffffffffffffe
     400:	fe 06                	inc    BYTE PTR [rsi]
     402:	48 81 c6 fd ff ff ff 	add    rsi,0xfffffffffffffffd
     409:	fe 06                	inc    BYTE PTR [rsi]
     40b:	48 81 c6 fe ff ff ff 	add    rsi,0xfffffffffffffffe
     412:	e9 cd ff ff ff       	jmp    0x3e4
     417:	48 81 c6 08 00 00 00 	add    rsi,0x8
     41e:	e9 88 ff ff ff       	jmp    0x3ab
     423:	48 81 c6 f7 ff ff ff 	add    rsi,0xfffffffffffffff7
     42a:	8a 06                	mov    al,BYTE PTR [rsi]
     42c:	84 c0                	test   al,al
     42e:	0f 84 13 00 00 00    	je     0x447
     434:	48 81 c6 f9 ff ff ff 	add    rsi,0xfffffffffffffff9
     43b:	48 81 c6 fe ff ff ff 	add    rsi,0xfffffffffffffffe
     442:	e9 e3 ff ff ff       	jmp    0x42a
     447:	48 81 c6 07 00 00 00 	add    rsi,0x7
     44e:	8a 06                	mov    al,BYTE PTR [rsi]
     450:	84 c0                	test   al,al
     452:	0f 84 17 00 00 00    	je     0x46f
     458:	fe 0e                	dec    BYTE PTR [rsi]
     45a:	48 81 c6 f9 ff ff ff 	add    rsi,0xfffffffffffffff9
     461:	fe 06                	inc    BYTE PTR [rsi]
     463:	48 81 c6 07 00 00 00 	add    rsi,0x7
     46a:	e9 df ff ff ff       	jmp    0x44e
     46f:	48 81 c6 f9 ff ff ff 	add    rsi,0xfffffffffffffff9
     476:	8a 06                	mov    al,BYTE PTR [rsi]
     478:	84 c0                	test   al,al
     47a:	0f 84 20 00 00 00    	je     0x4a0
     480:	fe 0e                	dec    BYTE PTR [rsi]
     482:	48 81 c6 07 00 00 00 	add    rsi,0x7
     489:	fe 06                	inc    BYTE PTR [rsi]
     48b:	48 81 c6 fe ff ff ff 	add    rsi,0xfffffffffffffffe
     492:	fe 06                	inc    BYTE PTR [rsi]
     494:	48 81 c6 fb ff ff ff 	add    rsi,0xfffffffffffffffb
     49b:	e9 d6 ff ff ff       	jmp    0x476
     4a0:	48 81 c6 09 00 00 00 	add    rsi,0x9
     4a7:	80 06 0f             	add    BYTE PTR [rsi],0xf
     4aa:	8a 06                	mov    al,BYTE PTR [rsi]
     4ac:	84 c0                	test   al,al
     4ae:	0f 84 f7 00 00 00    	je     0x5ab
     4b4:	8a 06                	mov    al,BYTE PTR [rsi]
     4b6:	84 c0                	test   al,al
     4b8:	0f 84 0c 00 00 00    	je     0x4ca
     4be:	48 81 c6 09 00 00 00 	add    rsi,0x9
     4c5:	e9 ea ff ff ff       	jmp    0x4b4
     4ca:	fe 06                	inc    BYTE PTR [rsi]
     4cc:	48 ff c6             	inc    rsi
     4cf:	8a 06                	mov    al,BYTE PTR [rsi]
     4d1:	84 c0                	test   al,al
     4d3:	0f 84 07 00 00 00    	je     0x4e0
     4d9:	fe 0e                	dec    BYTE PTR [rsi]
     4db:	e9 ef ff ff ff       	jmp    0x4cf
     4e0:	48 ff c6             	inc    rsi
     4e3:	8a 06                	mov    al,BYTE PTR [rsi]
     4e5:	84 c0                	test   al,al
     4e7:	0f 84 07 00 00 00    	je     0x4f4
     4ed:	fe 0e                	dec    BYTE PTR [rsi]
     4ef:	e9 ef ff ff ff       	jmp    0x4e3
     4f4:	48 ff c6             	inc    rsi
     4f7:	8a 06                	mov    al,BYTE PTR [rsi]
     4f9:	84 c0                	test   al,al
     4fb:	0f 84 07 00 00 00    	je     0x508
     501:	fe 0e                	dec    BYTE PTR [rsi]
     503:	e9 ef ff ff ff       	jmp    0x4f7
     508:	48 ff c6             	inc    rsi
     50b:	8a 06                	mov    al,BYTE PTR [rsi]
     50d:	84 c0                	test   al,al
     50f:	0f 84 07 00 00 00    	je     0x51c
     515:	fe 0e                	dec    BYTE PTR [rsi]
     517:	e9 ef ff ff ff       	jmp    0x50b
     51c:	48 ff c6             	inc    rsi
     51f:	8a 06                	mov    al,BYTE PTR [rsi]
     521:	84 c0                	test   al,al
     523:	0f 84 07 00 00 00    	je     0x530
     529:	fe 0e                	dec    BYTE PTR [rsi]
     52b:	e9 ef ff ff ff       	jmp    0x51f
     530:	48 ff c6             	inc    rsi
     533:	8a 06                	mov    al,BYTE PTR [rsi]
     535:	84 c0                	test   al,al
     537:	0f 84 07 00 00 00    	je     0x544
     53d:	fe 0e                	dec    BYTE PTR [rsi]
     53f:	e9 ef ff ff ff       	jmp    0x533
     544:	48 ff c6             	inc    rsi
     547:	8a 06                	mov    al,BYTE PTR [rsi]
     549:	84 c0                	test   al,al
     54b:	0f 84 07 00 00 00    	je     0x558
     551:	fe 0e                	dec    BYTE PTR [rsi]
     553:	e9 ef ff ff ff       	jmp    0x547
     558:	48 ff c6             	inc    rsi
     55b:	8a 06                	mov    al,BYTE PTR [rsi]
     55d:	84 c0                	test   al,al
     55f:	0f 84 07 00 00 00    	je     0x56c
     565:	fe 0e                	dec    BYTE PTR [rsi]
     567:	e9 ef ff ff ff       	jmp    0x55b
     56c:	48 ff c6             	inc    rsi
     56f:	8a 06                	mov    al,BYTE PTR [rsi]
     571:	84 c0                	test   al,al
     573:	0f 84 07 00 00 00    	je     0x580
     579:	fe 0e                	dec    BYTE PTR [rsi]
     57b:	e9 ef ff ff ff       	jmp    0x56f
     580:	48 81 c6 f7 ff ff ff 	add    rsi,0xfffffffffffffff7
     587:	8a 06                	mov    al,BYTE PTR [rsi]
     589:	84 c0                	test   al,al
     58b:	0f 84 0c 00 00 00    	je     0x59d
     591:	48 81 c6 f7 ff ff ff 	add    rsi,0xfffffffffffffff7
     598:	e9 ea ff ff ff       	jmp    0x587
     59d:	48 81 c6 09 00 00 00 	add    rsi,0x9
     5a4:	fe 0e                	dec    BYTE PTR [rsi]
     5a6:	e9 ff fe ff ff       	jmp    0x4aa
     5ab:	fe 06                	inc    BYTE PTR [rsi]
     5ad:	8a 06                	mov    al,BYTE PTR [rsi]
     5af:	84 c0                	test   al,al
     5b1:	0f 84 11 00 00 00    	je     0x5c8
     5b7:	48 ff c6             	inc    rsi
     5ba:	fe 06                	inc    BYTE PTR [rsi]
     5bc:	48 81 c6 08 00 00 00 	add    rsi,0x8
     5c3:	e9 e5 ff ff ff       	jmp    0x5ad
     5c8:	48 81 c6 f7 ff ff ff 	add    rsi,0xfffffffffffffff7
     5cf:	8a 06                	mov    al,BYTE PTR [rsi]
     5d1:	84 c0                	test   al,al
     5d3:	0f 84 0c 00 00 00    	je     0x5e5
     5d9:	48 81 c6 f7 ff ff ff 	add    rsi,0xfffffffffffffff7
     5e0:	e9 ea ff ff ff       	jmp    0x5cf
     5e5:	48 81 c6 09 00 00 00 	add    rsi,0x9
     5ec:	8a 06                	mov    al,BYTE PTR [rsi]
     5ee:	84 c0                	test   al,al
     5f0:	0f 84 7f 01 00 00    	je     0x775
     5f6:	48 ff c6             	inc    rsi
     5f9:	fe 0e                	dec    BYTE PTR [rsi]
     5fb:	48 81 c6 04 00 00 00 	add    rsi,0x4
     602:	8a 06                	mov    al,BYTE PTR [rsi]
     604:	84 c0                	test   al,al
     606:	0f 84 17 00 00 00    	je     0x623
     60c:	fe 0e                	dec    BYTE PTR [rsi]
     60e:	48 81 c6 fc ff ff ff 	add    rsi,0xfffffffffffffffc
     615:	fe 06                	inc    BYTE PTR [rsi]
     617:	48 81 c6 04 00 00 00 	add    rsi,0x4
     61e:	e9 df ff ff ff       	jmp    0x602
     623:	48 81 c6 fc ff ff ff 	add    rsi,0xfffffffffffffffc
     62a:	8a 06                	mov    al,BYTE PTR [rsi]
     62c:	84 c0                	test   al,al
     62e:	0f 84 a7 00 00 00    	je     0x6db
     634:	fe 0e                	dec    BYTE PTR [rsi]
     636:	48 81 c6 04 00 00 00 	add    rsi,0x4
     63d:	fe 06                	inc    BYTE PTR [rsi]
     63f:	48 81 c6 fb ff ff ff 	add    rsi,0xfffffffffffffffb
     646:	8a 06                	mov    al,BYTE PTR [rsi]
     648:	84 c0                	test   al,al
     64a:	0f 84 69 00 00 00    	je     0x6b9
     650:	fe 0e                	dec    BYTE PTR [rsi]
     652:	48 81 c6 02 00 00 00 	add    rsi,0x2
     659:	8a 06                	mov    al,BYTE PTR [rsi]
     65b:	84 c0                	test   al,al
     65d:	0f 84 17 00 00 00    	je     0x67a
     663:	fe 0e                	dec    BYTE PTR [rsi]
     665:	48 81 c6 fe ff ff ff 	add    rsi,0xfffffffffffffffe
     66c:	fe 06                	inc    BYTE PTR [rsi]
     66e:	48 81 c6 02 00 00 00 	add    rsi,0x2
     675:	e9 df ff ff ff       	jmp    0x659
     67a:	48 81 c6 fe ff ff ff 	add    rsi,0xfffffffffffffffe
     681:	8a 06                	mov    al,BYTE PTR [rsi]
     683:	84 c0                	test   al,al
     685:	0f 84 20 00 00 00    	je     0x6ab
     68b:	fe 0e                	dec    BYTE PTR [rsi]
     68d:	48 81 c6 02 00 00 00 	add    rsi,0x2
     694:	fe 06                	inc    BYTE PTR [rsi]
     696:	48 81 c6 02 00 00 00 	add    rsi,0x2
     69d:	fe 06                	inc    BYTE PTR [rsi]
     69f:	48 81 c6 fc ff ff ff 	add    rsi,0xfffffffffffffffc
     6a6:	e9 d6 ff ff ff       	jmp    0x681
     6ab:	fe 06                	inc    BYTE PTR [rsi]
     6ad:	48 81 c6 09 00 00 00 	add    rsi,0x9
     6b4:	e9 8d ff ff ff       	jmp    0x646
     6b9:	48 81 c6 f8 ff ff ff 	add    rsi,0xfffffffffffffff8
     6c0:	8a 06                	mov    al,BYTE PTR [rsi]
     6c2:	84 c0                	test   al,al
     6c4:	0f 84 0c 00 00 00    	je     0x6d6
     6ca:	48 81 c6 f7 ff ff ff 	add    rsi,0xfffffffffffffff7
     6d1:	e9 ea ff ff ff       	jmp    0x6c0
     6d6:	e9 4f ff ff ff       	jmp    0x62a
     6db:	48 81 c6 09 00 00 00 	add    rsi,0x9
     6e2:	8a 06                	mov    al,BYTE PTR [rsi]
     6e4:	84 c0                	test   al,al
     6e6:	0f 84 0c 00 00 00    	je     0x6f8
     6ec:	48 81 c6 09 00 00 00 	add    rsi,0x9
     6f3:	e9 ea ff ff ff       	jmp    0x6e2
     6f8:	48 81 c6 f9 ff ff ff 	add    rsi,0xfffffffffffffff9
     6ff:	48 81 c6 fe ff ff ff 	add    rsi,0xfffffffffffffffe
     706:	8a 06                	mov    al,BYTE PTR [rsi]
     708:	84 c0                	test   al,al
     70a:	0f 84 30 00 00 00    	je     0x740
     710:	48 ff c6             	inc    rsi
     713:	8a 06                	mov    al,BYTE PTR [rsi]
     715:	84 c0                	test   al,al
     717:	0f 84 17 00 00 00    	je     0x734
     71d:	fe 0e                	dec    BYTE PTR [rsi]
     71f:	48 81 c6 09 00 00 00 	add    rsi,0x9
     726:	fe 06                	inc    BYTE PTR [rsi]
     728:	48 81 c6 f7 ff ff ff 	add    rsi,0xfffffffffffffff7
     72f:	e9 df ff ff ff       	jmp    0x713
     734:	48 81 c6 f6 ff ff ff 	add    rsi,0xfffffffffffffff6
     73b:	e9 c6 ff ff ff       	jmp    0x706
     740:	48 ff c6             	inc    rsi
     743:	8a 06                	mov    al,BYTE PTR [rsi]
     745:	84 c0                	test   al,al
     747:	0f 84 17 00 00 00    	je     0x764
     74d:	fe 0e                	dec    BYTE PTR [rsi]
     74f:	48 81 c6 09 00 00 00 	add    rsi,0x9
     756:	fe 06                	inc    BYTE PTR [rsi]
     758:	48 81 c6 f7 ff ff ff 	add    rsi,0xfffffffffffffff7
     75f:	e9 df ff ff ff       	jmp    0x743
     764:	48 ff ce             	dec    rsi
     767:	fe 06                	inc    BYTE PTR [rsi]
     769:	48 81 c6 08 00 00 00 	add    rsi,0x8
     770:	e9 77 fe ff ff       	jmp    0x5ec
     775:	48 81 c6 f7 ff ff ff 	add    rsi,0xfffffffffffffff7
     77c:	8a 06                	mov    al,BYTE PTR [rsi]
     77e:	84 c0                	test   al,al
     780:	0f 84 c2 00 00 00    	je     0x848
     786:	48 ff c6             	inc    rsi
     789:	8a 06                	mov    al,BYTE PTR [rsi]
     78b:	84 c0                	test   al,al
     78d:	0f 84 07 00 00 00    	je     0x79a
     793:	fe 0e                	dec    BYTE PTR [rsi]
     795:	e9 ef ff ff ff       	jmp    0x789
     79a:	48 ff ce             	dec    rsi
     79d:	fe 0e                	dec    BYTE PTR [rsi]
     79f:	48 81 c6 04 00 00 00 	add    rsi,0x4
     7a6:	8a 06                	mov    al,BYTE PTR [rsi]
     7a8:	84 c0                	test   al,al
     7aa:	0f 84 5f 00 00 00    	je     0x80f
     7b0:	fe 0e                	dec    BYTE PTR [rsi]
     7b2:	48 81 c6 fc ff ff ff 	add    rsi,0xfffffffffffffffc
     7b9:	fe 06                	inc    BYTE PTR [rsi]
     7bb:	48 ff c6             	inc    rsi
     7be:	8a 06                	mov    al,BYTE PTR [rsi]
     7c0:	84 c0                	test   al,al
     7c2:	0f 84 1f 00 00 00    	je     0x7e7
     7c8:	48 ff ce             	dec    rsi
     7cb:	fe 0e                	dec    BYTE PTR [rsi]
     7cd:	48 ff c6             	inc    rsi
     7d0:	fe 0e                	dec    BYTE PTR [rsi]
     7d2:	48 81 c6 fa ff ff ff 	add    rsi,0xfffffffffffffffa
     7d9:	fe 06                	inc    BYTE PTR [rsi]
     7db:	48 81 c6 06 00 00 00 	add    rsi,0x6
     7e2:	e9 d7 ff ff ff       	jmp    0x7be
     7e7:	48 ff ce             	dec    rsi
     7ea:	8a 06                	mov    al,BYTE PTR [rsi]
     7ec:	84 c0                	test   al,al
     7ee:	0f 84 0f 00 00 00    	je     0x803
     7f4:	fe 0e                	dec    BYTE PTR [rsi]
     7f6:	48 ff c6             	inc    rsi
     7f9:	fe 06                	inc    BYTE PTR [rsi]
     7fb:	48 ff ce             	dec    rsi
     7fe:	e9 e7 ff ff ff       	jmp    0x7ea
     803:	48 81 c6 04 00 00 00 	add    rsi,0x4
     80a:	e9 97 ff ff ff       	jmp    0x7a6
     80f:	48 81 c6 fd ff ff ff 	add    rsi,0xfffffffffffffffd
     816:	8a 06                	mov    al,BYTE PTR [rsi]
     818:	84 c0                	test   al,al
     81a:	0f 84 17 00 00 00    	je     0x837
     820:	fe 0e                	dec    BYTE PTR [rsi]
     822:	48 81 c6 03 00 00 00 	add    rsi,0x3
     829:	fe 06                	inc    BYTE PTR [rsi]
     82b:	48 81 c6 fd ff ff ff 	add    rsi,0xfffffffffffffffd
     832:	e9 df ff ff ff       	jmp    0x816
     837:	48 ff ce             	dec    rsi
     83a:	fe 06                	inc    BYTE PTR [rsi]
     83c:	48 81 c6 f7 ff ff ff 	add    rsi,0xfffffffffffffff7
     843:	e9 34 ff ff ff       	jmp    0x77c
     848:	48 81 c6 05 00 00 00 	add    rsi,0x5
     84f:	48 81 c6 04 00 00 00 	add    rsi,0x4
     856:	8a 06                	mov    al,BYTE PTR [rsi]
     858:	84 c0                	test   al,al
     85a:	0f 84 11 00 00 00    	je     0x871
     860:	48 ff c6             	inc    rsi
     863:	fe 06                	inc    BYTE PTR [rsi]
     865:	48 81 c6 08 00 00 00 	add    rsi,0x8
     86c:	e9 e5 ff ff ff       	jmp    0x856
     871:	48 81 c6 f7 ff ff ff 	add    rsi,0xfffffffffffffff7
     878:	8a 06                	mov    al,BYTE PTR [rsi]
     87a:	84 c0                	test   al,al
     87c:	0f 84 0c 00 00 00    	je     0x88e
     882:	48 81 c6 f7 ff ff ff 	add    rsi,0xfffffffffffffff7
     889:	e9 ea ff ff ff       	jmp    0x878
     88e:	48 81 c6 09 00 00 00 	add    rsi,0x9
     895:	8a 06                	mov    al,BYTE PTR [rsi]
     897:	84 c0                	test   al,al
     899:	0f 84 87 01 00 00    	je     0xa26
     89f:	48 ff c6             	inc    rsi
     8a2:	fe 0e                	dec    BYTE PTR [rsi]
     8a4:	48 81 c6 05 00 00 00 	add    rsi,0x5
     8ab:	8a 06                	mov    al,BYTE PTR [rsi]
     8ad:	84 c0                	test   al,al
     8af:	0f 84 17 00 00 00    	je     0x8cc
     8b5:	fe 0e                	dec    BYTE PTR [rsi]
     8b7:	48 81 c6 fb ff ff ff 	add    rsi,0xfffffffffffffffb
     8be:	fe 06                	inc    BYTE PTR [rsi]
     8c0:	48 81 c6 05 00 00 00 	add    rsi,0x5
     8c7:	e9 df ff ff ff       	jmp    0x8ab
     8cc:	48 81 c6 fb ff ff ff 	add    rsi,0xfffffffffffffffb
     8d3:	8a 06                	mov    al,BYTE PTR [rsi]
     8d5:	84 c0                	test   al,al
     8d7:	0f 84 a3 00 00 00    	je     0x980
     8dd:	fe 0e                	dec    BYTE PTR [rsi]
     8df:	48 81 c6 05 00 00 00 	add    rsi,0x5
     8e6:	fe 06                	inc    BYTE PTR [rsi]
     8e8:	48 81 c6 fa ff ff ff 	add    rsi,0xfffffffffffffffa
     8ef:	8a 06                	mov    al,BYTE PTR [rsi]
     8f1:	84 c0                	test   al,al
     8f3:	0f 84 65 00 00 00    	je     0x95e
     8f9:	fe 0e                	dec    BYTE PTR [rsi]
     8fb:	48 81 c6 03 00 00 00 	add    rsi,0x3
     902:	8a 06                	mov    al,BYTE PTR [rsi]
     904:	84 c0                	test   al,al
     906:	0f 84 17 00 00 00    	je     0x923
     90c:	fe 0e                	dec    BYTE PTR [rsi]
     90e:	48 81 c6 fd ff ff ff 	add    rsi,0xfffffffffffffffd
     915:	fe 06                	inc    BYTE PTR [rsi]
     917:	48 81 c6 03 00 00 00 	add    rsi,0x3
     91e:	e9 df ff ff ff       	jmp    0x902
     923:	48 81 c6 fd ff ff ff 	add    rsi,0xfffffffffffffffd
     92a:	8a 06                	mov    al,BYTE PTR [rsi]
     92c:	84 c0                	test   al,al
     92e:	0f 84 1c 00 00 00    	je     0x950
     934:	fe 0e                	dec    BYTE PTR [rsi]
     936:	48 81 c6 03 00 00 00 	add    rsi,0x3
     93d:	fe 06                	inc    BYTE PTR [rsi]
     93f:	48 ff c6             	inc    rsi
     942:	fe 06                	inc    BYTE PTR [rsi]
     944:	48 81 c6 fc ff ff ff 	add    rsi,0xfffffffffffffffc
     94b:	e9 da ff ff ff       	jmp    0x92a
     950:	fe 06                	inc    BYTE PTR [rsi]
     952:	48 81 c6 09 00 00 00 	add    rsi,0x9
     959:	e9 91 ff ff ff       	jmp    0x8ef
     95e:	48 81 c6 f8 ff ff ff 	add    rsi,0xfffffffffffffff8
     965:	8a 06                	mov    al,BYTE PTR [rsi]
     967:	84 c0                	test   al,al
     969:	0f 84 0c 00 00 00    	je     0x97b
     96f:	48 81 c6 f7 ff ff ff 	add    rsi,0xfffffffffffffff7
     976:	e9 ea ff ff ff       	jmp    0x965
     97b:	e9 53 ff ff ff       	jmp    0x8d3
     980:	48 81 c6 09 00 00 00 	add    rsi,0x9
     987:	8a 06                	mov    al,BYTE PTR [rsi]
     989:	84 c0                	test   al,al
     98b:	0f 84 13 00 00 00    	je     0x9a4
     991:	48 81 c6 02 00 00 00 	add    rsi,0x2
     998:	48 81 c6 07 00 00 00 	add    rsi,0x7
     99f:	e9 e3 ff ff ff       	jmp    0x987
     9a4:	48 81 c6 f7 ff ff ff 	add    rsi,0xfffffffffffffff7
     9ab:	8a 06                	mov    al,BYTE PTR [rsi]
     9ad:	84 c0                	test   al,al
     9af:	0f 84 34 00 00 00    	je     0x9e9
     9b5:	48 81 c6 02 00 00 00 	add    rsi,0x2
     9bc:	8a 06                	mov    al,BYTE PTR [rsi]
     9be:	84 c0                	test   al,al
     9c0:	0f 84 17 00 00 00    	je     0x9dd
     9c6:	fe 0e                	dec    BYTE PTR [rsi]
     9c8:	48 81 c6 09 00 00 00 	add    rsi,0x9
     9cf:	fe 06                	inc    BYTE PTR [rsi]
     9d1:	48 81 c6 f7 ff ff ff 	add    rsi,0xfffffffffffffff7
     9d8:	e9 df ff ff ff       	jmp    0x9bc
     9dd:	48 81 c6 f5 ff ff ff 	add    rsi,0xfffffffffffffff5
     9e4:	e9 c2 ff ff ff       	jmp    0x9ab
     9e9:	48 81 c6 02 00 00 00 	add    rsi,0x2
     9f0:	8a 06                	mov    al,BYTE PTR [rsi]
     9f2:	84 c0                	test   al,al
     9f4:	0f 84 17 00 00 00    	je     0xa11
     9fa:	fe 0e                	dec    BYTE PTR [rsi]
     9fc:	48 81 c6 09 00 00 00 	add    rsi,0x9
     a03:	fe 06                	inc    BYTE PTR [rsi]
     a05:	48 81 c6 f7 ff ff ff 	add    rsi,0xfffffffffffffff7
     a0c:	e9 df ff ff ff       	jmp    0x9f0
     a11:	48 81 c6 fe ff ff ff 	add    rsi,0xfffffffffffffffe
     a18:	fe 06                	inc    BYTE PTR [rsi]
     a1a:	48 81 c6 08 00 00 00 	add    rsi,0x8
     a21:	e9 6f fe ff ff       	jmp    0x895
     a26:	48 81 c6 f7 ff ff ff 	add    rsi,0xfffffffffffffff7
     a2d:	8a 06                	mov    al,BYTE PTR [rsi]
     a2f:	84 c0                	test   al,al
     a31:	0f 84 c5 00 00 00    	je     0xafc
     a37:	48 ff c6             	inc    rsi
     a3a:	8a 06                	mov    al,BYTE PTR [rsi]
     a3c:	84 c0                	test   al,al
     a3e:	0f 84 07 00 00 00    	je     0xa4b
     a44:	fe 0e                	dec    BYTE PTR [rsi]
     a46:	e9 ef ff ff ff       	jmp    0xa3a
     a4b:	48 ff ce             	dec    rsi
     a4e:	fe 0e                	dec    BYTE PTR [rsi]
     a50:	48 81 c6 04 00 00 00 	add    rsi,0x4
     a57:	8a 06                	mov    al,BYTE PTR [rsi]
     a59:	84 c0                	test   al,al
     a5b:	0f 84 5f 00 00 00    	je     0xac0
     a61:	fe 0e                	dec    BYTE PTR [rsi]
     a63:	48 81 c6 fc ff ff ff 	add    rsi,0xfffffffffffffffc
     a6a:	fe 06                	inc    BYTE PTR [rsi]
     a6c:	48 ff c6             	inc    rsi
     a6f:	8a 06                	mov    al,BYTE PTR [rsi]
     a71:	84 c0                	test   al,al
     a73:	0f 84 1f 00 00 00    	je     0xa98
     a79:	48 ff ce             	dec    rsi
     a7c:	fe 0e                	dec    BYTE PTR [rsi]
     a7e:	48 ff c6             	inc    rsi
     a81:	fe 0e                	dec    BYTE PTR [rsi]
     a83:	48 81 c6 fa ff ff ff 	add    rsi,0xfffffffffffffffa
     a8a:	fe 06                	inc    BYTE PTR [rsi]
     a8c:	48 81 c6 06 00 00 00 	add    rsi,0x6
     a93:	e9 d7 ff ff ff       	jmp    0xa6f
     a98:	48 ff ce             	dec    rsi
     a9b:	8a 06                	mov    al,BYTE PTR [rsi]
     a9d:	84 c0                	test   al,al
     a9f:	0f 84 0f 00 00 00    	je     0xab4
     aa5:	fe 0e                	dec    BYTE PTR [rsi]
     aa7:	48 ff c6             	inc    rsi
     aaa:	fe 06                	inc    BYTE PTR [rsi]
     aac:	48 ff ce             	dec    rsi
     aaf:	e9 e7 ff ff ff       	jmp    0xa9b
     ab4:	48 81 c6 04 00 00 00 	add    rsi,0x4
     abb:	e9 97 ff ff ff       	jmp    0xa57
     ac0:	48 81 c6 fd ff ff ff 	add    rsi,0xfffffffffffffffd
     ac7:	8a 06                	mov    al,BYTE PTR [rsi]
     ac9:	84 c0                	test   al,al
     acb:	0f 84 1a 00 00 00    	je     0xaeb
     ad1:	fe 0e                	dec    BYTE PTR [rsi]
     ad3:	48 81 c6 03 00 00 00 	add    rsi,0x3
     ada:	fe 06                	inc    BYTE PTR [rsi]
     adc:	48 81 c6 fe ff ff ff 	add    rsi,0xfffffffffffffffe
     ae3:	48 ff ce             	dec    rsi
     ae6:	e9 dc ff ff ff       	jmp    0xac7
     aeb:	48 ff ce             	dec    rsi
     aee:	fe 06                	inc    BYTE PTR [rsi]
     af0:	48 81 c6 f7 ff ff ff 	add    rsi,0xfffffffffffffff7
     af7:	e9 31 ff ff ff       	jmp    0xa2d
     afc:	48 81 c6 09 00 00 00 	add    rsi,0x9
     b03:	8a 06                	mov    al,BYTE PTR [rsi]
     b05:	84 c0                	test   al,al
     b07:	0f 84 3b 00 00 00    	je     0xb48
     b0d:	48 81 c6 04 00 00 00 	add    rsi,0x4
     b14:	8a 06                	mov    al,BYTE PTR [rsi]
     b16:	84 c0                	test   al,al
     b18:	0f 84 1e 00 00 00    	je     0xb3c
     b1e:	fe 0e                	dec    BYTE PTR [rsi]
     b20:	48 81 c6 dc ff ff ff 	add    rsi,0xffffffffffffffdc
     b27:	fe 06                	inc    BYTE PTR [rsi]
     b29:	48 81 c6 0d 00 00 00 	add    rsi,0xd
     b30:	48 81 c6 17 00 00 00 	add    rsi,0x17
     b37:	e9 d8 ff ff ff       	jmp    0xb14
     b3c:	48 81 c6 05 00 00 00 	add    rsi,0x5
     b43:	e9 bb ff ff ff       	jmp    0xb03
     b48:	48 81 c6 f7 ff ff ff 	add    rsi,0xfffffffffffffff7
     b4f:	8a 06                	mov    al,BYTE PTR [rsi]
     b51:	84 c0                	test   al,al
     b53:	0f 84 0c 00 00 00    	je     0xb65
     b59:	48 81 c6 f7 ff ff ff 	add    rsi,0xfffffffffffffff7
     b60:	e9 ea ff ff ff       	jmp    0xb4f
     b65:	48 81 c6 09 00 00 00 	add    rsi,0x9
     b6c:	80 06 0f             	add    BYTE PTR [rsi],0xf
     b6f:	8a 06                	mov    al,BYTE PTR [rsi]
     b71:	84 c0                	test   al,al
     b73:	0f 84 51 00 00 00    	je     0xbca
     b79:	8a 06                	mov    al,BYTE PTR [rsi]
     b7b:	84 c0                	test   al,al
     b7d:	0f 84 13 00 00 00    	je     0xb96
     b83:	48 81 c6 04 00 00 00 	add    rsi,0x4
     b8a:	48 81 c6 05 00 00 00 	add    rsi,0x5
     b91:	e9 e3 ff ff ff       	jmp    0xb79
     b96:	48 81 c6 f7 ff ff ff 	add    rsi,0xfffffffffffffff7
     b9d:	fe 0e                	dec    BYTE PTR [rsi]
     b9f:	48 81 c6 f7 ff ff ff 	add    rsi,0xfffffffffffffff7
     ba6:	8a 06                	mov    al,BYTE PTR [rsi]
     ba8:	84 c0                	test   al,al
     baa:	0f 84 0c 00 00 00    	je     0xbbc
     bb0:	48 81 c6 f7 ff ff ff 	add    rsi,0xfffffffffffffff7
     bb7:	e9 ea ff ff ff       	jmp    0xba6
     bbc:	48 81 c6 09 00 00 00 	add    rsi,0x9
     bc3:	fe 0e                	dec    BYTE PTR [rsi]
     bc5:	e9 a5 ff ff ff       	jmp    0xb6f
     bca:	fe 06                	inc    BYTE PTR [rsi]
     bcc:	48 81 c6 15 00 00 00 	add    rsi,0x15
     bd3:	fe 06                	inc    BYTE PTR [rsi]
     bd5:	48 81 c6 fd ff ff ff 	add    rsi,0xfffffffffffffffd
     bdc:	8a 06                	mov    al,BYTE PTR [rsi]
     bde:	84 c0                	test   al,al
     be0:	0f 84 13 00 00 00    	je     0xbf9
     be6:	48 81 c6 fa ff ff ff 	add    rsi,0xfffffffffffffffa
     bed:	48 81 c6 fd ff ff ff 	add    rsi,0xfffffffffffffffd
     bf4:	e9 e3 ff ff ff       	jmp    0xbdc
     bf9:	48 81 c6 09 00 00 00 	add    rsi,0x9
     c00:	8a 06                	mov    al,BYTE PTR [rsi]
     c02:	84 c0                	test   al,al
     c04:	0f 84 3e 02 00 00    	je     0xe48
     c0a:	48 81 c6 03 00 00 00 	add    rsi,0x3
     c11:	8a 06                	mov    al,BYTE PTR [rsi]
     c13:	84 c0                	test   al,al
     c15:	0f 84 17 00 00 00    	je     0xc32
     c1b:	fe 0e                	dec    BYTE PTR [rsi]
     c1d:	48 81 c6 fd ff ff ff 	add    rsi,0xfffffffffffffffd
     c24:	fe 0e                	dec    BYTE PTR [rsi]
     c26:	48 81 c6 03 00 00 00 	add    rsi,0x3
     c2d:	e9 df ff ff ff       	jmp    0xc11
     c32:	fe 06                	inc    BYTE PTR [rsi]
     c34:	48 81 c6 fd ff ff ff 	add    rsi,0xfffffffffffffffd
     c3b:	8a 06                	mov    al,BYTE PTR [rsi]
     c3d:	84 c0                	test   al,al
     c3f:	0f 84 b8 00 00 00    	je     0xcfd
     c45:	fe 0e                	dec    BYTE PTR [rsi]
     c47:	48 81 c6 03 00 00 00 	add    rsi,0x3
     c4e:	fe 0e                	dec    BYTE PTR [rsi]
     c50:	48 ff c6             	inc    rsi
     c53:	8a 06                	mov    al,BYTE PTR [rsi]
     c55:	84 c0                	test   al,al
     c57:	0f 84 17 00 00 00    	je     0xc74
     c5d:	fe 0e                	dec    BYTE PTR [rsi]
     c5f:	48 81 c6 fc ff ff ff 	add    rsi,0xfffffffffffffffc
     c66:	fe 06                	inc    BYTE PTR [rsi]
     c68:	48 81 c6 04 00 00 00 	add    rsi,0x4
     c6f:	e9 df ff ff ff       	jmp    0xc53
     c74:	48 81 c6 fc ff ff ff 	add    rsi,0xfffffffffffffffc
     c7b:	8a 06                	mov    al,BYTE PTR [rsi]
     c7d:	84 c0                	test   al,al
     c7f:	0f 84 73 00 00 00    	je     0xcf8
     c85:	fe 0e                	dec    BYTE PTR [rsi]
     c87:	48 81 c6 04 00 00 00 	add    rsi,0x4
     c8e:	fe 06                	inc    BYTE PTR [rsi]
     c90:	48 81 c6 f3 ff ff ff 	add    rsi,0xfffffffffffffff3
     c97:	8a 06                	mov    al,BYTE PTR [rsi]
     c99:	84 c0                	test   al,al
     c9b:	0f 84 13 00 00 00    	je     0xcb4
     ca1:	48 81 c6 fb ff ff ff 	add    rsi,0xfffffffffffffffb
     ca8:	48 81 c6 fc ff ff ff 	add    rsi,0xfffffffffffffffc
     caf:	e9 e3 ff ff ff       	jmp    0xc97
     cb4:	48 81 c6 04 00 00 00 	add    rsi,0x4
     cbb:	8a 06                	mov    al,BYTE PTR [rsi]
     cbd:	84 c0                	test   al,al
     cbf:	0f 84 07 00 00 00    	je     0xccc
     cc5:	fe 0e                	dec    BYTE PTR [rsi]
     cc7:	e9 ef ff ff ff       	jmp    0xcbb
     ccc:	fe 06                	inc    BYTE PTR [rsi]
     cce:	48 81 c6 05 00 00 00 	add    rsi,0x5
     cd5:	8a 06                	mov    al,BYTE PTR [rsi]
     cd7:	84 c0                	test   al,al
     cd9:	0f 84 0c 00 00 00    	je     0xceb
     cdf:	48 81 c6 09 00 00 00 	add    rsi,0x9
     ce6:	e9 ea ff ff ff       	jmp    0xcd5
     ceb:	48 ff c6             	inc    rsi
     cee:	fe 06                	inc    BYTE PTR [rsi]
     cf0:	48 ff ce             	dec    rsi
     cf3:	e9 83 ff ff ff       	jmp    0xc7b
     cf8:	e9 3e ff ff ff       	jmp    0xc3b
     cfd:	fe 06                	inc    BYTE PTR [rsi]
     cff:	48 81 c6 04 00 00 00 	add    rsi,0x4
     d06:	8a 06                	mov    al,BYTE PTR [rsi]
     d08:	84 c0                	test   al,al
     d0a:	0f 84 17 00 00 00    	je     0xd27
     d10:	fe 0e                	dec    BYTE PTR [rsi]
     d12:	48 81 c6 fc ff ff ff 	add    rsi,0xfffffffffffffffc
     d19:	fe 0e                	dec    BYTE PTR [rsi]
     d1b:	48 81 c6 04 00 00 00 	add    rsi,0x4
     d22:	e9 df ff ff ff       	jmp    0xd06
     d27:	fe 06                	inc    BYTE PTR [rsi]
     d29:	48 81 c6 fc ff ff ff 	add    rsi,0xfffffffffffffffc
     d30:	8a 06                	mov    al,BYTE PTR [rsi]
     d32:	84 c0                	test   al,al
     d34:	0f 84 c5 00 00 00    	je     0xdff
     d3a:	fe 0e                	dec    BYTE PTR [rsi]
     d3c:	48 81 c6 04 00 00 00 	add    rsi,0x4
     d43:	fe 0e                	dec    BYTE PTR [rsi]
     d45:	48 ff ce             	dec    rsi
     d48:	8a 06                	mov    al,BYTE PTR [rsi]
     d4a:	84 c0                	test   al,al
     d4c:	0f 84 17 00 00 00    	je     0xd69
     d52:	fe 0e                	dec    BYTE PTR [rsi]
     d54:	48 81 c6 fd ff ff ff 	add    rsi,0xfffffffffffffffd
     d5b:	fe 06                	inc    BYTE PTR [rsi]
     d5d:	48 81 c6 03 00 00 00 	add    rsi,0x3
     d64:	e9 df ff ff ff       	jmp    0xd48
     d69:	48 81 c6 fd ff ff ff 	add    rsi,0xfffffffffffffffd
     d70:	8a 06                	mov    al,BYTE PTR [rsi]
     d72:	84 c0                	test   al,al
     d74:	0f 84 80 00 00 00    	je     0xdfa
     d7a:	fe 0e                	dec    BYTE PTR [rsi]
     d7c:	48 ff c6             	inc    rsi
     d7f:	48 81 c6 02 00 00 00 	add    rsi,0x2
     d86:	fe 06                	inc    BYTE PTR [rsi]
     d88:	48 81 c6 f4 ff ff ff 	add    rsi,0xfffffffffffffff4
     d8f:	8a 06                	mov    al,BYTE PTR [rsi]
     d91:	84 c0                	test   al,al
     d93:	0f 84 0c 00 00 00    	je     0xda5
     d99:	48 81 c6 f7 ff ff ff 	add    rsi,0xfffffffffffffff7
     da0:	e9 ea ff ff ff       	jmp    0xd8f
     da5:	48 81 c6 03 00 00 00 	add    rsi,0x3
     dac:	8a 06                	mov    al,BYTE PTR [rsi]
     dae:	84 c0                	test   al,al
     db0:	0f 84 07 00 00 00    	je     0xdbd
     db6:	fe 0e                	dec    BYTE PTR [rsi]
     db8:	e9 ef ff ff ff       	jmp    0xdac
     dbd:	fe 06                	inc    BYTE PTR [rsi]
     dbf:	48 81 c6 06 00 00 00 	add    rsi,0x6
     dc6:	8a 06                	mov    al,BYTE PTR [rsi]
     dc8:	84 c0                	test   al,al
     dca:	0f 84 0c 00 00 00    	je     0xddc
     dd0:	48 81 c6 09 00 00 00 	add    rsi,0x9
     dd7:	e9 ea ff ff ff       	jmp    0xdc6
     ddc:	48 ff c6             	inc    rsi
     ddf:	8a 06                	mov    al,BYTE PTR [rsi]
     de1:	84 c0                	test   al,al
     de3:	0f 84 07 00 00 00    	je     0xdf0
     de9:	fe 0e                	dec    BYTE PTR [rsi]
     deb:	e9 ef ff ff ff       	jmp    0xddf
     df0:	fe 06                	inc    BYTE PTR [rsi]
     df2:	48 ff ce             	dec    rsi
     df5:	e9 76 ff ff ff       	jmp    0xd70
     dfa:	e9 31 ff ff ff       	jmp    0xd30
     dff:	fe 06                	inc    BYTE PTR [rsi]
     e01:	48 ff c6             	inc    rsi
     e04:	8a 06                	mov    al,BYTE PTR [rsi]
     e06:	84 c0                	test   al,al
     e08:	0f 84 2e 00 00 00    	je     0xe3c
     e0e:	fe 0e                	dec    BYTE PTR [rsi]
     e10:	48 ff ce             	dec    rsi
     e13:	8a 06                	mov    al,BYTE PTR [rsi]
     e15:	84 c0                	test   al,al
     e17:	0f 84 0c 00 00 00    	je     0xe29
     e1d:	48 81 c6 09 00 00 00 	add    rsi,0x9
     e24:	e9 ea ff ff ff       	jmp    0xe13
     e29:	48 81 c6 fa ff ff ff 	add    rsi,0xfffffffffffffffa
     e30:	48 81 c6 fe ff ff ff 	add    rsi,0xfffffffffffffffe
     e37:	e9 c8 ff ff ff       	jmp    0xe04
     e3c:	48 81 c6 08 00 00 00 	add    rsi,0x8
     e43:	e9 b8 fd ff ff       	jmp    0xc00
     e48:	48 81 c6 f7 ff ff ff 	add    rsi,0xfffffffffffffff7
     e4f:	8a 06                	mov    al,BYTE PTR [rsi]
     e51:	84 c0                	test   al,al
     e53:	0f 84 0c 00 00 00    	je     0xe65
     e59:	48 81 c6 f7 ff ff ff 	add    rsi,0xfffffffffffffff7
     e60:	e9 ea ff ff ff       	jmp    0xe4f
     e65:	48 81 c6 f9 ff ff ff 	add    rsi,0xfffffffffffffff9
     e6c:	8a 06                	mov    al,BYTE PTR [rsi]
     e6e:	84 c0                	test   al,al
     e70:	0f 84 1c 00 00 00    	je     0xe92
     e76:	fe 0e                	dec    BYTE PTR [rsi]
     e78:	48 ff c6             	inc    rsi
     e7b:	fe 06                	inc    BYTE PTR [rsi]
     e7d:	48 81 c6 03 00 00 00 	add    rsi,0x3
     e84:	fe 0e                	dec    BYTE PTR [rsi]
     e86:	48 81 c6 fc ff ff ff 	add    rsi,0xfffffffffffffffc
     e8d:	e9 da ff ff ff       	jmp    0xe6c
     e92:	48 81 c6 09 00 00 00 	add    rsi,0x9
     e99:	80 06 13             	add    BYTE PTR [rsi],0x13
     e9c:	80 06 07             	add    BYTE PTR [rsi],0x7
     e9f:	48 81 c6 02 00 00 00 	add    rsi,0x2
     ea6:	8a 06                	mov    al,BYTE PTR [rsi]
     ea8:	84 c0                	test   al,al
     eaa:	0f 84 17 00 00 00    	je     0xec7
     eb0:	fe 0e                	dec    BYTE PTR [rsi]
     eb2:	48 81 c6 fc ff ff ff 	add    rsi,0xfffffffffffffffc
     eb9:	fe 06                	inc    BYTE PTR [rsi]
     ebb:	48 81 c6 04 00 00 00 	add    rsi,0x4
     ec2:	e9 df ff ff ff       	jmp    0xea6
     ec7:	48 81 c6 fc ff ff ff 	add    rsi,0xfffffffffffffffc
     ece:	8a 06                	mov    al,BYTE PTR [rsi]
     ed0:	84 c0                	test   al,al
     ed2:	0f 84 2f 00 00 00    	je     0xf07
     ed8:	fe 0e                	dec    BYTE PTR [rsi]
     eda:	48 81 c6 04 00 00 00 	add    rsi,0x4
     ee1:	fe 06                	inc    BYTE PTR [rsi]
     ee3:	48 81 c6 fe ff ff ff 	add    rsi,0xfffffffffffffffe
     eea:	8a 06                	mov    al,BYTE PTR [rsi]
     eec:	84 c0                	test   al,al
     eee:	0f 84 07 00 00 00    	je     0xefb
     ef4:	fe 0e                	dec    BYTE PTR [rsi]
     ef6:	e9 ef ff ff ff       	jmp    0xeea
     efb:	48 81 c6 fe ff ff ff 	add    rsi,0xfffffffffffffffe
     f02:	e9 c7 ff ff ff       	jmp    0xece
     f07:	48 81 c6 02 00 00 00 	add    rsi,0x2
     f0e:	8a 06                	mov    al,BYTE PTR [rsi]
     f10:	84 c0                	test   al,al
     f12:	0f 84 f6 37 00 00    	je     0x470e
     f18:	48 81 c6 f9 ff ff ff 	add    rsi,0xfffffffffffffff9
     f1f:	fe 06                	inc    BYTE PTR [rsi]
     f21:	48 ff ce             	dec    rsi
     f24:	8a 06                	mov    al,BYTE PTR [rsi]
     f26:	84 c0                	test   al,al
     f28:	0f 84 2d 00 00 00    	je     0xf5b
     f2e:	fe 0e                	dec    BYTE PTR [rsi]
     f30:	48 ff ce             	dec    rsi
     f33:	fe 06                	inc    BYTE PTR [rsi]
     f35:	48 81 c6 04 00 00 00 	add    rsi,0x4
     f3c:	fe 06                	inc    BYTE PTR [rsi]
     f3e:	48 81 c6 fe ff ff ff 	add    rsi,0xfffffffffffffffe
     f45:	8a 06                	mov    al,BYTE PTR [rsi]
     f47:	84 c0                	test   al,al
     f49:	0f 84 07 00 00 00    	je     0xf56
     f4f:	fe 0e                	dec    BYTE PTR [rsi]
     f51:	e9 ef ff ff ff       	jmp    0xf45
     f56:	e9 c9 ff ff ff       	jmp    0xf24
     f5b:	48 ff c6             	inc    rsi
     f5e:	8a 06                	mov    al,BYTE PTR [rsi]
     f60:	84 c0                	test   al,al
     f62:	0f 84 3b 00 00 00    	je     0xfa3
     f68:	fe 0e                	dec    BYTE PTR [rsi]
     f6a:	48 81 c6 fe ff ff ff 	add    rsi,0xfffffffffffffffe
     f71:	8a 06                	mov    al,BYTE PTR [rsi]
     f73:	84 c0                	test   al,al
     f75:	0f 84 1c 00 00 00    	je     0xf97
     f7b:	fe 0e                	dec    BYTE PTR [rsi]
     f7d:	48 ff c6             	inc    rsi
     f80:	fe 06                	inc    BYTE PTR [rsi]
     f82:	48 81 c6 03 00 00 00 	add    rsi,0x3
     f89:	fe 0e                	dec    BYTE PTR [rsi]
     f8b:	48 81 c6 fc ff ff ff 	add    rsi,0xfffffffffffffffc
     f92:	e9 da ff ff ff       	jmp    0xf71
     f97:	48 81 c6 03 00 00 00 	add    rsi,0x3
     f9e:	e9 bb ff ff ff       	jmp    0xf5e
     fa3:	48 81 c6 0d 00 00 00 	add    rsi,0xd
     faa:	8a 06                	mov    al,BYTE PTR [rsi]
     fac:	84 c0                	test   al,al
     fae:	0f 84 4c 00 00 00    	je     0x1000
     fb4:	48 81 c6 02 00 00 00 	add    rsi,0x2
     fbb:	8a 06                	mov    al,BYTE PTR [rsi]
     fbd:	84 c0                	test   al,al
     fbf:	0f 84 07 00 00 00    	je     0xfcc
     fc5:	fe 0e                	dec    BYTE PTR [rsi]
     fc7:	e9 ef ff ff ff       	jmp    0xfbb
     fcc:	48 ff c6             	inc    rsi
     fcf:	8a 06                	mov    al,BYTE PTR [rsi]
     fd1:	84 c0                	test   al,al
     fd3:	0f 84 07 00 00 00    	je     0xfe0
     fd9:	fe 0e                	dec    BYTE PTR [rsi]
     fdb:	e9 ef ff ff ff       	jmp    0xfcf
     fe0:	48 ff c6             	inc    rsi
     fe3:	8a 06                	mov    al,BYTE PTR [rsi]
     fe5:	84 c0                	test   al,al
     fe7:	0f 84 07 00 00 00    	je     0xff4
     fed:	fe 0e                	dec    BYTE PTR [rsi]
     fef:	e9 ef ff ff ff       	jmp    0xfe3
     ff4:	48 81 c6 05 00 00 00 	add    rsi,0x5
     ffb:	e9 aa ff ff ff       	jmp    0xfaa
    1000:	48 81 c6 f7 ff ff ff 	add    rsi,0xfffffffffffffff7
    1007:	8a 06                	mov    al,BYTE PTR [rsi]
    1009:	84 c0                	test   al,al
    100b:	0f 84 0c 00 00 00    	je     0x101d
    1011:	48 81 c6 f7 ff ff ff 	add    rsi,0xfffffffffffffff7
    1018:	e9 ea ff ff ff       	jmp    0x1007
    101d:	48 81 c6 03 00 00 00 	add    rsi,0x3
    1024:	8a 06                	mov    al,BYTE PTR [rsi]
    1026:	84 c0                	test   al,al
    1028:	0f 84 07 00 00 00    	je     0x1035
    102e:	fe 0e                	dec    BYTE PTR [rsi]
    1030:	e9 ef ff ff ff       	jmp    0x1024
    1035:	48 81 c6 06 00 00 00 	add    rsi,0x6
    103c:	8a 06                	mov    al,BYTE PTR [rsi]
    103e:	84 c0                	test   al,al
    1040:	0f 84 61 00 00 00    	je     0x10a7
    1046:	48 81 c6 05 00 00 00 	add    rsi,0x5
    104d:	8a 06                	mov    al,BYTE PTR [rsi]
    104f:	84 c0                	test   al,al
    1051:	0f 84 17 00 00 00    	je     0x106e
    1057:	fe 0e                	dec    BYTE PTR [rsi]
    1059:	48 81 c6 fc ff ff ff 	add    rsi,0xfffffffffffffffc
    1060:	fe 06                	inc    BYTE PTR [rsi]
    1062:	48 81 c6 04 00 00 00 	add    rsi,0x4
    1069:	e9 df ff ff ff       	jmp    0x104d
    106e:	48 81 c6 fc ff ff ff 	add    rsi,0xfffffffffffffffc
    1075:	8a 06                	mov    al,BYTE PTR [rsi]
    1077:	84 c0                	test   al,al
    1079:	0f 84 1c 00 00 00    	je     0x109b
    107f:	fe 0e                	dec    BYTE PTR [rsi]
    1081:	48 81 c6 04 00 00 00 	add    rsi,0x4
    1088:	fe 06                	inc    BYTE PTR [rsi]
    108a:	48 81 c6 fd ff ff ff 	add    rsi,0xfffffffffffffffd
    1091:	fe 06                	inc    BYTE PTR [rsi]
    1093:	48 ff ce             	dec    rsi
    1096:	e9 da ff ff ff       	jmp    0x1075
    109b:	48 81 c6 08 00 00 00 	add    rsi,0x8
    10a2:	e9 95 ff ff ff       	jmp    0x103c
    10a7:	48 81 c6 f7 ff ff ff 	add    rsi,0xfffffffffffffff7
    10ae:	8a 06                	mov    al,BYTE PTR [rsi]
    10b0:	84 c0                	test   al,al
    10b2:	0f 84 0c 00 00 00    	je     0x10c4
    10b8:	48 81 c6 f7 ff ff ff 	add    rsi,0xfffffffffffffff7
    10bf:	e9 ea ff ff ff       	jmp    0x10ae
    10c4:	48 81 c6 09 00 00 00 	add    rsi,0x9
    10cb:	8a 06                	mov    al,BYTE PTR [rsi]
    10cd:	84 c0                	test   al,al
    10cf:	0f 84 37 00 00 00    	je     0x110c
    10d5:	48 81 c6 02 00 00 00 	add    rsi,0x2
    10dc:	8a 06                	mov    al,BYTE PTR [rsi]
    10de:	84 c0                	test   al,al
    10e0:	0f 84 1a 00 00 00    	je     0x1100
    10e6:	fe 0e                	dec    BYTE PTR [rsi]
    10e8:	48 81 c6 f8 ff ff ff 	add    rsi,0xfffffffffffffff8
    10ef:	48 ff ce             	dec    rsi
    10f2:	fe 06                	inc    BYTE PTR [rsi]
    10f4:	48 81 c6 09 00 00 00 	add    rsi,0x9
    10fb:	e9 dc ff ff ff       	jmp    0x10dc
    1100:	48 81 c6 07 00 00 00 	add    rsi,0x7
    1107:	e9 bf ff ff ff       	jmp    0x10cb
    110c:	48 81 c6 f7 ff ff ff 	add    rsi,0xfffffffffffffff7
    1113:	8a 06                	mov    al,BYTE PTR [rsi]
    1115:	84 c0                	test   al,al
    1117:	0f 84 0c 00 00 00    	je     0x1129
    111d:	48 81 c6 f7 ff ff ff 	add    rsi,0xfffffffffffffff7
    1124:	e9 ea ff ff ff       	jmp    0x1113
    1129:	48 81 c6 09 00 00 00 	add    rsi,0x9
    1130:	80 06 0f             	add    BYTE PTR [rsi],0xf
    1133:	8a 06                	mov    al,BYTE PTR [rsi]
    1135:	84 c0                	test   al,al
    1137:	0f 84 f7 00 00 00    	je     0x1234
    113d:	8a 06                	mov    al,BYTE PTR [rsi]
    113f:	84 c0                	test   al,al
    1141:	0f 84 0c 00 00 00    	je     0x1153
    1147:	48 81 c6 09 00 00 00 	add    rsi,0x9
    114e:	e9 ea ff ff ff       	jmp    0x113d
    1153:	fe 06                	inc    BYTE PTR [rsi]
    1155:	48 ff c6             	inc    rsi
    1158:	8a 06                	mov    al,BYTE PTR [rsi]
    115a:	84 c0                	test   al,al
    115c:	0f 84 07 00 00 00    	je     0x1169
    1162:	fe 0e                	dec    BYTE PTR [rsi]
    1164:	e9 ef ff ff ff       	jmp    0x1158
    1169:	48 ff c6             	inc    rsi
    116c:	8a 06                	mov    al,BYTE PTR [rsi]
    116e:	84 c0                	test   al,al
    1170:	0f 84 07 00 00 00    	je     0x117d
    1176:	fe 0e                	dec    BYTE PTR [rsi]
    1178:	e9 ef ff ff ff       	jmp    0x116c
    117d:	48 ff c6             	inc    rsi
    1180:	8a 06                	mov    al,BYTE PTR [rsi]
    1182:	84 c0                	test   al,al
    1184:	0f 84 07 00 00 00    	je     0x1191
    118a:	fe 0e                	dec    BYTE PTR [rsi]
    118c:	e9 ef ff ff ff       	jmp    0x1180
    1191:	48 ff c6             	inc    rsi
    1194:	8a 06                	mov    al,BYTE PTR [rsi]
    1196:	84 c0                	test   al,al
    1198:	0f 84 07 00 00 00    	je     0x11a5
    119e:	fe 0e                	dec    BYTE PTR [rsi]
    11a0:	e9 ef ff ff ff       	jmp    0x1194
    11a5:	48 ff c6             	inc    rsi
    11a8:	8a 06                	mov    al,BYTE PTR [rsi]
    11aa:	84 c0                	test   al,al
    11ac:	0f 84 07 00 00 00    	je     0x11b9
    11b2:	fe 0e                	dec    BYTE PTR [rsi]
    11b4:	e9 ef ff ff ff       	jmp    0x11a8
    11b9:	48 ff c6             	inc    rsi
    11bc:	8a 06                	mov    al,BYTE PTR [rsi]
    11be:	84 c0                	test   al,al
    11c0:	0f 84 07 00 00 00    	je     0x11cd
    11c6:	fe 0e                	dec    BYTE PTR [rsi]
    11c8:	e9 ef ff ff ff       	jmp    0x11bc
    11cd:	48 ff c6             	inc    rsi
    11d0:	8a 06                	mov    al,BYTE PTR [rsi]
    11d2:	84 c0                	test   al,al
    11d4:	0f 84 07 00 00 00    	je     0x11e1
    11da:	fe 0e                	dec    BYTE PTR [rsi]
    11dc:	e9 ef ff ff ff       	jmp    0x11d0
    11e1:	48 ff c6             	inc    rsi
    11e4:	8a 06                	mov    al,BYTE PTR [rsi]
    11e6:	84 c0                	test   al,al
    11e8:	0f 84 07 00 00 00    	je     0x11f5
    11ee:	fe 0e                	dec    BYTE PTR [rsi]
    11f0:	e9 ef ff ff ff       	jmp    0x11e4
    11f5:	48 ff c6             	inc    rsi
    11f8:	8a 06                	mov    al,BYTE PTR [rsi]
    11fa:	84 c0                	test   al,al
    11fc:	0f 84 07 00 00 00    	je     0x1209
    1202:	fe 0e                	dec    BYTE PTR [rsi]
    1204:	e9 ef ff ff ff       	jmp    0x11f8
    1209:	48 81 c6 f7 ff ff ff 	add    rsi,0xfffffffffffffff7
    1210:	8a 06                	mov    al,BYTE PTR [rsi]
    1212:	84 c0                	test   al,al
    1214:	0f 84 0c 00 00 00    	je     0x1226
    121a:	48 81 c6 f7 ff ff ff 	add    rsi,0xfffffffffffffff7
    1221:	e9 ea ff ff ff       	jmp    0x1210
    1226:	48 81 c6 09 00 00 00 	add    rsi,0x9
    122d:	fe 0e                	dec    BYTE PTR [rsi]
    122f:	e9 ff fe ff ff       	jmp    0x1133
    1234:	fe 06                	inc    BYTE PTR [rsi]
    1236:	8a 06                	mov    al,BYTE PTR [rsi]
    1238:	84 c0                	test   al,al
    123a:	0f 84 11 00 00 00    	je     0x1251
    1240:	48 ff c6             	inc    rsi
    1243:	fe 06                	inc    BYTE PTR [rsi]
    1245:	48 81 c6 08 00 00 00 	add    rsi,0x8
    124c:	e9 e5 ff ff ff       	jmp    0x1236
    1251:	48 81 c6 fd ff ff ff 	add    rsi,0xfffffffffffffffd
    1258:	48 81 c6 fa ff ff ff 	add    rsi,0xfffffffffffffffa
    125f:	8a 06                	mov    al,BYTE PTR [rsi]
    1261:	84 c0                	test   al,al
    1263:	0f 84 0c 00 00 00    	je     0x1275
    1269:	48 81 c6 f7 ff ff ff 	add    rsi,0xfffffffffffffff7
    1270:	e9 ea ff ff ff       	jmp    0x125f
    1275:	48 81 c6 09 00 00 00 	add    rsi,0x9
    127c:	8a 06                	mov    al,BYTE PTR [rsi]
    127e:	84 c0                	test   al,al
    1280:	0f 84 7a 01 00 00    	je     0x1400
    1286:	48 ff c6             	inc    rsi
    1289:	fe 0e                	dec    BYTE PTR [rsi]
    128b:	48 81 c6 05 00 00 00 	add    rsi,0x5
    1292:	8a 06                	mov    al,BYTE PTR [rsi]
    1294:	84 c0                	test   al,al
    1296:	0f 84 17 00 00 00    	je     0x12b3
    129c:	fe 0e                	dec    BYTE PTR [rsi]
    129e:	48 81 c6 fb ff ff ff 	add    rsi,0xfffffffffffffffb
    12a5:	fe 06                	inc    BYTE PTR [rsi]
    12a7:	48 81 c6 05 00 00 00 	add    rsi,0x5
    12ae:	e9 df ff ff ff       	jmp    0x1292
    12b3:	48 81 c6 fb ff ff ff 	add    rsi,0xfffffffffffffffb
    12ba:	8a 06                	mov    al,BYTE PTR [rsi]
    12bc:	84 c0                	test   al,al
    12be:	0f 84 a2 00 00 00    	je     0x1366
    12c4:	fe 0e                	dec    BYTE PTR [rsi]
    12c6:	48 81 c6 05 00 00 00 	add    rsi,0x5
    12cd:	fe 06                	inc    BYTE PTR [rsi]
    12cf:	48 81 c6 fa ff ff ff 	add    rsi,0xfffffffffffffffa
    12d6:	8a 06                	mov    al,BYTE PTR [rsi]
    12d8:	84 c0                	test   al,al
    12da:	0f 84 64 00 00 00    	je     0x1344
    12e0:	fe 0e                	dec    BYTE PTR [rsi]
    12e2:	48 81 c6 02 00 00 00 	add    rsi,0x2
    12e9:	8a 06                	mov    al,BYTE PTR [rsi]
    12eb:	84 c0                	test   al,al
    12ed:	0f 84 17 00 00 00    	je     0x130a
    12f3:	fe 0e                	dec    BYTE PTR [rsi]
    12f5:	48 81 c6 fe ff ff ff 	add    rsi,0xfffffffffffffffe
    12fc:	fe 06                	inc    BYTE PTR [rsi]
    12fe:	48 81 c6 02 00 00 00 	add    rsi,0x2
    1305:	e9 df ff ff ff       	jmp    0x12e9
    130a:	48 ff ce             	dec    rsi
    130d:	48 ff ce             	dec    rsi
    1310:	8a 06                	mov    al,BYTE PTR [rsi]
    1312:	84 c0                	test   al,al
    1314:	0f 84 1c 00 00 00    	je     0x1336
    131a:	fe 0e                	dec    BYTE PTR [rsi]
    131c:	48 81 c6 02 00 00 00 	add    rsi,0x2
    1323:	fe 06                	inc    BYTE PTR [rsi]
    1325:	48 ff c6             	inc    rsi
    1328:	fe 06                	inc    BYTE PTR [rsi]
    132a:	48 81 c6 fd ff ff ff 	add    rsi,0xfffffffffffffffd
    1331:	e9 da ff ff ff       	jmp    0x1310
    1336:	fe 06                	inc    BYTE PTR [rsi]
    1338:	48 81 c6 09 00 00 00 	add    rsi,0x9
    133f:	e9 92 ff ff ff       	jmp    0x12d6
    1344:	48 81 c6 f8 ff ff ff 	add    rsi,0xfffffffffffffff8
    134b:	8a 06                	mov    al,BYTE PTR [rsi]
    134d:	84 c0                	test   al,al
    134f:	0f 84 0c 00 00 00    	je     0x1361
    1355:	48 81 c6 f7 ff ff ff 	add    rsi,0xfffffffffffffff7
    135c:	e9 ea ff ff ff       	jmp    0x134b
    1361:	e9 54 ff ff ff       	jmp    0x12ba
    1366:	48 81 c6 09 00 00 00 	add    rsi,0x9
    136d:	8a 06                	mov    al,BYTE PTR [rsi]
    136f:	84 c0                	test   al,al
    1371:	0f 84 0c 00 00 00    	je     0x1383
    1377:	48 81 c6 09 00 00 00 	add    rsi,0x9
    137e:	e9 ea ff ff ff       	jmp    0x136d
    1383:	48 81 c6 f7 ff ff ff 	add    rsi,0xfffffffffffffff7
    138a:	8a 06                	mov    al,BYTE PTR [rsi]
    138c:	84 c0                	test   al,al
    138e:	0f 84 37 00 00 00    	je     0x13cb
    1394:	48 ff c6             	inc    rsi
    1397:	8a 06                	mov    al,BYTE PTR [rsi]
    1399:	84 c0                	test   al,al
    139b:	0f 84 1e 00 00 00    	je     0x13bf
    13a1:	fe 0e                	dec    BYTE PTR [rsi]
    13a3:	48 81 c6 04 00 00 00 	add    rsi,0x4
    13aa:	48 81 c6 05 00 00 00 	add    rsi,0x5
    13b1:	fe 06                	inc    BYTE PTR [rsi]
    13b3:	48 81 c6 f7 ff ff ff 	add    rsi,0xfffffffffffffff7
    13ba:	e9 d8 ff ff ff       	jmp    0x1397
    13bf:	48 81 c6 f6 ff ff ff 	add    rsi,0xfffffffffffffff6
    13c6:	e9 bf ff ff ff       	jmp    0x138a
    13cb:	48 ff c6             	inc    rsi
    13ce:	8a 06                	mov    al,BYTE PTR [rsi]
    13d0:	84 c0                	test   al,al
    13d2:	0f 84 17 00 00 00    	je     0x13ef
    13d8:	fe 0e                	dec    BYTE PTR [rsi]
    13da:	48 81 c6 09 00 00 00 	add    rsi,0x9
    13e1:	fe 06                	inc    BYTE PTR [rsi]
    13e3:	48 81 c6 f7 ff ff ff 	add    rsi,0xfffffffffffffff7
    13ea:	e9 df ff ff ff       	jmp    0x13ce
    13ef:	48 ff ce             	dec    rsi
    13f2:	fe 06                	inc    BYTE PTR [rsi]
    13f4:	48 81 c6 08 00 00 00 	add    rsi,0x8
    13fb:	e9 7c fe ff ff       	jmp    0x127c
    1400:	48 81 c6 f7 ff ff ff 	add    rsi,0xfffffffffffffff7
    1407:	8a 06                	mov    al,BYTE PTR [rsi]
    1409:	84 c0                	test   al,al
    140b:	0f 84 c2 00 00 00    	je     0x14d3
    1411:	48 ff c6             	inc    rsi
    1414:	8a 06                	mov    al,BYTE PTR [rsi]
    1416:	84 c0                	test   al,al
    1418:	0f 84 07 00 00 00    	je     0x1425
    141e:	fe 0e                	dec    BYTE PTR [rsi]
    1420:	e9 ef ff ff ff       	jmp    0x1414
    1425:	48 ff ce             	dec    rsi
    1428:	fe 0e                	dec    BYTE PTR [rsi]
    142a:	48 81 c6 03 00 00 00 	add    rsi,0x3
    1431:	8a 06                	mov    al,BYTE PTR [rsi]
    1433:	84 c0                	test   al,al
    1435:	0f 84 5f 00 00 00    	je     0x149a
    143b:	fe 0e                	dec    BYTE PTR [rsi]
    143d:	48 81 c6 fd ff ff ff 	add    rsi,0xfffffffffffffffd
    1444:	fe 06                	inc    BYTE PTR [rsi]
    1446:	48 ff c6             	inc    rsi
    1449:	8a 06                	mov    al,BYTE PTR [rsi]
    144b:	84 c0                	test   al,al
    144d:	0f 84 1f 00 00 00    	je     0x1472
    1453:	48 ff ce             	dec    rsi
    1456:	fe 0e                	dec    BYTE PTR [rsi]
    1458:	48 ff c6             	inc    rsi
    145b:	fe 0e                	dec    BYTE PTR [rsi]
    145d:	48 81 c6 f9 ff ff ff 	add    rsi,0xfffffffffffffff9
    1464:	fe 06                	inc    BYTE PTR [rsi]
    1466:	48 81 c6 07 00 00 00 	add    rsi,0x7
    146d:	e9 d7 ff ff ff       	jmp    0x1449
    1472:	48 ff ce             	dec    rsi
    1475:	8a 06                	mov    al,BYTE PTR [rsi]
    1477:	84 c0                	test   al,al
    1479:	0f 84 0f 00 00 00    	je     0x148e
    147f:	fe 0e                	dec    BYTE PTR [rsi]
    1481:	48 ff c6             	inc    rsi
    1484:	fe 06                	inc    BYTE PTR [rsi]
    1486:	48 ff ce             	dec    rsi
    1489:	e9 e7 ff ff ff       	jmp    0x1475
    148e:	48 81 c6 03 00 00 00 	add    rsi,0x3
    1495:	e9 97 ff ff ff       	jmp    0x1431
    149a:	48 81 c6 fe ff ff ff 	add    rsi,0xfffffffffffffffe
    14a1:	8a 06                	mov    al,BYTE PTR [rsi]
    14a3:	84 c0                	test   al,al
    14a5:	0f 84 17 00 00 00    	je     0x14c2
    14ab:	fe 0e                	dec    BYTE PTR [rsi]
    14ad:	48 81 c6 02 00 00 00 	add    rsi,0x2
    14b4:	fe 06                	inc    BYTE PTR [rsi]
    14b6:	48 81 c6 fe ff ff ff 	add    rsi,0xfffffffffffffffe
    14bd:	e9 df ff ff ff       	jmp    0x14a1
    14c2:	48 ff ce             	dec    rsi
    14c5:	fe 06                	inc    BYTE PTR [rsi]
    14c7:	48 81 c6 f7 ff ff ff 	add    rsi,0xfffffffffffffff7
    14ce:	e9 34 ff ff ff       	jmp    0x1407
    14d3:	48 81 c6 09 00 00 00 	add    rsi,0x9
    14da:	8a 06                	mov    al,BYTE PTR [rsi]
    14dc:	84 c0                	test   al,al
    14de:	0f 84 64 00 00 00    	je     0x1548
    14e4:	48 81 c6 06 00 00 00 	add    rsi,0x6
    14eb:	8a 06                	mov    al,BYTE PTR [rsi]
    14ed:	84 c0                	test   al,al
    14ef:	0f 84 1a 00 00 00    	je     0x150f
    14f5:	fe 0e                	dec    BYTE PTR [rsi]
    14f7:	48 ff ce             	dec    rsi
    14fa:	48 81 c6 fc ff ff ff 	add    rsi,0xfffffffffffffffc
    1501:	fe 06                	inc    BYTE PTR [rsi]
    1503:	48 81 c6 05 00 00 00 	add    rsi,0x5
    150a:	e9 dc ff ff ff       	jmp    0x14eb
    150f:	48 81 c6 fb ff ff ff 	add    rsi,0xfffffffffffffffb
    1516:	8a 06                	mov    al,BYTE PTR [rsi]
    1518:	84 c0                	test   al,al
    151a:	0f 84 1c 00 00 00    	je     0x153c
    1520:	fe 0e                	dec    BYTE PTR [rsi]
    1522:	48 81 c6 05 00 00 00 	add    rsi,0x5
    1529:	fe 06                	inc    BYTE PTR [rsi]
    152b:	48 81 c6 fc ff ff ff 	add    rsi,0xfffffffffffffffc
    1532:	fe 06                	inc    BYTE PTR [rsi]
    1534:	48 ff ce             	dec    rsi
    1537:	e9 da ff ff ff       	jmp    0x1516
    153c:	48 81 c6 08 00 00 00 	add    rsi,0x8
    1543:	e9 92 ff ff ff       	jmp    0x14da
    1548:	48 81 c6 f7 ff ff ff 	add    rsi,0xfffffffffffffff7
    154f:	8a 06                	mov    al,BYTE PTR [rsi]
    1551:	84 c0                	test   al,al
    1553:	0f 84 0c 00 00 00    	je     0x1565
    1559:	48 81 c6 f7 ff ff ff 	add    rsi,0xfffffffffffffff7
    1560:	e9 ea ff ff ff       	jmp    0x154f
    1565:	48 81 c6 09 00 00 00 	add    rsi,0x9
    156c:	8a 06                	mov    al,BYTE PTR [rsi]
    156e:	84 c0                	test   al,al
    1570:	0f 84 11 00 00 00    	je     0x1587
    1576:	48 ff c6             	inc    rsi
    1579:	fe 06                	inc    BYTE PTR [rsi]
    157b:	48 81 c6 08 00 00 00 	add    rsi,0x8
    1582:	e9 e5 ff ff ff       	jmp    0x156c
    1587:	48 81 c6 f7 ff ff ff 	add    rsi,0xfffffffffffffff7
    158e:	8a 06                	mov    al,BYTE PTR [rsi]
    1590:	84 c0                	test   al,al
    1592:	0f 84 0c 00 00 00    	je     0x15a4
    1598:	48 81 c6 f7 ff ff ff 	add    rsi,0xfffffffffffffff7
    159f:	e9 ea ff ff ff       	jmp    0x158e
    15a4:	48 81 c6 09 00 00 00 	add    rsi,0x9
    15ab:	8a 06                	mov    al,BYTE PTR [rsi]
    15ad:	84 c0                	test   al,al
    15af:	0f 84 78 01 00 00    	je     0x172d
    15b5:	48 ff c6             	inc    rsi
    15b8:	fe 0e                	dec    BYTE PTR [rsi]
    15ba:	48 81 c6 05 00 00 00 	add    rsi,0x5
    15c1:	8a 06                	mov    al,BYTE PTR [rsi]
    15c3:	84 c0                	test   al,al
    15c5:	0f 84 17 00 00 00    	je     0x15e2
    15cb:	fe 0e                	dec    BYTE PTR [rsi]
    15cd:	48 81 c6 fb ff ff ff 	add    rsi,0xfffffffffffffffb
    15d4:	fe 06                	inc    BYTE PTR [rsi]
    15d6:	48 81 c6 05 00 00 00 	add    rsi,0x5
    15dd:	e9 df ff ff ff       	jmp    0x15c1
    15e2:	48 81 c6 fb ff ff ff 	add    rsi,0xfffffffffffffffb
    15e9:	8a 06                	mov    al,BYTE PTR [rsi]
    15eb:	84 c0                	test   al,al
    15ed:	0f 84 a7 00 00 00    	je     0x169a
    15f3:	fe 0e                	dec    BYTE PTR [rsi]
    15f5:	48 81 c6 05 00 00 00 	add    rsi,0x5
    15fc:	fe 06                	inc    BYTE PTR [rsi]
    15fe:	48 81 c6 fa ff ff ff 	add    rsi,0xfffffffffffffffa
    1605:	8a 06                	mov    al,BYTE PTR [rsi]
    1607:	84 c0                	test   al,al
    1609:	0f 84 69 00 00 00    	je     0x1678
    160f:	fe 0e                	dec    BYTE PTR [rsi]
    1611:	48 81 c6 02 00 00 00 	add    rsi,0x2
    1618:	8a 06                	mov    al,BYTE PTR [rsi]
    161a:	84 c0                	test   al,al
    161c:	0f 84 17 00 00 00    	je     0x1639
    1622:	fe 0e                	dec    BYTE PTR [rsi]
    1624:	48 81 c6 fe ff ff ff 	add    rsi,0xfffffffffffffffe
    162b:	fe 06                	inc    BYTE PTR [rsi]
    162d:	48 81 c6 02 00 00 00 	add    rsi,0x2
    1634:	e9 df ff ff ff       	jmp    0x1618
    1639:	48 81 c6 fe ff ff ff 	add    rsi,0xfffffffffffffffe
    1640:	8a 06                	mov    al,BYTE PTR [rsi]
    1642:	84 c0                	test   al,al
    1644:	0f 84 20 00 00 00    	je     0x166a
    164a:	fe 0e                	dec    BYTE PTR [rsi]
    164c:	48 81 c6 02 00 00 00 	add    rsi,0x2
    1653:	fe 06                	inc    BYTE PTR [rsi]
    1655:	48 81 c6 02 00 00 00 	add    rsi,0x2
    165c:	fe 06                	inc    BYTE PTR [rsi]
    165e:	48 81 c6 fc ff ff ff 	add    rsi,0xfffffffffffffffc
    1665:	e9 d6 ff ff ff       	jmp    0x1640
    166a:	fe 06                	inc    BYTE PTR [rsi]
    166c:	48 81 c6 09 00 00 00 	add    rsi,0x9
    1673:	e9 8d ff ff ff       	jmp    0x1605
    1678:	48 81 c6 f8 ff ff ff 	add    rsi,0xfffffffffffffff8
    167f:	8a 06                	mov    al,BYTE PTR [rsi]
    1681:	84 c0                	test   al,al
    1683:	0f 84 0c 00 00 00    	je     0x1695
    1689:	48 81 c6 f7 ff ff ff 	add    rsi,0xfffffffffffffff7
    1690:	e9 ea ff ff ff       	jmp    0x167f
    1695:	e9 4f ff ff ff       	jmp    0x15e9
    169a:	48 81 c6 09 00 00 00 	add    rsi,0x9
    16a1:	8a 06                	mov    al,BYTE PTR [rsi]
    16a3:	84 c0                	test   al,al
    16a5:	0f 84 0c 00 00 00    	je     0x16b7
    16ab:	48 81 c6 09 00 00 00 	add    rsi,0x9
    16b2:	e9 ea ff ff ff       	jmp    0x16a1
    16b7:	48 81 c6 f7 ff ff ff 	add    rsi,0xfffffffffffffff7
    16be:	8a 06                	mov    al,BYTE PTR [rsi]
    16c0:	84 c0                	test   al,al
    16c2:	0f 84 30 00 00 00    	je     0x16f8
    16c8:	48 ff c6             	inc    rsi
    16cb:	8a 06                	mov    al,BYTE PTR [rsi]
    16cd:	84 c0                	test   al,al
    16cf:	0f 84 17 00 00 00    	je     0x16ec
    16d5:	fe 0e                	dec    BYTE PTR [rsi]
    16d7:	48 81 c6 09 00 00 00 	add    rsi,0x9
    16de:	fe 06                	inc    BYTE PTR [rsi]
    16e0:	48 81 c6 f7 ff ff ff 	add    rsi,0xfffffffffffffff7
    16e7:	e9 df ff ff ff       	jmp    0x16cb
    16ec:	48 81 c6 f6 ff ff ff 	add    rsi,0xfffffffffffffff6
    16f3:	e9 c6 ff ff ff       	jmp    0x16be
    16f8:	48 ff c6             	inc    rsi
    16fb:	8a 06                	mov    al,BYTE PTR [rsi]
    16fd:	84 c0                	test   al,al
    16ff:	0f 84 17 00 00 00    	je     0x171c
    1705:	fe 0e                	dec    BYTE PTR [rsi]
    1707:	48 81 c6 09 00 00 00 	add    rsi,0x9
    170e:	fe 06                	inc    BYTE PTR [rsi]
    1710:	48 81 c6 f7 ff ff ff 	add    rsi,0xfffffffffffffff7
    1717:	e9 df ff ff ff       	jmp    0x16fb
    171c:	48 ff ce             	dec    rsi
    171f:	fe 06                	inc    BYTE PTR [rsi]
    1721:	48 81 c6 08 00 00 00 	add    rsi,0x8
    1728:	e9 7e fe ff ff       	jmp    0x15ab
    172d:	48 81 c6 f7 ff ff ff 	add    rsi,0xfffffffffffffff7
    1734:	8a 06                	mov    al,BYTE PTR [rsi]
    1736:	84 c0                	test   al,al
    1738:	0f 84 c2 00 00 00    	je     0x1800
    173e:	48 ff c6             	inc    rsi
    1741:	8a 06                	mov    al,BYTE PTR [rsi]
    1743:	84 c0                	test   al,al
    1745:	0f 84 07 00 00 00    	je     0x1752
    174b:	fe 0e                	dec    BYTE PTR [rsi]
    174d:	e9 ef ff ff ff       	jmp    0x1741
    1752:	48 ff ce             	dec    rsi
    1755:	fe 0e                	dec    BYTE PTR [rsi]
    1757:	48 81 c6 04 00 00 00 	add    rsi,0x4
    175e:	8a 06                	mov    al,BYTE PTR [rsi]
    1760:	84 c0                	test   al,al
    1762:	0f 84 5f 00 00 00    	je     0x17c7
    1768:	fe 0e                	dec    BYTE PTR [rsi]
    176a:	48 81 c6 fc ff ff ff 	add    rsi,0xfffffffffffffffc
    1771:	fe 06                	inc    BYTE PTR [rsi]
    1773:	48 ff c6             	inc    rsi
    1776:	8a 06                	mov    al,BYTE PTR [rsi]
    1778:	84 c0                	test   al,al
    177a:	0f 84 1f 00 00 00    	je     0x179f
    1780:	48 ff ce             	dec    rsi
    1783:	fe 0e                	dec    BYTE PTR [rsi]
    1785:	48 ff c6             	inc    rsi
    1788:	fe 0e                	dec    BYTE PTR [rsi]
    178a:	48 81 c6 fa ff ff ff 	add    rsi,0xfffffffffffffffa
    1791:	fe 06                	inc    BYTE PTR [rsi]
    1793:	48 81 c6 06 00 00 00 	add    rsi,0x6
    179a:	e9 d7 ff ff ff       	jmp    0x1776
    179f:	48 ff ce             	dec    rsi
    17a2:	8a 06                	mov    al,BYTE PTR [rsi]
    17a4:	84 c0                	test   al,al
    17a6:	0f 84 0f 00 00 00    	je     0x17bb
    17ac:	fe 0e                	dec    BYTE PTR [rsi]
    17ae:	48 ff c6             	inc    rsi
    17b1:	fe 06                	inc    BYTE PTR [rsi]
    17b3:	48 ff ce             	dec    rsi
    17b6:	e9 e7 ff ff ff       	jmp    0x17a2
    17bb:	48 81 c6 04 00 00 00 	add    rsi,0x4
    17c2:	e9 97 ff ff ff       	jmp    0x175e
    17c7:	48 81 c6 fd ff ff ff 	add    rsi,0xfffffffffffffffd
    17ce:	8a 06                	mov    al,BYTE PTR [rsi]
    17d0:	84 c0                	test   al,al
    17d2:	0f 84 17 00 00 00    	je     0x17ef
    17d8:	fe 0e                	dec    BYTE PTR [rsi]
    17da:	48 81 c6 03 00 00 00 	add    rsi,0x3
    17e1:	fe 06                	inc    BYTE PTR [rsi]
    17e3:	48 81 c6 fd ff ff ff 	add    rsi,0xfffffffffffffffd
    17ea:	e9 df ff ff ff       	jmp    0x17ce
    17ef:	48 ff ce             	dec    rsi
    17f2:	fe 06                	inc    BYTE PTR [rsi]
    17f4:	48 81 c6 f7 ff ff ff 	add    rsi,0xfffffffffffffff7
    17fb:	e9 34 ff ff ff       	jmp    0x1734
    1800:	48 81 c6 09 00 00 00 	add    rsi,0x9
    1807:	8a 06                	mov    al,BYTE PTR [rsi]
    1809:	84 c0                	test   al,al
    180b:	0f 84 34 00 00 00    	je     0x1845
    1811:	48 81 c6 04 00 00 00 	add    rsi,0x4
    1818:	8a 06                	mov    al,BYTE PTR [rsi]
    181a:	84 c0                	test   al,al
    181c:	0f 84 17 00 00 00    	je     0x1839
    1822:	fe 0e                	dec    BYTE PTR [rsi]
    1824:	48 81 c6 dc ff ff ff 	add    rsi,0xffffffffffffffdc
    182b:	fe 06                	inc    BYTE PTR [rsi]
    182d:	48 81 c6 24 00 00 00 	add    rsi,0x24
    1834:	e9 df ff ff ff       	jmp    0x1818
    1839:	48 81 c6 05 00 00 00 	add    rsi,0x5
    1840:	e9 c2 ff ff ff       	jmp    0x1807
    1845:	48 81 c6 f7 ff ff ff 	add    rsi,0xfffffffffffffff7
    184c:	8a 06                	mov    al,BYTE PTR [rsi]
    184e:	84 c0                	test   al,al
    1850:	0f 84 0c 00 00 00    	je     0x1862
    1856:	48 81 c6 f7 ff ff ff 	add    rsi,0xfffffffffffffff7
    185d:	e9 ea ff ff ff       	jmp    0x184c
    1862:	48 81 c6 09 00 00 00 	add    rsi,0x9
    1869:	8a 06                	mov    al,BYTE PTR [rsi]
    186b:	84 c0                	test   al,al
    186d:	0f 84 37 00 00 00    	je     0x18aa
    1873:	48 81 c6 03 00 00 00 	add    rsi,0x3
    187a:	8a 06                	mov    al,BYTE PTR [rsi]
    187c:	84 c0                	test   al,al
    187e:	0f 84 1a 00 00 00    	je     0x189e
    1884:	fe 0e                	dec    BYTE PTR [rsi]
    1886:	48 81 c6 dc ff ff ff 	add    rsi,0xffffffffffffffdc
    188d:	fe 06                	inc    BYTE PTR [rsi]
    188f:	48 ff c6             	inc    rsi
    1892:	48 81 c6 23 00 00 00 	add    rsi,0x23
    1899:	e9 dc ff ff ff       	jmp    0x187a
    189e:	48 81 c6 06 00 00 00 	add    rsi,0x6
    18a5:	e9 bf ff ff ff       	jmp    0x1869
    18aa:	48 81 c6 f7 ff ff ff 	add    rsi,0xfffffffffffffff7
    18b1:	8a 06                	mov    al,BYTE PTR [rsi]
    18b3:	84 c0                	test   al,al
    18b5:	0f 84 0c 00 00 00    	je     0x18c7
    18bb:	48 81 c6 f7 ff ff ff 	add    rsi,0xfffffffffffffff7
    18c2:	e9 ea ff ff ff       	jmp    0x18b1
    18c7:	48 81 c6 09 00 00 00 	add    rsi,0x9
    18ce:	80 06 08             	add    BYTE PTR [rsi],0x8
    18d1:	80 06 07             	add    BYTE PTR [rsi],0x7
    18d4:	8a 06                	mov    al,BYTE PTR [rsi]
    18d6:	84 c0                	test   al,al
    18d8:	0f 84 4a 00 00 00    	je     0x1928
    18de:	8a 06                	mov    al,BYTE PTR [rsi]
    18e0:	84 c0                	test   al,al
    18e2:	0f 84 0c 00 00 00    	je     0x18f4
    18e8:	48 81 c6 09 00 00 00 	add    rsi,0x9
    18ef:	e9 ea ff ff ff       	jmp    0x18de
    18f4:	48 81 c6 f7 ff ff ff 	add    rsi,0xfffffffffffffff7
    18fb:	fe 0e                	dec    BYTE PTR [rsi]
    18fd:	48 81 c6 f7 ff ff ff 	add    rsi,0xfffffffffffffff7
    1904:	8a 06                	mov    al,BYTE PTR [rsi]
    1906:	84 c0                	test   al,al
    1908:	0f 84 0c 00 00 00    	je     0x191a
    190e:	48 81 c6 f7 ff ff ff 	add    rsi,0xfffffffffffffff7
    1915:	e9 ea ff ff ff       	jmp    0x1904
    191a:	48 81 c6 09 00 00 00 	add    rsi,0x9
    1921:	fe 0e                	dec    BYTE PTR [rsi]
    1923:	e9 ac ff ff ff       	jmp    0x18d4
    1928:	fe 06                	inc    BYTE PTR [rsi]
    192a:	8a 06                	mov    al,BYTE PTR [rsi]
    192c:	84 c0                	test   al,al
    192e:	0f 84 61 00 00 00    	je     0x1995
    1934:	48 81 c6 08 00 00 00 	add    rsi,0x8
    193b:	8a 06                	mov    al,BYTE PTR [rsi]
    193d:	84 c0                	test   al,al
    193f:	0f 84 17 00 00 00    	je     0x195c
    1945:	fe 0e                	dec    BYTE PTR [rsi]
    1947:	48 81 c6 f9 ff ff ff 	add    rsi,0xfffffffffffffff9
    194e:	fe 06                	inc    BYTE PTR [rsi]
    1950:	48 81 c6 07 00 00 00 	add    rsi,0x7
    1957:	e9 df ff ff ff       	jmp    0x193b
    195c:	48 81 c6 f9 ff ff ff 	add    rsi,0xfffffffffffffff9
    1963:	8a 06                	mov    al,BYTE PTR [rsi]
    1965:	84 c0                	test   al,al
    1967:	0f 84 1c 00 00 00    	je     0x1989
    196d:	fe 0e                	dec    BYTE PTR [rsi]
    196f:	48 81 c6 07 00 00 00 	add    rsi,0x7
    1976:	fe 06                	inc    BYTE PTR [rsi]
    1978:	48 81 c6 fa ff ff ff 	add    rsi,0xfffffffffffffffa
    197f:	fe 06                	inc    BYTE PTR [rsi]
    1981:	48 ff ce             	dec    rsi
    1984:	e9 da ff ff ff       	jmp    0x1963
    1989:	48 81 c6 08 00 00 00 	add    rsi,0x8
    1990:	e9 95 ff ff ff       	jmp    0x192a
    1995:	48 81 c6 f7 ff ff ff 	add    rsi,0xfffffffffffffff7
    199c:	8a 06                	mov    al,BYTE PTR [rsi]
    199e:	84 c0                	test   al,al
    19a0:	0f 84 0c 00 00 00    	je     0x19b2
    19a6:	48 81 c6 f7 ff ff ff 	add    rsi,0xfffffffffffffff7
    19ad:	e9 ea ff ff ff       	jmp    0x199c
    19b2:	48 81 c6 09 00 00 00 	add    rsi,0x9
    19b9:	8a 06                	mov    al,BYTE PTR [rsi]
    19bb:	84 c0                	test   al,al
    19bd:	0f 84 24 00 00 00    	je     0x19e7
    19c3:	48 81 c6 06 00 00 00 	add    rsi,0x6
    19ca:	8a 06                	mov    al,BYTE PTR [rsi]
    19cc:	84 c0                	test   al,al
    19ce:	0f 84 07 00 00 00    	je     0x19db
    19d4:	fe 0e                	dec    BYTE PTR [rsi]
    19d6:	e9 ef ff ff ff       	jmp    0x19ca
    19db:	48 81 c6 03 00 00 00 	add    rsi,0x3
    19e2:	e9 d2 ff ff ff       	jmp    0x19b9
    19e7:	48 81 c6 f7 ff ff ff 	add    rsi,0xfffffffffffffff7
    19ee:	8a 06                	mov    al,BYTE PTR [rsi]
    19f0:	84 c0                	test   al,al
    19f2:	0f 84 0c 00 00 00    	je     0x1a04
    19f8:	48 81 c6 f7 ff ff ff 	add    rsi,0xfffffffffffffff7
    19ff:	e9 ea ff ff ff       	jmp    0x19ee
    1a04:	48 81 c6 04 00 00 00 	add    rsi,0x4
    1a0b:	fe 06                	inc    BYTE PTR [rsi]
    1a0d:	48 ff c6             	inc    rsi
    1a10:	8a 06                	mov    al,BYTE PTR [rsi]
    1a12:	84 c0                	test   al,al
    1a14:	0f 84 1c 00 00 00    	je     0x1a36
    1a1a:	fe 0e                	dec    BYTE PTR [rsi]
    1a1c:	48 ff ce             	dec    rsi
    1a1f:	fe 0e                	dec    BYTE PTR [rsi]
    1a21:	48 81 c6 fc ff ff ff 	add    rsi,0xfffffffffffffffc
    1a28:	fe 06                	inc    BYTE PTR [rsi]
    1a2a:	48 81 c6 05 00 00 00 	add    rsi,0x5
    1a31:	e9 da ff ff ff       	jmp    0x1a10
    1a36:	48 ff c6             	inc    rsi
    1a39:	8a 06                	mov    al,BYTE PTR [rsi]
    1a3b:	84 c0                	test   al,al
    1a3d:	0f 84 6d 00 00 00    	je     0x1ab0
    1a43:	fe 0e                	dec    BYTE PTR [rsi]
    1a45:	48 81 c6 fa ff ff ff 	add    rsi,0xfffffffffffffffa
    1a4c:	8a 06                	mov    al,BYTE PTR [rsi]
    1a4e:	84 c0                	test   al,al
    1a50:	0f 84 1d 00 00 00    	je     0x1a73
    1a56:	fe 0e                	dec    BYTE PTR [rsi]
    1a58:	48 81 c6 05 00 00 00 	add    rsi,0x5
    1a5f:	fe 06                	inc    BYTE PTR [rsi]
    1a61:	48 ff ce             	dec    rsi
    1a64:	80 06 02             	add    BYTE PTR [rsi],0x2
    1a67:	48 81 c6 fc ff ff ff 	add    rsi,0xfffffffffffffffc
    1a6e:	e9 d9 ff ff ff       	jmp    0x1a4c
    1a73:	48 81 c6 05 00 00 00 	add    rsi,0x5
    1a7a:	8a 06                	mov    al,BYTE PTR [rsi]
    1a7c:	84 c0                	test   al,al
    1a7e:	0f 84 1a 00 00 00    	je     0x1a9e
    1a84:	fe 0e                	dec    BYTE PTR [rsi]
    1a86:	48 ff ce             	dec    rsi
    1a89:	48 81 c6 fc ff ff ff 	add    rsi,0xfffffffffffffffc
    1a90:	fe 06                	inc    BYTE PTR [rsi]
    1a92:	48 81 c6 05 00 00 00 	add    rsi,0x5
    1a99:	e9 dc ff ff ff       	jmp    0x1a7a
    1a9e:	48 ff ce             	dec    rsi
    1aa1:	fe 0e                	dec    BYTE PTR [rsi]
    1aa3:	48 ff c6             	inc    rsi
    1aa6:	fe 06                	inc    BYTE PTR [rsi]
    1aa8:	48 ff c6             	inc    rsi
    1aab:	e9 89 ff ff ff       	jmp    0x1a39
    1ab0:	48 ff ce             	dec    rsi
    1ab3:	8a 06                	mov    al,BYTE PTR [rsi]
    1ab5:	84 c0                	test   al,al
    1ab7:	0f 84 0f 00 00 00    	je     0x1acc
    1abd:	fe 0e                	dec    BYTE PTR [rsi]
    1abf:	48 ff c6             	inc    rsi
    1ac2:	fe 06                	inc    BYTE PTR [rsi]
    1ac4:	48 ff ce             	dec    rsi
    1ac7:	e9 e7 ff ff ff       	jmp    0x1ab3
    1acc:	48 81 c6 fb ff ff ff 	add    rsi,0xfffffffffffffffb
    1ad3:	8a 06                	mov    al,BYTE PTR [rsi]
    1ad5:	84 c0                	test   al,al
    1ad7:	0f 84 17 00 00 00    	je     0x1af4
    1add:	fe 0e                	dec    BYTE PTR [rsi]
    1adf:	48 81 c6 05 00 00 00 	add    rsi,0x5
    1ae6:	fe 06                	inc    BYTE PTR [rsi]
    1ae8:	48 81 c6 fb ff ff ff 	add    rsi,0xfffffffffffffffb
    1aef:	e9 df ff ff ff       	jmp    0x1ad3
    1af4:	48 81 c6 06 00 00 00 	add    rsi,0x6
    1afb:	8a 06                	mov    al,BYTE PTR [rsi]
    1afd:	84 c0                	test   al,al
    1aff:	0f 84 07 00 00 00    	je     0x1b0c
    1b05:	fe 0e                	dec    BYTE PTR [rsi]
    1b07:	e9 ef ff ff ff       	jmp    0x1afb
    1b0c:	48 81 c6 fa ff ff ff 	add    rsi,0xfffffffffffffffa
    1b13:	fe 06                	inc    BYTE PTR [rsi]
    1b15:	48 81 c6 04 00 00 00 	add    rsi,0x4
    1b1c:	8a 06                	mov    al,BYTE PTR [rsi]
    1b1e:	84 c0                	test   al,al
    1b20:	0f 84 17 00 00 00    	je     0x1b3d
    1b26:	fe 0e                	dec    BYTE PTR [rsi]
    1b28:	48 81 c6 fc ff ff ff 	add    rsi,0xfffffffffffffffc
    1b2f:	fe 0e                	dec    BYTE PTR [rsi]
    1b31:	48 81 c6 04 00 00 00 	add    rsi,0x4
    1b38:	e9 df ff ff ff       	jmp    0x1b1c
    1b3d:	fe 06                	inc    BYTE PTR [rsi]
    1b3f:	48 81 c6 fc ff ff ff 	add    rsi,0xfffffffffffffffc
    1b46:	8a 06                	mov    al,BYTE PTR [rsi]
    1b48:	84 c0                	test   al,al
    1b4a:	0f 84 9c 06 00 00    	je     0x21ec
    1b50:	fe 0e                	dec    BYTE PTR [rsi]
    1b52:	48 81 c6 04 00 00 00 	add    rsi,0x4
    1b59:	fe 0e                	dec    BYTE PTR [rsi]
    1b5b:	48 81 c6 05 00 00 00 	add    rsi,0x5
    1b62:	8a 06                	mov    al,BYTE PTR [rsi]
    1b64:	84 c0                	test   al,al
    1b66:	0f 84 34 02 00 00    	je     0x1da0
    1b6c:	48 81 c6 02 00 00 00 	add    rsi,0x2
    1b73:	8a 06                	mov    al,BYTE PTR [rsi]
    1b75:	84 c0                	test   al,al
    1b77:	0f 84 17 00 00 00    	je     0x1b94
    1b7d:	fe 0e                	dec    BYTE PTR [rsi]
    1b7f:	48 81 c6 fe ff ff ff 	add    rsi,0xfffffffffffffffe
    1b86:	fe 0e                	dec    BYTE PTR [rsi]
    1b88:	48 81 c6 02 00 00 00 	add    rsi,0x2
    1b8f:	e9 df ff ff ff       	jmp    0x1b73
    1b94:	fe 06                	inc    BYTE PTR [rsi]
    1b96:	48 81 c6 fe ff ff ff 	add    rsi,0xfffffffffffffffe
    1b9d:	8a 06                	mov    al,BYTE PTR [rsi]
    1b9f:	84 c0                	test   al,al
    1ba1:	0f 84 b1 00 00 00    	je     0x1c58
    1ba7:	fe 0e                	dec    BYTE PTR [rsi]
    1ba9:	48 81 c6 02 00 00 00 	add    rsi,0x2
    1bb0:	fe 0e                	dec    BYTE PTR [rsi]
    1bb2:	48 ff c6             	inc    rsi
    1bb5:	8a 06                	mov    al,BYTE PTR [rsi]
    1bb7:	84 c0                	test   al,al
    1bb9:	0f 84 17 00 00 00    	je     0x1bd6
    1bbf:	fe 0e                	dec    BYTE PTR [rsi]
    1bc1:	48 81 c6 fd ff ff ff 	add    rsi,0xfffffffffffffffd
    1bc8:	fe 06                	inc    BYTE PTR [rsi]
    1bca:	48 81 c6 03 00 00 00 	add    rsi,0x3
    1bd1:	e9 df ff ff ff       	jmp    0x1bb5
    1bd6:	48 81 c6 fd ff ff ff 	add    rsi,0xfffffffffffffffd
    1bdd:	8a 06                	mov    al,BYTE PTR [rsi]
    1bdf:	84 c0                	test   al,al
    1be1:	0f 84 6c 00 00 00    	je     0x1c53
    1be7:	fe 0e                	dec    BYTE PTR [rsi]
    1be9:	48 81 c6 03 00 00 00 	add    rsi,0x3
    1bf0:	fe 06                	inc    BYTE PTR [rsi]
    1bf2:	48 81 c6 f4 ff ff ff 	add    rsi,0xfffffffffffffff4
    1bf9:	8a 06                	mov    al,BYTE PTR [rsi]
    1bfb:	84 c0                	test   al,al
    1bfd:	0f 84 0c 00 00 00    	je     0x1c0f
    1c03:	48 81 c6 f7 ff ff ff 	add    rsi,0xfffffffffffffff7
    1c0a:	e9 ea ff ff ff       	jmp    0x1bf9
    1c0f:	48 81 c6 03 00 00 00 	add    rsi,0x3
    1c16:	8a 06                	mov    al,BYTE PTR [rsi]
    1c18:	84 c0                	test   al,al
    1c1a:	0f 84 07 00 00 00    	je     0x1c27
    1c20:	fe 0e                	dec    BYTE PTR [rsi]
    1c22:	e9 ef ff ff ff       	jmp    0x1c16
    1c27:	fe 06                	inc    BYTE PTR [rsi]
    1c29:	48 81 c6 06 00 00 00 	add    rsi,0x6
    1c30:	8a 06                	mov    al,BYTE PTR [rsi]
    1c32:	84 c0                	test   al,al
    1c34:	0f 84 0c 00 00 00    	je     0x1c46
    1c3a:	48 81 c6 09 00 00 00 	add    rsi,0x9
    1c41:	e9 ea ff ff ff       	jmp    0x1c30
    1c46:	48 ff c6             	inc    rsi
    1c49:	fe 06                	inc    BYTE PTR [rsi]
    1c4b:	48 ff ce             	dec    rsi
    1c4e:	e9 8a ff ff ff       	jmp    0x1bdd
    1c53:	e9 45 ff ff ff       	jmp    0x1b9d
    1c58:	fe 06                	inc    BYTE PTR [rsi]
    1c5a:	48 81 c6 03 00 00 00 	add    rsi,0x3
    1c61:	8a 06                	mov    al,BYTE PTR [rsi]
    1c63:	84 c0                	test   al,al
    1c65:	0f 84 17 00 00 00    	je     0x1c82
    1c6b:	fe 0e                	dec    BYTE PTR [rsi]
    1c6d:	48 81 c6 fd ff ff ff 	add    rsi,0xfffffffffffffffd
    1c74:	fe 0e                	dec    BYTE PTR [rsi]
    1c76:	48 81 c6 03 00 00 00 	add    rsi,0x3
    1c7d:	e9 df ff ff ff       	jmp    0x1c61
    1c82:	fe 06                	inc    BYTE PTR [rsi]
    1c84:	48 81 c6 fd ff ff ff 	add    rsi,0xfffffffffffffffd
    1c8b:	8a 06                	mov    al,BYTE PTR [rsi]
    1c8d:	84 c0                	test   al,al
    1c8f:	0f 84 c9 00 00 00    	je     0x1d5e
    1c95:	fe 0e                	dec    BYTE PTR [rsi]
    1c97:	48 81 c6 03 00 00 00 	add    rsi,0x3
    1c9e:	fe 0e                	dec    BYTE PTR [rsi]
    1ca0:	48 ff ce             	dec    rsi
    1ca3:	8a 06                	mov    al,BYTE PTR [rsi]
    1ca5:	84 c0                	test   al,al
    1ca7:	0f 84 17 00 00 00    	je     0x1cc4
    1cad:	fe 0e                	dec    BYTE PTR [rsi]
    1caf:	48 81 c6 fe ff ff ff 	add    rsi,0xfffffffffffffffe
    1cb6:	fe 06                	inc    BYTE PTR [rsi]
    1cb8:	48 81 c6 02 00 00 00 	add    rsi,0x2
    1cbf:	e9 df ff ff ff       	jmp    0x1ca3
    1cc4:	48 81 c6 fe ff ff ff 	add    rsi,0xfffffffffffffffe
    1ccb:	8a 06                	mov    al,BYTE PTR [rsi]
    1ccd:	84 c0                	test   al,al
    1ccf:	0f 84 84 00 00 00    	je     0x1d59
    1cd5:	fe 0e                	dec    BYTE PTR [rsi]
    1cd7:	48 81 c6 02 00 00 00 	add    rsi,0x2
    1cde:	fe 06                	inc    BYTE PTR [rsi]
    1ce0:	48 81 c6 f5 ff ff ff 	add    rsi,0xfffffffffffffff5
    1ce7:	8a 06                	mov    al,BYTE PTR [rsi]
    1ce9:	84 c0                	test   al,al
    1ceb:	0f 84 13 00 00 00    	je     0x1d04
    1cf1:	48 81 c6 fb ff ff ff 	add    rsi,0xfffffffffffffffb
    1cf8:	48 81 c6 fc ff ff ff 	add    rsi,0xfffffffffffffffc
    1cff:	e9 e3 ff ff ff       	jmp    0x1ce7
    1d04:	48 81 c6 04 00 00 00 	add    rsi,0x4
    1d0b:	8a 06                	mov    al,BYTE PTR [rsi]
    1d0d:	84 c0                	test   al,al
    1d0f:	0f 84 07 00 00 00    	je     0x1d1c
    1d15:	fe 0e                	dec    BYTE PTR [rsi]
    1d17:	e9 ef ff ff ff       	jmp    0x1d0b
    1d1c:	fe 06                	inc    BYTE PTR [rsi]
    1d1e:	48 81 c6 05 00 00 00 	add    rsi,0x5
    1d25:	8a 06                	mov    al,BYTE PTR [rsi]
    1d27:	84 c0                	test   al,al
    1d29:	0f 84 0c 00 00 00    	je     0x1d3b
    1d2f:	48 81 c6 09 00 00 00 	add    rsi,0x9
    1d36:	e9 ea ff ff ff       	jmp    0x1d25
    1d3b:	48 ff c6             	inc    rsi
    1d3e:	8a 06                	mov    al,BYTE PTR [rsi]
    1d40:	84 c0                	test   al,al
    1d42:	0f 84 07 00 00 00    	je     0x1d4f
    1d48:	fe 0e                	dec    BYTE PTR [rsi]
    1d4a:	e9 ef ff ff ff       	jmp    0x1d3e
    1d4f:	fe 06                	inc    BYTE PTR [rsi]
    1d51:	48 ff ce             	dec    rsi
    1d54:	e9 72 ff ff ff       	jmp    0x1ccb
    1d59:	e9 2d ff ff ff       	jmp    0x1c8b
    1d5e:	fe 06                	inc    BYTE PTR [rsi]
    1d60:	48 ff c6             	inc    rsi
    1d63:	8a 06                	mov    al,BYTE PTR [rsi]
    1d65:	84 c0                	test   al,al
    1d67:	0f 84 27 00 00 00    	je     0x1d94
    1d6d:	fe 0e                	dec    BYTE PTR [rsi]
    1d6f:	48 ff ce             	dec    rsi
    1d72:	8a 06                	mov    al,BYTE PTR [rsi]
    1d74:	84 c0                	test   al,al
    1d76:	0f 84 0c 00 00 00    	je     0x1d88
    1d7c:	48 81 c6 09 00 00 00 	add    rsi,0x9
    1d83:	e9 ea ff ff ff       	jmp    0x1d72
    1d88:	48 81 c6 f8 ff ff ff 	add    rsi,0xfffffffffffffff8
    1d8f:	e9 cf ff ff ff       	jmp    0x1d63
    1d94:	48 81 c6 08 00 00 00 	add    rsi,0x8
    1d9b:	e9 c2 fd ff ff       	jmp    0x1b62
    1da0:	48 81 c6 f7 ff ff ff 	add    rsi,0xfffffffffffffff7
    1da7:	8a 06                	mov    al,BYTE PTR [rsi]
    1da9:	84 c0                	test   al,al
    1dab:	0f 84 0c 00 00 00    	je     0x1dbd
    1db1:	48 81 c6 f7 ff ff ff 	add    rsi,0xfffffffffffffff7
    1db8:	e9 ea ff ff ff       	jmp    0x1da7
    1dbd:	48 81 c6 04 00 00 00 	add    rsi,0x4
    1dc4:	8a 06                	mov    al,BYTE PTR [rsi]
    1dc6:	84 c0                	test   al,al
    1dc8:	0f 84 17 00 00 00    	je     0x1de5
    1dce:	fe 0e                	dec    BYTE PTR [rsi]
    1dd0:	48 81 c6 fc ff ff ff 	add    rsi,0xfffffffffffffffc
    1dd7:	fe 06                	inc    BYTE PTR [rsi]
    1dd9:	48 81 c6 04 00 00 00 	add    rsi,0x4
    1de0:	e9 df ff ff ff       	jmp    0x1dc4
    1de5:	48 81 c6 fc ff ff ff 	add    rsi,0xfffffffffffffffc
    1dec:	8a 06                	mov    al,BYTE PTR [rsi]
    1dee:	84 c0                	test   al,al
    1df0:	0f 84 f3 01 00 00    	je     0x1fe9
    1df6:	fe 0e                	dec    BYTE PTR [rsi]
    1df8:	48 81 c6 04 00 00 00 	add    rsi,0x4
    1dff:	fe 06                	inc    BYTE PTR [rsi]
    1e01:	48 81 c6 05 00 00 00 	add    rsi,0x5
    1e08:	8a 06                	mov    al,BYTE PTR [rsi]
    1e0a:	84 c0                	test   al,al
    1e0c:	0f 84 61 00 00 00    	je     0x1e73
    1e12:	48 ff c6             	inc    rsi
    1e15:	fe 06                	inc    BYTE PTR [rsi]
    1e17:	48 81 c6 02 00 00 00 	add    rsi,0x2
    1e1e:	8a 06                	mov    al,BYTE PTR [rsi]
    1e20:	84 c0                	test   al,al
    1e22:	0f 84 17 00 00 00    	je     0x1e3f
    1e28:	fe 0e                	dec    BYTE PTR [rsi]
    1e2a:	48 81 c6 fe ff ff ff 	add    rsi,0xfffffffffffffffe
    1e31:	fe 0e                	dec    BYTE PTR [rsi]
    1e33:	48 81 c6 02 00 00 00 	add    rsi,0x2
    1e3a:	e9 df ff ff ff       	jmp    0x1e1e
    1e3f:	48 81 c6 fe ff ff ff 	add    rsi,0xfffffffffffffffe
    1e46:	8a 06                	mov    al,BYTE PTR [rsi]
    1e48:	84 c0                	test   al,al
    1e4a:	0f 84 17 00 00 00    	je     0x1e67
    1e50:	fe 0e                	dec    BYTE PTR [rsi]
    1e52:	48 81 c6 02 00 00 00 	add    rsi,0x2
    1e59:	fe 06                	inc    BYTE PTR [rsi]
    1e5b:	48 81 c6 fe ff ff ff 	add    rsi,0xfffffffffffffffe
    1e62:	e9 df ff ff ff       	jmp    0x1e46
    1e67:	48 81 c6 08 00 00 00 	add    rsi,0x8
    1e6e:	e9 95 ff ff ff       	jmp    0x1e08
    1e73:	48 81 c6 fb ff ff ff 	add    rsi,0xfffffffffffffffb
    1e7a:	48 81 c6 fd ff ff ff 	add    rsi,0xfffffffffffffffd
    1e81:	fe 06                	inc    BYTE PTR [rsi]
    1e83:	48 ff ce             	dec    rsi
    1e86:	8a 06                	mov    al,BYTE PTR [rsi]
    1e88:	84 c0                	test   al,al
    1e8a:	0f 84 35 01 00 00    	je     0x1fc5
    1e90:	48 ff c6             	inc    rsi
    1e93:	8a 06                	mov    al,BYTE PTR [rsi]
    1e95:	84 c0                	test   al,al
    1e97:	0f 84 a0 00 00 00    	je     0x1f3d
    1e9d:	fe 0e                	dec    BYTE PTR [rsi]
    1e9f:	48 81 c6 05 00 00 00 	add    rsi,0x5
    1ea6:	fe 06                	inc    BYTE PTR [rsi]
    1ea8:	48 81 c6 fc ff ff ff 	add    rsi,0xfffffffffffffffc
    1eaf:	8a 06                	mov    al,BYTE PTR [rsi]
    1eb1:	84 c0                	test   al,al
    1eb3:	0f 84 44 00 00 00    	je     0x1efd
    1eb9:	fe 0e                	dec    BYTE PTR [rsi]
    1ebb:	48 81 c6 04 00 00 00 	add    rsi,0x4
    1ec2:	fe 0e                	dec    BYTE PTR [rsi]
    1ec4:	48 81 c6 f2 ff ff ff 	add    rsi,0xfffffffffffffff2
    1ecb:	fe 06                	inc    BYTE PTR [rsi]
    1ecd:	48 81 c6 0b 00 00 00 	add    rsi,0xb
    1ed4:	8a 06                	mov    al,BYTE PTR [rsi]
    1ed6:	84 c0                	test   al,al
    1ed8:	0f 84 17 00 00 00    	je     0x1ef5
    1ede:	fe 0e                	dec    BYTE PTR [rsi]
    1ee0:	48 81 c6 03 00 00 00 	add    rsi,0x3
    1ee7:	fe 06                	inc    BYTE PTR [rsi]
    1ee9:	48 81 c6 fd ff ff ff 	add    rsi,0xfffffffffffffffd
    1ef0:	e9 df ff ff ff       	jmp    0x1ed4
    1ef5:	48 ff ce             	dec    rsi
    1ef8:	e9 b2 ff ff ff       	jmp    0x1eaf
    1efd:	48 ff c6             	inc    rsi
    1f00:	8a 06                	mov    al,BYTE PTR [rsi]
    1f02:	84 c0                	test   al,al
    1f04:	0f 84 27 00 00 00    	je     0x1f31
    1f0a:	fe 0e                	dec    BYTE PTR [rsi]
    1f0c:	48 81 c6 03 00 00 00 	add    rsi,0x3
    1f13:	fe 0e                	dec    BYTE PTR [rsi]
    1f15:	48 81 c6 f7 ff ff ff 	add    rsi,0xfffffffffffffff7
    1f1c:	48 81 c6 fb ff ff ff 	add    rsi,0xfffffffffffffffb
    1f23:	fe 06                	inc    BYTE PTR [rsi]
    1f25:	48 81 c6 0b 00 00 00 	add    rsi,0xb
    1f2c:	e9 cf ff ff ff       	jmp    0x1f00
    1f31:	48 81 c6 fe ff ff ff 	add    rsi,0xfffffffffffffffe
    1f38:	e9 56 ff ff ff       	jmp    0x1e93
    1f3d:	48 ff c6             	inc    rsi
    1f40:	8a 06                	mov    al,BYTE PTR [rsi]
    1f42:	84 c0                	test   al,al
    1f44:	0f 84 44 00 00 00    	je     0x1f8e
    1f4a:	fe 0e                	dec    BYTE PTR [rsi]
    1f4c:	48 81 c6 04 00 00 00 	add    rsi,0x4
    1f53:	fe 06                	inc    BYTE PTR [rsi]
    1f55:	48 81 c6 fd ff ff ff 	add    rsi,0xfffffffffffffffd
    1f5c:	8a 06                	mov    al,BYTE PTR [rsi]
    1f5e:	84 c0                	test   al,al
    1f60:	0f 84 20 00 00 00    	je     0x1f86
    1f66:	fe 0e                	dec    BYTE PTR [rsi]
    1f68:	48 81 c6 03 00 00 00 	add    rsi,0x3
    1f6f:	fe 0e                	dec    BYTE PTR [rsi]
    1f71:	48 81 c6 f2 ff ff ff 	add    rsi,0xfffffffffffffff2
    1f78:	fe 06                	inc    BYTE PTR [rsi]
    1f7a:	48 81 c6 0b 00 00 00 	add    rsi,0xb
    1f81:	e9 d6 ff ff ff       	jmp    0x1f5c
    1f86:	48 ff ce             	dec    rsi
    1f89:	e9 b2 ff ff ff       	jmp    0x1f40
    1f8e:	48 ff c6             	inc    rsi
    1f91:	8a 06                	mov    al,BYTE PTR [rsi]
    1f93:	84 c0                	test   al,al
    1f95:	0f 84 17 00 00 00    	je     0x1fb2
    1f9b:	fe 0e                	dec    BYTE PTR [rsi]
    1f9d:	48 81 c6 03 00 00 00 	add    rsi,0x3
    1fa4:	fe 06                	inc    BYTE PTR [rsi]
    1fa6:	48 81 c6 fd ff ff ff 	add    rsi,0xfffffffffffffffd
    1fad:	e9 df ff ff ff       	jmp    0x1f91
    1fb2:	48 81 c6 fe ff ff ff 	add    rsi,0xfffffffffffffffe
    1fb9:	48 81 c6 f6 ff ff ff 	add    rsi,0xfffffffffffffff6
    1fc0:	e9 c1 fe ff ff       	jmp    0x1e86
    1fc5:	48 81 c6 04 00 00 00 	add    rsi,0x4
    1fcc:	8a 06                	mov    al,BYTE PTR [rsi]
    1fce:	84 c0                	test   al,al
    1fd0:	0f 84 07 00 00 00    	je     0x1fdd
    1fd6:	fe 0e                	dec    BYTE PTR [rsi]
    1fd8:	e9 ef ff ff ff       	jmp    0x1fcc
    1fdd:	48 81 c6 fc ff ff ff 	add    rsi,0xfffffffffffffffc
    1fe4:	e9 03 fe ff ff       	jmp    0x1dec
    1fe9:	48 81 c6 03 00 00 00 	add    rsi,0x3
    1ff0:	8a 06                	mov    al,BYTE PTR [rsi]
    1ff2:	84 c0                	test   al,al
    1ff4:	0f 84 17 00 00 00    	je     0x2011
    1ffa:	fe 0e                	dec    BYTE PTR [rsi]
    1ffc:	48 81 c6 fd ff ff ff 	add    rsi,0xfffffffffffffffd
    2003:	fe 06                	inc    BYTE PTR [rsi]
    2005:	48 81 c6 03 00 00 00 	add    rsi,0x3
    200c:	e9 df ff ff ff       	jmp    0x1ff0
    2011:	48 81 c6 fd ff ff ff 	add    rsi,0xfffffffffffffffd
    2018:	8a 06                	mov    al,BYTE PTR [rsi]
    201a:	84 c0                	test   al,al
    201c:	0f 84 c5 01 00 00    	je     0x21e7
    2022:	fe 0e                	dec    BYTE PTR [rsi]
    2024:	48 81 c6 03 00 00 00 	add    rsi,0x3
    202b:	fe 06                	inc    BYTE PTR [rsi]
    202d:	48 81 c6 06 00 00 00 	add    rsi,0x6
    2034:	8a 06                	mov    al,BYTE PTR [rsi]
    2036:	84 c0                	test   al,al
    2038:	0f 84 49 00 00 00    	je     0x2087
    203e:	48 ff c6             	inc    rsi
    2041:	fe 06                	inc    BYTE PTR [rsi]
    2043:	48 ff c6             	inc    rsi
    2046:	8a 06                	mov    al,BYTE PTR [rsi]
    2048:	84 c0                	test   al,al
    204a:	0f 84 0f 00 00 00    	je     0x205f
    2050:	fe 0e                	dec    BYTE PTR [rsi]
    2052:	48 ff ce             	dec    rsi
    2055:	fe 0e                	dec    BYTE PTR [rsi]
    2057:	48 ff c6             	inc    rsi
    205a:	e9 e7 ff ff ff       	jmp    0x2046
    205f:	48 ff ce             	dec    rsi
    2062:	8a 06                	mov    al,BYTE PTR [rsi]
    2064:	84 c0                	test   al,al
    2066:	0f 84 0f 00 00 00    	je     0x207b
    206c:	fe 0e                	dec    BYTE PTR [rsi]
    206e:	48 ff c6             	inc    rsi
    2071:	fe 06                	inc    BYTE PTR [rsi]
    2073:	48 ff ce             	dec    rsi
    2076:	e9 e7 ff ff ff       	jmp    0x2062
    207b:	48 81 c6 08 00 00 00 	add    rsi,0x8
    2082:	e9 ad ff ff ff       	jmp    0x2034
    2087:	48 81 c6 fd ff ff ff 	add    rsi,0xfffffffffffffffd
    208e:	48 81 c6 fb ff ff ff 	add    rsi,0xfffffffffffffffb
    2095:	fe 06                	inc    BYTE PTR [rsi]
    2097:	48 ff ce             	dec    rsi
    209a:	8a 06                	mov    al,BYTE PTR [rsi]
    209c:	84 c0                	test   al,al
    209e:	0f 84 2e 01 00 00    	je     0x21d2
    20a4:	48 ff c6             	inc    rsi
    20a7:	8a 06                	mov    al,BYTE PTR [rsi]
    20a9:	84 c0                	test   al,al
    20ab:	0f 84 9c 00 00 00    	je     0x214d
    20b1:	fe 0e                	dec    BYTE PTR [rsi]
    20b3:	48 81 c6 05 00 00 00 	add    rsi,0x5
    20ba:	fe 06                	inc    BYTE PTR [rsi]
    20bc:	48 81 c6 fd ff ff ff 	add    rsi,0xfffffffffffffffd
    20c3:	8a 06                	mov    al,BYTE PTR [rsi]
    20c5:	84 c0                	test   al,al
    20c7:	0f 84 44 00 00 00    	je     0x2111
    20cd:	fe 0e                	dec    BYTE PTR [rsi]
    20cf:	48 81 c6 03 00 00 00 	add    rsi,0x3
    20d6:	fe 0e                	dec    BYTE PTR [rsi]
    20d8:	48 81 c6 f2 ff ff ff 	add    rsi,0xfffffffffffffff2
    20df:	fe 06                	inc    BYTE PTR [rsi]
    20e1:	48 81 c6 0a 00 00 00 	add    rsi,0xa
    20e8:	8a 06                	mov    al,BYTE PTR [rsi]
    20ea:	84 c0                	test   al,al
    20ec:	0f 84 17 00 00 00    	je     0x2109
    20f2:	fe 0e                	dec    BYTE PTR [rsi]
    20f4:	48 81 c6 04 00 00 00 	add    rsi,0x4
    20fb:	fe 06                	inc    BYTE PTR [rsi]
    20fd:	48 81 c6 fc ff ff ff 	add    rsi,0xfffffffffffffffc
    2104:	e9 df ff ff ff       	jmp    0x20e8
    2109:	48 ff c6             	inc    rsi
    210c:	e9 b2 ff ff ff       	jmp    0x20c3
    2111:	48 ff ce             	dec    rsi
    2114:	8a 06                	mov    al,BYTE PTR [rsi]
    2116:	84 c0                	test   al,al
    2118:	0f 84 27 00 00 00    	je     0x2145
    211e:	fe 0e                	dec    BYTE PTR [rsi]
    2120:	48 81 c6 04 00 00 00 	add    rsi,0x4
    2127:	fe 0e                	dec    BYTE PTR [rsi]
    2129:	48 81 c6 f9 ff ff ff 	add    rsi,0xfffffffffffffff9
    2130:	48 81 c6 f9 ff ff ff 	add    rsi,0xfffffffffffffff9
    2137:	fe 06                	inc    BYTE PTR [rsi]
    2139:	48 81 c6 0a 00 00 00 	add    rsi,0xa
    2140:	e9 cf ff ff ff       	jmp    0x2114
    2145:	48 ff ce             	dec    rsi
    2148:	e9 5a ff ff ff       	jmp    0x20a7
    214d:	48 81 c6 02 00 00 00 	add    rsi,0x2
    2154:	8a 06                	mov    al,BYTE PTR [rsi]
    2156:	84 c0                	test   al,al
    2158:	0f 84 44 00 00 00    	je     0x21a2
    215e:	fe 0e                	dec    BYTE PTR [rsi]
    2160:	48 81 c6 03 00 00 00 	add    rsi,0x3
    2167:	fe 06                	inc    BYTE PTR [rsi]
    2169:	48 81 c6 fc ff ff ff 	add    rsi,0xfffffffffffffffc
    2170:	8a 06                	mov    al,BYTE PTR [rsi]
    2172:	84 c0                	test   al,al
    2174:	0f 84 20 00 00 00    	je     0x219a
    217a:	fe 0e                	dec    BYTE PTR [rsi]
    217c:	48 81 c6 04 00 00 00 	add    rsi,0x4
    2183:	fe 0e                	dec    BYTE PTR [rsi]
    2185:	48 81 c6 f2 ff ff ff 	add    rsi,0xfffffffffffffff2
    218c:	fe 06                	inc    BYTE PTR [rsi]
    218e:	48 81 c6 0a 00 00 00 	add    rsi,0xa
    2195:	e9 d6 ff ff ff       	jmp    0x2170
    219a:	48 ff c6             	inc    rsi
    219d:	e9 b2 ff ff ff       	jmp    0x2154
    21a2:	48 ff ce             	dec    rsi
    21a5:	8a 06                	mov    al,BYTE PTR [rsi]
    21a7:	84 c0                	test   al,al
    21a9:	0f 84 17 00 00 00    	je     0x21c6
    21af:	fe 0e                	dec    BYTE PTR [rsi]
    21b1:	48 81 c6 04 00 00 00 	add    rsi,0x4
    21b8:	fe 06                	inc    BYTE PTR [rsi]
    21ba:	48 81 c6 fc ff ff ff 	add    rsi,0xfffffffffffffffc
    21c1:	e9 df ff ff ff       	jmp    0x21a5
    21c6:	48 81 c6 f5 ff ff ff 	add    rsi,0xfffffffffffffff5
    21cd:	e9 c8 fe ff ff       	jmp    0x209a
    21d2:	48 81 c6 06 00 00 00 	add    rsi,0x6
    21d9:	fe 06                	inc    BYTE PTR [rsi]
    21db:	48 81 c6 fa ff ff ff 	add    rsi,0xfffffffffffffffa
    21e2:	e9 31 fe ff ff       	jmp    0x2018
    21e7:	e9 5a f9 ff ff       	jmp    0x1b46
    21ec:	48 81 c6 04 00 00 00 	add    rsi,0x4
    21f3:	8a 06                	mov    al,BYTE PTR [rsi]
    21f5:	84 c0                	test   al,al
    21f7:	0f 84 17 00 00 00    	je     0x2214
    21fd:	fe 0e                	dec    BYTE PTR [rsi]
    21ff:	48 81 c6 fc ff ff ff 	add    rsi,0xfffffffffffffffc
    2206:	fe 06                	inc    BYTE PTR [rsi]
    2208:	48 81 c6 04 00 00 00 	add    rsi,0x4
    220f:	e9 df ff ff ff       	jmp    0x21f3
    2214:	48 81 c6 fc ff ff ff 	add    rsi,0xfffffffffffffffc
    221b:	8a 06                	mov    al,BYTE PTR [rsi]
    221d:	84 c0                	test   al,al
    221f:	0f 84 6c 01 00 00    	je     0x2391
    2225:	fe 0e                	dec    BYTE PTR [rsi]
    2227:	48 81 c6 04 00 00 00 	add    rsi,0x4
    222e:	fe 06                	inc    BYTE PTR [rsi]
    2230:	48 81 c6 05 00 00 00 	add    rsi,0x5
    2237:	8a 06                	mov    al,BYTE PTR [rsi]
    2239:	84 c0                	test   al,al
    223b:	0f 84 0c 00 00 00    	je     0x224d
    2241:	48 81 c6 09 00 00 00 	add    rsi,0x9
    2248:	e9 ea ff ff ff       	jmp    0x2237
    224d:	48 81 c6 f7 ff ff ff 	add    rsi,0xfffffffffffffff7
    2254:	8a 06                	mov    al,BYTE PTR [rsi]
    2256:	84 c0                	test   al,al
    2258:	0f 84 2e 01 00 00    	je     0x238c
    225e:	48 ff c6             	inc    rsi
    2261:	8a 06                	mov    al,BYTE PTR [rsi]
    2263:	84 c0                	test   al,al
    2265:	0f 84 99 00 00 00    	je     0x2304
    226b:	fe 0e                	dec    BYTE PTR [rsi]
    226d:	48 81 c6 05 00 00 00 	add    rsi,0x5
    2274:	fe 06                	inc    BYTE PTR [rsi]
    2276:	48 81 c6 fc ff ff ff 	add    rsi,0xfffffffffffffffc
    227d:	8a 06                	mov    al,BYTE PTR [rsi]
    227f:	84 c0                	test   al,al
    2281:	0f 84 44 00 00 00    	je     0x22cb
    2287:	fe 0e                	dec    BYTE PTR [rsi]
    2289:	48 81 c6 04 00 00 00 	add    rsi,0x4
    2290:	fe 0e                	dec    BYTE PTR [rsi]
    2292:	48 81 c6 f2 ff ff ff 	add    rsi,0xfffffffffffffff2
    2299:	fe 06                	inc    BYTE PTR [rsi]
    229b:	48 81 c6 0b 00 00 00 	add    rsi,0xb
    22a2:	8a 06                	mov    al,BYTE PTR [rsi]
    22a4:	84 c0                	test   al,al
    22a6:	0f 84 17 00 00 00    	je     0x22c3
    22ac:	fe 0e                	dec    BYTE PTR [rsi]
    22ae:	48 81 c6 03 00 00 00 	add    rsi,0x3
    22b5:	fe 06                	inc    BYTE PTR [rsi]
    22b7:	48 81 c6 fd ff ff ff 	add    rsi,0xfffffffffffffffd
    22be:	e9 df ff ff ff       	jmp    0x22a2
    22c3:	48 ff ce             	dec    rsi
    22c6:	e9 b2 ff ff ff       	jmp    0x227d
    22cb:	48 ff c6             	inc    rsi
    22ce:	8a 06                	mov    al,BYTE PTR [rsi]
    22d0:	84 c0                	test   al,al
    22d2:	0f 84 20 00 00 00    	je     0x22f8
    22d8:	fe 0e                	dec    BYTE PTR [rsi]
    22da:	48 81 c6 03 00 00 00 	add    rsi,0x3
    22e1:	fe 0e                	dec    BYTE PTR [rsi]
    22e3:	48 81 c6 f2 ff ff ff 	add    rsi,0xfffffffffffffff2
    22ea:	fe 06                	inc    BYTE PTR [rsi]
    22ec:	48 81 c6 0b 00 00 00 	add    rsi,0xb
    22f3:	e9 d6 ff ff ff       	jmp    0x22ce
    22f8:	48 81 c6 fe ff ff ff 	add    rsi,0xfffffffffffffffe
    22ff:	e9 5d ff ff ff       	jmp    0x2261
    2304:	48 ff c6             	inc    rsi
    2307:	8a 06                	mov    al,BYTE PTR [rsi]
    2309:	84 c0                	test   al,al
    230b:	0f 84 44 00 00 00    	je     0x2355
    2311:	fe 0e                	dec    BYTE PTR [rsi]
    2313:	48 81 c6 04 00 00 00 	add    rsi,0x4
    231a:	fe 06                	inc    BYTE PTR [rsi]
    231c:	48 81 c6 fd ff ff ff 	add    rsi,0xfffffffffffffffd
    2323:	8a 06                	mov    al,BYTE PTR [rsi]
    2325:	84 c0                	test   al,al
    2327:	0f 84 20 00 00 00    	je     0x234d
    232d:	fe 0e                	dec    BYTE PTR [rsi]
    232f:	48 81 c6 03 00 00 00 	add    rsi,0x3
    2336:	fe 0e                	dec    BYTE PTR [rsi]
    2338:	48 81 c6 f2 ff ff ff 	add    rsi,0xfffffffffffffff2
    233f:	fe 06                	inc    BYTE PTR [rsi]
    2341:	48 81 c6 0b 00 00 00 	add    rsi,0xb
    2348:	e9 d6 ff ff ff       	jmp    0x2323
    234d:	48 ff ce             	dec    rsi
    2350:	e9 b2 ff ff ff       	jmp    0x2307
    2355:	48 ff c6             	inc    rsi
    2358:	8a 06                	mov    al,BYTE PTR [rsi]
    235a:	84 c0                	test   al,al
    235c:	0f 84 17 00 00 00    	je     0x2379
    2362:	fe 0e                	dec    BYTE PTR [rsi]
    2364:	48 81 c6 03 00 00 00 	add    rsi,0x3
    236b:	fe 06                	inc    BYTE PTR [rsi]
    236d:	48 81 c6 fd ff ff ff 	add    rsi,0xfffffffffffffffd
    2374:	e9 df ff ff ff       	jmp    0x2358
    2379:	48 81 c6 f9 ff ff ff 	add    rsi,0xfffffffffffffff9
    2380:	48 81 c6 fb ff ff ff 	add    rsi,0xfffffffffffffffb
    2387:	e9 c8 fe ff ff       	jmp    0x2254
    238c:	e9 8a fe ff ff       	jmp    0x221b
    2391:	48 ff c6             	inc    rsi
    2394:	8a 06                	mov    al,BYTE PTR [rsi]
    2396:	84 c0                	test   al,al
    2398:	0f 84 07 00 00 00    	je     0x23a5
    239e:	fe 0e                	dec    BYTE PTR [rsi]
    23a0:	e9 ef ff ff ff       	jmp    0x2394
    23a5:	48 81 c6 02 00 00 00 	add    rsi,0x2
    23ac:	8a 06                	mov    al,BYTE PTR [rsi]
    23ae:	84 c0                	test   al,al
    23b0:	0f 84 07 00 00 00    	je     0x23bd
    23b6:	fe 0e                	dec    BYTE PTR [rsi]
    23b8:	e9 ef ff ff ff       	jmp    0x23ac
    23bd:	48 ff c6             	inc    rsi
    23c0:	8a 06                	mov    al,BYTE PTR [rsi]
    23c2:	84 c0                	test   al,al
    23c4:	0f 84 07 00 00 00    	je     0x23d1
    23ca:	fe 0e                	dec    BYTE PTR [rsi]
    23cc:	e9 ef ff ff ff       	jmp    0x23c0
    23d1:	48 81 c6 05 00 00 00 	add    rsi,0x5
    23d8:	8a 06                	mov    al,BYTE PTR [rsi]
    23da:	84 c0                	test   al,al
    23dc:	0f 84 38 00 00 00    	je     0x241a
    23e2:	48 81 c6 02 00 00 00 	add    rsi,0x2
    23e9:	8a 06                	mov    al,BYTE PTR [rsi]
    23eb:	84 c0                	test   al,al
    23ed:	0f 84 07 00 00 00    	je     0x23fa
    23f3:	fe 0e                	dec    BYTE PTR [rsi]
    23f5:	e9 ef ff ff ff       	jmp    0x23e9
    23fa:	48 ff c6             	inc    rsi
    23fd:	8a 06                	mov    al,BYTE PTR [rsi]
    23ff:	84 c0                	test   al,al
    2401:	0f 84 07 00 00 00    	je     0x240e
    2407:	fe 0e                	dec    BYTE PTR [rsi]
    2409:	e9 ef ff ff ff       	jmp    0x23fd
    240e:	48 81 c6 06 00 00 00 	add    rsi,0x6
    2415:	e9 be ff ff ff       	jmp    0x23d8
    241a:	48 81 c6 f7 ff ff ff 	add    rsi,0xfffffffffffffff7
    2421:	8a 06                	mov    al,BYTE PTR [rsi]
    2423:	84 c0                	test   al,al
    2425:	0f 84 0c 00 00 00    	je     0x2437
    242b:	48 81 c6 f7 ff ff ff 	add    rsi,0xfffffffffffffff7
    2432:	e9 ea ff ff ff       	jmp    0x2421
    2437:	48 81 c6 09 00 00 00 	add    rsi,0x9
    243e:	8a 06                	mov    al,BYTE PTR [rsi]
    2440:	84 c0                	test   al,al
    2442:	0f 84 64 00 00 00    	je     0x24ac
    2448:	48 81 c6 05 00 00 00 	add    rsi,0x5
    244f:	8a 06                	mov    al,BYTE PTR [rsi]
    2451:	84 c0                	test   al,al
    2453:	0f 84 1a 00 00 00    	je     0x2473
    2459:	fe 0e                	dec    BYTE PTR [rsi]
    245b:	48 ff ce             	dec    rsi
    245e:	48 81 c6 fd ff ff ff 	add    rsi,0xfffffffffffffffd
    2465:	fe 06                	inc    BYTE PTR [rsi]
    2467:	48 81 c6 04 00 00 00 	add    rsi,0x4
    246e:	e9 dc ff ff ff       	jmp    0x244f
    2473:	48 81 c6 fc ff ff ff 	add    rsi,0xfffffffffffffffc
    247a:	8a 06                	mov    al,BYTE PTR [rsi]
    247c:	84 c0                	test   al,al
    247e:	0f 84 1c 00 00 00    	je     0x24a0
    2484:	fe 0e                	dec    BYTE PTR [rsi]
    2486:	48 81 c6 04 00 00 00 	add    rsi,0x4
    248d:	fe 06                	inc    BYTE PTR [rsi]
    248f:	48 81 c6 fd ff ff ff 	add    rsi,0xfffffffffffffffd
    2496:	fe 06                	inc    BYTE PTR [rsi]
    2498:	48 ff ce             	dec    rsi
    249b:	e9 da ff ff ff       	jmp    0x247a
    24a0:	48 81 c6 08 00 00 00 	add    rsi,0x8
    24a7:	e9 92 ff ff ff       	jmp    0x243e
    24ac:	48 81 c6 f7 ff ff ff 	add    rsi,0xfffffffffffffff7
    24b3:	8a 06                	mov    al,BYTE PTR [rsi]
    24b5:	84 c0                	test   al,al
    24b7:	0f 84 0c 00 00 00    	je     0x24c9
    24bd:	48 81 c6 f7 ff ff ff 	add    rsi,0xfffffffffffffff7
    24c4:	e9 ea ff ff ff       	jmp    0x24b3
    24c9:	48 81 c6 09 00 00 00 	add    rsi,0x9
    24d0:	80 06 0f             	add    BYTE PTR [rsi],0xf
    24d3:	8a 06                	mov    al,BYTE PTR [rsi]
    24d5:	84 c0                	test   al,al
    24d7:	0f 84 f7 00 00 00    	je     0x25d4
    24dd:	8a 06                	mov    al,BYTE PTR [rsi]
    24df:	84 c0                	test   al,al
    24e1:	0f 84 0c 00 00 00    	je     0x24f3
    24e7:	48 81 c6 09 00 00 00 	add    rsi,0x9
    24ee:	e9 ea ff ff ff       	jmp    0x24dd
    24f3:	fe 06                	inc    BYTE PTR [rsi]
    24f5:	48 ff c6             	inc    rsi
    24f8:	8a 06                	mov    al,BYTE PTR [rsi]
    24fa:	84 c0                	test   al,al
    24fc:	0f 84 07 00 00 00    	je     0x2509
    2502:	fe 0e                	dec    BYTE PTR [rsi]
    2504:	e9 ef ff ff ff       	jmp    0x24f8
    2509:	48 ff c6             	inc    rsi
    250c:	8a 06                	mov    al,BYTE PTR [rsi]
    250e:	84 c0                	test   al,al
    2510:	0f 84 07 00 00 00    	je     0x251d
    2516:	fe 0e                	dec    BYTE PTR [rsi]
    2518:	e9 ef ff ff ff       	jmp    0x250c
    251d:	48 ff c6             	inc    rsi
    2520:	8a 06                	mov    al,BYTE PTR [rsi]
    2522:	84 c0                	test   al,al
    2524:	0f 84 07 00 00 00    	je     0x2531
    252a:	fe 0e                	dec    BYTE PTR [rsi]
    252c:	e9 ef ff ff ff       	jmp    0x2520
    2531:	48 ff c6             	inc    rsi
    2534:	8a 06                	mov    al,BYTE PTR [rsi]
    2536:	84 c0                	test   al,al
    2538:	0f 84 07 00 00 00    	je     0x2545
    253e:	fe 0e                	dec    BYTE PTR [rsi]
    2540:	e9 ef ff ff ff       	jmp    0x2534
    2545:	48 ff c6             	inc    rsi
    2548:	8a 06                	mov    al,BYTE PTR [rsi]
    254a:	84 c0                	test   al,al
    254c:	0f 84 07 00 00 00    	je     0x2559
    2552:	fe 0e                	dec    BYTE PTR [rsi]
    2554:	e9 ef ff ff ff       	jmp    0x2548
    2559:	48 ff c6             	inc    rsi
    255c:	8a 06                	mov    al,BYTE PTR [rsi]
    255e:	84 c0                	test   al,al
    2560:	0f 84 07 00 00 00    	je     0x256d
    2566:	fe 0e                	dec    BYTE PTR [rsi]
    2568:	e9 ef ff ff ff       	jmp    0x255c
    256d:	48 ff c6             	inc    rsi
    2570:	8a 06                	mov    al,BYTE PTR [rsi]
    2572:	84 c0                	test   al,al
    2574:	0f 84 07 00 00 00    	je     0x2581
    257a:	fe 0e                	dec    BYTE PTR [rsi]
    257c:	e9 ef ff ff ff       	jmp    0x2570
    2581:	48 ff c6             	inc    rsi
    2584:	8a 06                	mov    al,BYTE PTR [rsi]
    2586:	84 c0                	test   al,al
    2588:	0f 84 07 00 00 00    	je     0x2595
    258e:	fe 0e                	dec    BYTE PTR [rsi]
    2590:	e9 ef ff ff ff       	jmp    0x2584
    2595:	48 ff c6             	inc    rsi
    2598:	8a 06                	mov    al,BYTE PTR [rsi]
    259a:	84 c0                	test   al,al
    259c:	0f 84 07 00 00 00    	je     0x25a9
    25a2:	fe 0e                	dec    BYTE PTR [rsi]
    25a4:	e9 ef ff ff ff       	jmp    0x2598
    25a9:	48 81 c6 f7 ff ff ff 	add    rsi,0xfffffffffffffff7
    25b0:	8a 06                	mov    al,BYTE PTR [rsi]
    25b2:	84 c0                	test   al,al
    25b4:	0f 84 0c 00 00 00    	je     0x25c6
    25ba:	48 81 c6 f7 ff ff ff 	add    rsi,0xfffffffffffffff7
    25c1:	e9 ea ff ff ff       	jmp    0x25b0
    25c6:	48 81 c6 09 00 00 00 	add    rsi,0x9
    25cd:	fe 0e                	dec    BYTE PTR [rsi]
    25cf:	e9 ff fe ff ff       	jmp    0x24d3
    25d4:	fe 06                	inc    BYTE PTR [rsi]
    25d6:	8a 06                	mov    al,BYTE PTR [rsi]
    25d8:	84 c0                	test   al,al
    25da:	0f 84 11 00 00 00    	je     0x25f1
    25e0:	48 ff c6             	inc    rsi
    25e3:	fe 06                	inc    BYTE PTR [rsi]
    25e5:	48 81 c6 08 00 00 00 	add    rsi,0x8
    25ec:	e9 e5 ff ff ff       	jmp    0x25d6
    25f1:	48 81 c6 f7 ff ff ff 	add    rsi,0xfffffffffffffff7
    25f8:	8a 06                	mov    al,BYTE PTR [rsi]
    25fa:	84 c0                	test   al,al
    25fc:	0f 84 0c 00 00 00    	je     0x260e
    2602:	48 81 c6 f7 ff ff ff 	add    rsi,0xfffffffffffffff7
    2609:	e9 ea ff ff ff       	jmp    0x25f8
    260e:	48 81 c6 09 00 00 00 	add    rsi,0x9
    2615:	8a 06                	mov    al,BYTE PTR [rsi]
    2617:	84 c0                	test   al,al
    2619:	0f 84 77 01 00 00    	je     0x2796
    261f:	48 ff c6             	inc    rsi
    2622:	fe 0e                	dec    BYTE PTR [rsi]
    2624:	48 81 c6 04 00 00 00 	add    rsi,0x4
    262b:	8a 06                	mov    al,BYTE PTR [rsi]
    262d:	84 c0                	test   al,al
    262f:	0f 84 17 00 00 00    	je     0x264c
    2635:	fe 0e                	dec    BYTE PTR [rsi]
    2637:	48 81 c6 fc ff ff ff 	add    rsi,0xfffffffffffffffc
    263e:	fe 06                	inc    BYTE PTR [rsi]
    2640:	48 81 c6 04 00 00 00 	add    rsi,0x4
    2647:	e9 df ff ff ff       	jmp    0x262b
    264c:	48 81 c6 fc ff ff ff 	add    rsi,0xfffffffffffffffc
    2653:	8a 06                	mov    al,BYTE PTR [rsi]
    2655:	84 c0                	test   al,al
    2657:	0f 84 a3 00 00 00    	je     0x2700
    265d:	fe 0e                	dec    BYTE PTR [rsi]
    265f:	48 81 c6 04 00 00 00 	add    rsi,0x4
    2666:	fe 06                	inc    BYTE PTR [rsi]
    2668:	48 81 c6 fb ff ff ff 	add    rsi,0xfffffffffffffffb
    266f:	8a 06                	mov    al,BYTE PTR [rsi]
    2671:	84 c0                	test   al,al
    2673:	0f 84 65 00 00 00    	je     0x26de
    2679:	fe 0e                	dec    BYTE PTR [rsi]
    267b:	48 81 c6 02 00 00 00 	add    rsi,0x2
    2682:	8a 06                	mov    al,BYTE PTR [rsi]
    2684:	84 c0                	test   al,al
    2686:	0f 84 17 00 00 00    	je     0x26a3
    268c:	fe 0e                	dec    BYTE PTR [rsi]
    268e:	48 81 c6 fe ff ff ff 	add    rsi,0xfffffffffffffffe
    2695:	fe 06                	inc    BYTE PTR [rsi]
    2697:	48 81 c6 02 00 00 00 	add    rsi,0x2
    269e:	e9 df ff ff ff       	jmp    0x2682
    26a3:	48 81 c6 fe ff ff ff 	add    rsi,0xfffffffffffffffe
    26aa:	8a 06                	mov    al,BYTE PTR [rsi]
    26ac:	84 c0                	test   al,al
    26ae:	0f 84 1c 00 00 00    	je     0x26d0
    26b4:	fe 0e                	dec    BYTE PTR [rsi]
    26b6:	48 81 c6 02 00 00 00 	add    rsi,0x2
    26bd:	fe 06                	inc    BYTE PTR [rsi]
    26bf:	48 ff c6             	inc    rsi
    26c2:	fe 06                	inc    BYTE PTR [rsi]
    26c4:	48 81 c6 fd ff ff ff 	add    rsi,0xfffffffffffffffd
    26cb:	e9 da ff ff ff       	jmp    0x26aa
    26d0:	fe 06                	inc    BYTE PTR [rsi]
    26d2:	48 81 c6 09 00 00 00 	add    rsi,0x9
    26d9:	e9 91 ff ff ff       	jmp    0x266f
    26de:	48 81 c6 f8 ff ff ff 	add    rsi,0xfffffffffffffff8
    26e5:	8a 06                	mov    al,BYTE PTR [rsi]
    26e7:	84 c0                	test   al,al
    26e9:	0f 84 0c 00 00 00    	je     0x26fb
    26ef:	48 81 c6 f7 ff ff ff 	add    rsi,0xfffffffffffffff7
    26f6:	e9 ea ff ff ff       	jmp    0x26e5
    26fb:	e9 53 ff ff ff       	jmp    0x2653
    2700:	48 81 c6 09 00 00 00 	add    rsi,0x9
    2707:	8a 06                	mov    al,BYTE PTR [rsi]
    2709:	84 c0                	test   al,al
    270b:	0f 84 0c 00 00 00    	je     0x271d
    2711:	48 81 c6 09 00 00 00 	add    rsi,0x9
    2718:	e9 ea ff ff ff       	jmp    0x2707
    271d:	48 81 c6 f8 ff ff ff 	add    rsi,0xfffffffffffffff8
    2724:	48 ff ce             	dec    rsi
    2727:	8a 06                	mov    al,BYTE PTR [rsi]
    2729:	84 c0                	test   al,al
    272b:	0f 84 30 00 00 00    	je     0x2761
    2731:	48 ff c6             	inc    rsi
    2734:	8a 06                	mov    al,BYTE PTR [rsi]
    2736:	84 c0                	test   al,al
    2738:	0f 84 17 00 00 00    	je     0x2755
    273e:	fe 0e                	dec    BYTE PTR [rsi]
    2740:	48 81 c6 09 00 00 00 	add    rsi,0x9
    2747:	fe 06                	inc    BYTE PTR [rsi]
    2749:	48 81 c6 f7 ff ff ff 	add    rsi,0xfffffffffffffff7
    2750:	e9 df ff ff ff       	jmp    0x2734
    2755:	48 81 c6 f6 ff ff ff 	add    rsi,0xfffffffffffffff6
    275c:	e9 c6 ff ff ff       	jmp    0x2727
    2761:	48 ff c6             	inc    rsi
    2764:	8a 06                	mov    al,BYTE PTR [rsi]
    2766:	84 c0                	test   al,al
    2768:	0f 84 17 00 00 00    	je     0x2785
    276e:	fe 0e                	dec    BYTE PTR [rsi]
    2770:	48 81 c6 09 00 00 00 	add    rsi,0x9
    2777:	fe 06                	inc    BYTE PTR [rsi]
    2779:	48 81 c6 f7 ff ff ff 	add    rsi,0xfffffffffffffff7
    2780:	e9 df ff ff ff       	jmp    0x2764
    2785:	48 ff ce             	dec    rsi
    2788:	fe 06                	inc    BYTE PTR [rsi]
    278a:	48 81 c6 08 00 00 00 	add    rsi,0x8
    2791:	e9 7f fe ff ff       	jmp    0x2615
    2796:	48 81 c6 f7 ff ff ff 	add    rsi,0xfffffffffffffff7
    279d:	8a 06                	mov    al,BYTE PTR [rsi]
    279f:	84 c0                	test   al,al
    27a1:	0f 84 c2 00 00 00    	je     0x2869
    27a7:	48 ff c6             	inc    rsi
    27aa:	8a 06                	mov    al,BYTE PTR [rsi]
    27ac:	84 c0                	test   al,al
    27ae:	0f 84 07 00 00 00    	je     0x27bb
    27b4:	fe 0e                	dec    BYTE PTR [rsi]
    27b6:	e9 ef ff ff ff       	jmp    0x27aa
    27bb:	48 ff ce             	dec    rsi
    27be:	fe 0e                	dec    BYTE PTR [rsi]
    27c0:	48 81 c6 03 00 00 00 	add    rsi,0x3
    27c7:	8a 06                	mov    al,BYTE PTR [rsi]
    27c9:	84 c0                	test   al,al
    27cb:	0f 84 5f 00 00 00    	je     0x2830
    27d1:	fe 0e                	dec    BYTE PTR [rsi]
    27d3:	48 81 c6 fd ff ff ff 	add    rsi,0xfffffffffffffffd
    27da:	fe 06                	inc    BYTE PTR [rsi]
    27dc:	48 ff c6             	inc    rsi
    27df:	8a 06                	mov    al,BYTE PTR [rsi]
    27e1:	84 c0                	test   al,al
    27e3:	0f 84 1f 00 00 00    	je     0x2808
    27e9:	48 ff ce             	dec    rsi
    27ec:	fe 0e                	dec    BYTE PTR [rsi]
    27ee:	48 ff c6             	inc    rsi
    27f1:	fe 0e                	dec    BYTE PTR [rsi]
    27f3:	48 81 c6 f9 ff ff ff 	add    rsi,0xfffffffffffffff9
    27fa:	fe 06                	inc    BYTE PTR [rsi]
    27fc:	48 81 c6 07 00 00 00 	add    rsi,0x7
    2803:	e9 d7 ff ff ff       	jmp    0x27df
    2808:	48 ff ce             	dec    rsi
    280b:	8a 06                	mov    al,BYTE PTR [rsi]
    280d:	84 c0                	test   al,al
    280f:	0f 84 0f 00 00 00    	je     0x2824
    2815:	fe 0e                	dec    BYTE PTR [rsi]
    2817:	48 ff c6             	inc    rsi
    281a:	fe 06                	inc    BYTE PTR [rsi]
    281c:	48 ff ce             	dec    rsi
    281f:	e9 e7 ff ff ff       	jmp    0x280b
    2824:	48 81 c6 03 00 00 00 	add    rsi,0x3
    282b:	e9 97 ff ff ff       	jmp    0x27c7
    2830:	48 81 c6 fe ff ff ff 	add    rsi,0xfffffffffffffffe
    2837:	8a 06                	mov    al,BYTE PTR [rsi]
    2839:	84 c0                	test   al,al
    283b:	0f 84 17 00 00 00    	je     0x2858
    2841:	fe 0e                	dec    BYTE PTR [rsi]
    2843:	48 81 c6 02 00 00 00 	add    rsi,0x2
    284a:	fe 06                	inc    BYTE PTR [rsi]
    284c:	48 81 c6 fe ff ff ff 	add    rsi,0xfffffffffffffffe
    2853:	e9 df ff ff ff       	jmp    0x2837
    2858:	48 ff ce             	dec    rsi
    285b:	fe 06                	inc    BYTE PTR [rsi]
    285d:	48 81 c6 f7 ff ff ff 	add    rsi,0xfffffffffffffff7
    2864:	e9 34 ff ff ff       	jmp    0x279d
    2869:	48 81 c6 09 00 00 00 	add    rsi,0x9
    2870:	8a 06                	mov    al,BYTE PTR [rsi]
    2872:	84 c0                	test   al,al
    2874:	0f 84 37 00 00 00    	je     0x28b1
    287a:	48 81 c6 03 00 00 00 	add    rsi,0x3
    2881:	8a 06                	mov    al,BYTE PTR [rsi]
    2883:	84 c0                	test   al,al
    2885:	0f 84 17 00 00 00    	je     0x28a2
    288b:	fe 0e                	dec    BYTE PTR [rsi]
    288d:	48 81 c6 dc ff ff ff 	add    rsi,0xffffffffffffffdc
    2894:	fe 06                	inc    BYTE PTR [rsi]
    2896:	48 81 c6 24 00 00 00 	add    rsi,0x24
    289d:	e9 df ff ff ff       	jmp    0x2881
    28a2:	48 ff c6             	inc    rsi
    28a5:	48 81 c6 05 00 00 00 	add    rsi,0x5
    28ac:	e9 bf ff ff ff       	jmp    0x2870
    28b1:	48 81 c6 f7 ff ff ff 	add    rsi,0xfffffffffffffff7
    28b8:	8a 06                	mov    al,BYTE PTR [rsi]
    28ba:	84 c0                	test   al,al
    28bc:	0f 84 0c 00 00 00    	je     0x28ce
    28c2:	48 81 c6 f7 ff ff ff 	add    rsi,0xfffffffffffffff7
    28c9:	e9 ea ff ff ff       	jmp    0x28b8
    28ce:	48 81 c6 05 00 00 00 	add    rsi,0x5
    28d5:	8a 06                	mov    al,BYTE PTR [rsi]
    28d7:	84 c0                	test   al,al
    28d9:	0f 84 07 00 00 00    	je     0x28e6
    28df:	fe 0e                	dec    BYTE PTR [rsi]
    28e1:	e9 ef ff ff ff       	jmp    0x28d5
    28e6:	48 81 c6 04 00 00 00 	add    rsi,0x4
    28ed:	80 06 0f             	add    BYTE PTR [rsi],0xf
    28f0:	8a 06                	mov    al,BYTE PTR [rsi]
    28f2:	84 c0                	test   al,al
    28f4:	0f 84 51 00 00 00    	je     0x294b
    28fa:	8a 06                	mov    al,BYTE PTR [rsi]
    28fc:	84 c0                	test   al,al
    28fe:	0f 84 0c 00 00 00    	je     0x2910
    2904:	48 81 c6 09 00 00 00 	add    rsi,0x9
    290b:	e9 ea ff ff ff       	jmp    0x28fa
    2910:	48 81 c6 f7 ff ff ff 	add    rsi,0xfffffffffffffff7
    2917:	fe 0e                	dec    BYTE PTR [rsi]
    2919:	48 81 c6 fb ff ff ff 	add    rsi,0xfffffffffffffffb
    2920:	48 81 c6 fc ff ff ff 	add    rsi,0xfffffffffffffffc
    2927:	8a 06                	mov    al,BYTE PTR [rsi]
    2929:	84 c0                	test   al,al
    292b:	0f 84 0c 00 00 00    	je     0x293d
    2931:	48 81 c6 f7 ff ff ff 	add    rsi,0xfffffffffffffff7
    2938:	e9 ea ff ff ff       	jmp    0x2927
    293d:	48 81 c6 09 00 00 00 	add    rsi,0x9
    2944:	fe 0e                	dec    BYTE PTR [rsi]
    2946:	e9 a5 ff ff ff       	jmp    0x28f0
    294b:	fe 06                	inc    BYTE PTR [rsi]
    294d:	8a 06                	mov    al,BYTE PTR [rsi]
    294f:	84 c0                	test   al,al
    2951:	0f 84 3b 02 00 00    	je     0x2b92
    2957:	48 81 c6 03 00 00 00 	add    rsi,0x3
    295e:	8a 06                	mov    al,BYTE PTR [rsi]
    2960:	84 c0                	test   al,al
    2962:	0f 84 17 00 00 00    	je     0x297f
    2968:	fe 0e                	dec    BYTE PTR [rsi]
    296a:	48 81 c6 fd ff ff ff 	add    rsi,0xfffffffffffffffd
    2971:	fe 0e                	dec    BYTE PTR [rsi]
    2973:	48 81 c6 03 00 00 00 	add    rsi,0x3
    297a:	e9 df ff ff ff       	jmp    0x295e
    297f:	fe 06                	inc    BYTE PTR [rsi]
    2981:	48 81 c6 fd ff ff ff 	add    rsi,0xfffffffffffffffd
    2988:	8a 06                	mov    al,BYTE PTR [rsi]
    298a:	84 c0                	test   al,al
    298c:	0f 84 b8 00 00 00    	je     0x2a4a
    2992:	fe 0e                	dec    BYTE PTR [rsi]
    2994:	48 81 c6 03 00 00 00 	add    rsi,0x3
    299b:	fe 0e                	dec    BYTE PTR [rsi]
    299d:	48 ff c6             	inc    rsi
    29a0:	8a 06                	mov    al,BYTE PTR [rsi]
    29a2:	84 c0                	test   al,al
    29a4:	0f 84 17 00 00 00    	je     0x29c1
    29aa:	fe 0e                	dec    BYTE PTR [rsi]
    29ac:	48 81 c6 fc ff ff ff 	add    rsi,0xfffffffffffffffc
    29b3:	fe 06                	inc    BYTE PTR [rsi]
    29b5:	48 81 c6 04 00 00 00 	add    rsi,0x4
    29bc:	e9 df ff ff ff       	jmp    0x29a0
    29c1:	48 81 c6 fc ff ff ff 	add    rsi,0xfffffffffffffffc
    29c8:	8a 06                	mov    al,BYTE PTR [rsi]
    29ca:	84 c0                	test   al,al
    29cc:	0f 84 73 00 00 00    	je     0x2a45
    29d2:	fe 0e                	dec    BYTE PTR [rsi]
    29d4:	48 81 c6 04 00 00 00 	add    rsi,0x4
    29db:	fe 06                	inc    BYTE PTR [rsi]
    29dd:	48 81 c6 fb ff ff ff 	add    rsi,0xfffffffffffffffb
    29e4:	48 81 c6 f8 ff ff ff 	add    rsi,0xfffffffffffffff8
    29eb:	8a 06                	mov    al,BYTE PTR [rsi]
    29ed:	84 c0                	test   al,al
    29ef:	0f 84 0c 00 00 00    	je     0x2a01
    29f5:	48 81 c6 f7 ff ff ff 	add    rsi,0xfffffffffffffff7
    29fc:	e9 ea ff ff ff       	jmp    0x29eb
    2a01:	48 81 c6 04 00 00 00 	add    rsi,0x4
    2a08:	8a 06                	mov    al,BYTE PTR [rsi]
    2a0a:	84 c0                	test   al,al
    2a0c:	0f 84 07 00 00 00    	je     0x2a19
    2a12:	fe 0e                	dec    BYTE PTR [rsi]
    2a14:	e9 ef ff ff ff       	jmp    0x2a08
    2a19:	fe 06                	inc    BYTE PTR [rsi]
    2a1b:	48 81 c6 05 00 00 00 	add    rsi,0x5
    2a22:	8a 06                	mov    al,BYTE PTR [rsi]
    2a24:	84 c0                	test   al,al
    2a26:	0f 84 0c 00 00 00    	je     0x2a38
    2a2c:	48 81 c6 09 00 00 00 	add    rsi,0x9
    2a33:	e9 ea ff ff ff       	jmp    0x2a22
    2a38:	48 ff c6             	inc    rsi
    2a3b:	fe 06                	inc    BYTE PTR [rsi]
    2a3d:	48 ff ce             	dec    rsi
    2a40:	e9 83 ff ff ff       	jmp    0x29c8
    2a45:	e9 3e ff ff ff       	jmp    0x2988
    2a4a:	fe 06                	inc    BYTE PTR [rsi]
    2a4c:	48 81 c6 04 00 00 00 	add    rsi,0x4
    2a53:	8a 06                	mov    al,BYTE PTR [rsi]
    2a55:	84 c0                	test   al,al
    2a57:	0f 84 17 00 00 00    	je     0x2a74
    2a5d:	fe 0e                	dec    BYTE PTR [rsi]
    2a5f:	48 81 c6 fc ff ff ff 	add    rsi,0xfffffffffffffffc
    2a66:	fe 0e                	dec    BYTE PTR [rsi]
    2a68:	48 81 c6 04 00 00 00 	add    rsi,0x4
    2a6f:	e9 df ff ff ff       	jmp    0x2a53
    2a74:	fe 06                	inc    BYTE PTR [rsi]
    2a76:	48 81 c6 fc ff ff ff 	add    rsi,0xfffffffffffffffc
    2a7d:	8a 06                	mov    al,BYTE PTR [rsi]
    2a7f:	84 c0                	test   al,al
    2a81:	0f 84 c2 00 00 00    	je     0x2b49
    2a87:	fe 0e                	dec    BYTE PTR [rsi]
    2a89:	48 81 c6 04 00 00 00 	add    rsi,0x4
    2a90:	fe 0e                	dec    BYTE PTR [rsi]
    2a92:	48 ff ce             	dec    rsi
    2a95:	8a 06                	mov    al,BYTE PTR [rsi]
    2a97:	84 c0                	test   al,al
    2a99:	0f 84 17 00 00 00    	je     0x2ab6
    2a9f:	fe 0e                	dec    BYTE PTR [rsi]
    2aa1:	48 81 c6 fd ff ff ff 	add    rsi,0xfffffffffffffffd
    2aa8:	fe 06                	inc    BYTE PTR [rsi]
    2aaa:	48 81 c6 03 00 00 00 	add    rsi,0x3
    2ab1:	e9 df ff ff ff       	jmp    0x2a95
    2ab6:	48 81 c6 fd ff ff ff 	add    rsi,0xfffffffffffffffd
    2abd:	8a 06                	mov    al,BYTE PTR [rsi]
    2abf:	84 c0                	test   al,al
    2ac1:	0f 84 7d 00 00 00    	je     0x2b44
    2ac7:	fe 0e                	dec    BYTE PTR [rsi]
    2ac9:	48 81 c6 03 00 00 00 	add    rsi,0x3
    2ad0:	fe 06                	inc    BYTE PTR [rsi]
    2ad2:	48 81 c6 f4 ff ff ff 	add    rsi,0xfffffffffffffff4
    2ad9:	8a 06                	mov    al,BYTE PTR [rsi]
    2adb:	84 c0                	test   al,al
    2add:	0f 84 0c 00 00 00    	je     0x2aef
    2ae3:	48 81 c6 f7 ff ff ff 	add    rsi,0xfffffffffffffff7
    2aea:	e9 ea ff ff ff       	jmp    0x2ad9
    2aef:	48 81 c6 03 00 00 00 	add    rsi,0x3
    2af6:	8a 06                	mov    al,BYTE PTR [rsi]
    2af8:	84 c0                	test   al,al
    2afa:	0f 84 07 00 00 00    	je     0x2b07
    2b00:	fe 0e                	dec    BYTE PTR [rsi]
    2b02:	e9 ef ff ff ff       	jmp    0x2af6
    2b07:	fe 06                	inc    BYTE PTR [rsi]
    2b09:	48 81 c6 06 00 00 00 	add    rsi,0x6
    2b10:	8a 06                	mov    al,BYTE PTR [rsi]
    2b12:	84 c0                	test   al,al
    2b14:	0f 84 0c 00 00 00    	je     0x2b26
    2b1a:	48 81 c6 09 00 00 00 	add    rsi,0x9
    2b21:	e9 ea ff ff ff       	jmp    0x2b10
    2b26:	48 ff c6             	inc    rsi
    2b29:	8a 06                	mov    al,BYTE PTR [rsi]
    2b2b:	84 c0                	test   al,al
    2b2d:	0f 84 07 00 00 00    	je     0x2b3a
    2b33:	fe 0e                	dec    BYTE PTR [rsi]
    2b35:	e9 ef ff ff ff       	jmp    0x2b29
    2b3a:	fe 06                	inc    BYTE PTR [rsi]
    2b3c:	48 ff ce             	dec    rsi
    2b3f:	e9 79 ff ff ff       	jmp    0x2abd
    2b44:	e9 34 ff ff ff       	jmp    0x2a7d
    2b49:	fe 06                	inc    BYTE PTR [rsi]
    2b4b:	48 ff c6             	inc    rsi
    2b4e:	8a 06                	mov    al,BYTE PTR [rsi]
    2b50:	84 c0                	test   al,al
    2b52:	0f 84 2e 00 00 00    	je     0x2b86
    2b58:	fe 0e                	dec    BYTE PTR [rsi]
    2b5a:	48 ff ce             	dec    rsi
    2b5d:	8a 06                	mov    al,BYTE PTR [rsi]
    2b5f:	84 c0                	test   al,al
    2b61:	0f 84 13 00 00 00    	je     0x2b7a
    2b67:	48 81 c6 02 00 00 00 	add    rsi,0x2
    2b6e:	48 81 c6 07 00 00 00 	add    rsi,0x7
    2b75:	e9 e3 ff ff ff       	jmp    0x2b5d
    2b7a:	48 81 c6 f8 ff ff ff 	add    rsi,0xfffffffffffffff8
    2b81:	e9 c8 ff ff ff       	jmp    0x2b4e
    2b86:	48 81 c6 08 00 00 00 	add    rsi,0x8
    2b8d:	e9 bb fd ff ff       	jmp    0x294d
    2b92:	48 81 c6 f7 ff ff ff 	add    rsi,0xfffffffffffffff7
    2b99:	8a 06                	mov    al,BYTE PTR [rsi]
    2b9b:	84 c0                	test   al,al
    2b9d:	0f 84 0c 00 00 00    	je     0x2baf
    2ba3:	48 81 c6 f7 ff ff ff 	add    rsi,0xfffffffffffffff7
    2baa:	e9 ea ff ff ff       	jmp    0x2b99
    2baf:	48 81 c6 03 00 00 00 	add    rsi,0x3
    2bb6:	8a 06                	mov    al,BYTE PTR [rsi]
    2bb8:	84 c0                	test   al,al
    2bba:	0f 84 17 00 00 00    	je     0x2bd7
    2bc0:	fe 0e                	dec    BYTE PTR [rsi]
    2bc2:	48 81 c6 fd ff ff ff 	add    rsi,0xfffffffffffffffd
    2bc9:	fe 06                	inc    BYTE PTR [rsi]
    2bcb:	48 81 c6 03 00 00 00 	add    rsi,0x3
    2bd2:	e9 df ff ff ff       	jmp    0x2bb6
    2bd7:	48 81 c6 fd ff ff ff 	add    rsi,0xfffffffffffffffd
    2bde:	8a 06                	mov    al,BYTE PTR [rsi]
    2be0:	84 c0                	test   al,al
    2be2:	0f 84 b3 01 00 00    	je     0x2d9b
    2be8:	fe 0e                	dec    BYTE PTR [rsi]
    2bea:	48 81 c6 03 00 00 00 	add    rsi,0x3
    2bf1:	fe 06                	inc    BYTE PTR [rsi]
    2bf3:	48 81 c6 06 00 00 00 	add    rsi,0x6
    2bfa:	8a 06                	mov    al,BYTE PTR [rsi]
    2bfc:	84 c0                	test   al,al
    2bfe:	0f 84 61 00 00 00    	je     0x2c65
    2c04:	48 ff c6             	inc    rsi
    2c07:	fe 06                	inc    BYTE PTR [rsi]
    2c09:	48 81 c6 03 00 00 00 	add    rsi,0x3
    2c10:	8a 06                	mov    al,BYTE PTR [rsi]
    2c12:	84 c0                	test   al,al
    2c14:	0f 84 17 00 00 00    	je     0x2c31
    2c1a:	fe 0e                	dec    BYTE PTR [rsi]
    2c1c:	48 81 c6 fd ff ff ff 	add    rsi,0xfffffffffffffffd
    2c23:	fe 0e                	dec    BYTE PTR [rsi]
    2c25:	48 81 c6 03 00 00 00 	add    rsi,0x3
    2c2c:	e9 df ff ff ff       	jmp    0x2c10
    2c31:	48 81 c6 fd ff ff ff 	add    rsi,0xfffffffffffffffd
    2c38:	8a 06                	mov    al,BYTE PTR [rsi]
    2c3a:	84 c0                	test   al,al
    2c3c:	0f 84 17 00 00 00    	je     0x2c59
    2c42:	fe 0e                	dec    BYTE PTR [rsi]
    2c44:	48 81 c6 03 00 00 00 	add    rsi,0x3
    2c4b:	fe 06                	inc    BYTE PTR [rsi]
    2c4d:	48 81 c6 fd ff ff ff 	add    rsi,0xfffffffffffffffd
    2c54:	e9 df ff ff ff       	jmp    0x2c38
    2c59:	48 81 c6 08 00 00 00 	add    rsi,0x8
    2c60:	e9 95 ff ff ff       	jmp    0x2bfa
    2c65:	48 81 c6 f8 ff ff ff 	add    rsi,0xfffffffffffffff8
    2c6c:	fe 06                	inc    BYTE PTR [rsi]
    2c6e:	48 ff ce             	dec    rsi
    2c71:	8a 06                	mov    al,BYTE PTR [rsi]
    2c73:	84 c0                	test   al,al
    2c75:	0f 84 1b 01 00 00    	je     0x2d96
    2c7b:	48 ff c6             	inc    rsi
    2c7e:	8a 06                	mov    al,BYTE PTR [rsi]
    2c80:	84 c0                	test   al,al
    2c82:	0f 84 8d 00 00 00    	je     0x2d15
    2c88:	fe 0e                	dec    BYTE PTR [rsi]
    2c8a:	48 ff c6             	inc    rsi
    2c8d:	fe 06                	inc    BYTE PTR [rsi]
    2c8f:	48 ff c6             	inc    rsi
    2c92:	8a 06                	mov    al,BYTE PTR [rsi]
    2c94:	84 c0                	test   al,al
    2c96:	0f 84 40 00 00 00    	je     0x2cdc
    2c9c:	fe 0e                	dec    BYTE PTR [rsi]
    2c9e:	48 ff ce             	dec    rsi
    2ca1:	fe 0e                	dec    BYTE PTR [rsi]
    2ca3:	48 81 c6 f6 ff ff ff 	add    rsi,0xfffffffffffffff6
    2caa:	fe 06                	inc    BYTE PTR [rsi]
    2cac:	48 81 c6 0c 00 00 00 	add    rsi,0xc
    2cb3:	8a 06                	mov    al,BYTE PTR [rsi]
    2cb5:	84 c0                	test   al,al
    2cb7:	0f 84 17 00 00 00    	je     0x2cd4
    2cbd:	fe 0e                	dec    BYTE PTR [rsi]
    2cbf:	48 81 c6 fe ff ff ff 	add    rsi,0xfffffffffffffffe
    2cc6:	fe 06                	inc    BYTE PTR [rsi]
    2cc8:	48 81 c6 02 00 00 00 	add    rsi,0x2
    2ccf:	e9 df ff ff ff       	jmp    0x2cb3
    2cd4:	48 ff ce             	dec    rsi
    2cd7:	e9 b6 ff ff ff       	jmp    0x2c92
    2cdc:	48 ff c6             	inc    rsi
    2cdf:	8a 06                	mov    al,BYTE PTR [rsi]
    2ce1:	84 c0                	test   al,al
    2ce3:	0f 84 20 00 00 00    	je     0x2d09
    2ce9:	fe 0e                	dec    BYTE PTR [rsi]
    2ceb:	48 81 c6 fe ff ff ff 	add    rsi,0xfffffffffffffffe
    2cf2:	fe 0e                	dec    BYTE PTR [rsi]
    2cf4:	48 81 c6 f6 ff ff ff 	add    rsi,0xfffffffffffffff6
    2cfb:	fe 06                	inc    BYTE PTR [rsi]
    2cfd:	48 81 c6 0c 00 00 00 	add    rsi,0xc
    2d04:	e9 d6 ff ff ff       	jmp    0x2cdf
    2d09:	48 81 c6 fd ff ff ff 	add    rsi,0xfffffffffffffffd
    2d10:	e9 69 ff ff ff       	jmp    0x2c7e
    2d15:	48 81 c6 02 00 00 00 	add    rsi,0x2
    2d1c:	8a 06                	mov    al,BYTE PTR [rsi]
    2d1e:	84 c0                	test   al,al
    2d20:	0f 84 40 00 00 00    	je     0x2d66
    2d26:	fe 0e                	dec    BYTE PTR [rsi]
    2d28:	48 ff ce             	dec    rsi
    2d2b:	fe 06                	inc    BYTE PTR [rsi]
    2d2d:	48 81 c6 02 00 00 00 	add    rsi,0x2
    2d34:	8a 06                	mov    al,BYTE PTR [rsi]
    2d36:	84 c0                	test   al,al
    2d38:	0f 84 20 00 00 00    	je     0x2d5e
    2d3e:	fe 0e                	dec    BYTE PTR [rsi]
    2d40:	48 81 c6 fe ff ff ff 	add    rsi,0xfffffffffffffffe
    2d47:	fe 0e                	dec    BYTE PTR [rsi]
    2d49:	48 81 c6 f6 ff ff ff 	add    rsi,0xfffffffffffffff6
    2d50:	fe 06                	inc    BYTE PTR [rsi]
    2d52:	48 81 c6 0c 00 00 00 	add    rsi,0xc
    2d59:	e9 d6 ff ff ff       	jmp    0x2d34
    2d5e:	48 ff ce             	dec    rsi
    2d61:	e9 b6 ff ff ff       	jmp    0x2d1c
    2d66:	48 ff c6             	inc    rsi
    2d69:	8a 06                	mov    al,BYTE PTR [rsi]
    2d6b:	84 c0                	test   al,al
    2d6d:	0f 84 17 00 00 00    	je     0x2d8a
    2d73:	fe 0e                	dec    BYTE PTR [rsi]
    2d75:	48 81 c6 fe ff ff ff 	add    rsi,0xfffffffffffffffe
    2d7c:	fe 06                	inc    BYTE PTR [rsi]
    2d7e:	48 81 c6 02 00 00 00 	add    rsi,0x2
    2d85:	e9 df ff ff ff       	jmp    0x2d69
    2d8a:	48 81 c6 f3 ff ff ff 	add    rsi,0xfffffffffffffff3
    2d91:	e9 db fe ff ff       	jmp    0x2c71
    2d96:	e9 43 fe ff ff       	jmp    0x2bde
    2d9b:	48 81 c6 04 00 00 00 	add    rsi,0x4
    2da2:	8a 06                	mov    al,BYTE PTR [rsi]
    2da4:	84 c0                	test   al,al
    2da6:	0f 84 17 00 00 00    	je     0x2dc3
    2dac:	fe 0e                	dec    BYTE PTR [rsi]
    2dae:	48 81 c6 fc ff ff ff 	add    rsi,0xfffffffffffffffc
    2db5:	fe 06                	inc    BYTE PTR [rsi]
    2db7:	48 81 c6 04 00 00 00 	add    rsi,0x4
    2dbe:	e9 df ff ff ff       	jmp    0x2da2
    2dc3:	48 81 c6 fc ff ff ff 	add    rsi,0xfffffffffffffffc
    2dca:	8a 06                	mov    al,BYTE PTR [rsi]
    2dcc:	84 c0                	test   al,al
    2dce:	0f 84 c1 01 00 00    	je     0x2f95
    2dd4:	fe 0e                	dec    BYTE PTR [rsi]
    2dd6:	48 81 c6 04 00 00 00 	add    rsi,0x4
    2ddd:	fe 06                	inc    BYTE PTR [rsi]
    2ddf:	48 81 c6 05 00 00 00 	add    rsi,0x5
    2de6:	8a 06                	mov    al,BYTE PTR [rsi]
    2de8:	84 c0                	test   al,al
    2dea:	0f 84 68 00 00 00    	je     0x2e58
    2df0:	48 ff c6             	inc    rsi
    2df3:	fe 06                	inc    BYTE PTR [rsi]
    2df5:	48 81 c6 02 00 00 00 	add    rsi,0x2
    2dfc:	8a 06                	mov    al,BYTE PTR [rsi]
    2dfe:	84 c0                	test   al,al
    2e00:	0f 84 17 00 00 00    	je     0x2e1d
    2e06:	fe 0e                	dec    BYTE PTR [rsi]
    2e08:	48 81 c6 fe ff ff ff 	add    rsi,0xfffffffffffffffe
    2e0f:	fe 0e                	dec    BYTE PTR [rsi]
    2e11:	48 81 c6 02 00 00 00 	add    rsi,0x2
    2e18:	e9 df ff ff ff       	jmp    0x2dfc
    2e1d:	48 81 c6 fe ff ff ff 	add    rsi,0xfffffffffffffffe
    2e24:	8a 06                	mov    al,BYTE PTR [rsi]
    2e26:	84 c0                	test   al,al
    2e28:	0f 84 17 00 00 00    	je     0x2e45
    2e2e:	fe 0e                	dec    BYTE PTR [rsi]
    2e30:	48 81 c6 02 00 00 00 	add    rsi,0x2
    2e37:	fe 06                	inc    BYTE PTR [rsi]
    2e39:	48 81 c6 fe ff ff ff 	add    rsi,0xfffffffffffffffe
    2e40:	e9 df ff ff ff       	jmp    0x2e24
    2e45:	48 81 c6 02 00 00 00 	add    rsi,0x2
    2e4c:	48 81 c6 06 00 00 00 	add    rsi,0x6
    2e53:	e9 8e ff ff ff       	jmp    0x2de6
    2e58:	48 81 c6 f8 ff ff ff 	add    rsi,0xfffffffffffffff8
    2e5f:	fe 06                	inc    BYTE PTR [rsi]
    2e61:	48 ff ce             	dec    rsi
    2e64:	8a 06                	mov    al,BYTE PTR [rsi]
    2e66:	84 c0                	test   al,al
    2e68:	0f 84 12 01 00 00    	je     0x2f80
    2e6e:	48 ff c6             	inc    rsi
    2e71:	8a 06                	mov    al,BYTE PTR [rsi]
    2e73:	84 c0                	test   al,al
    2e75:	0f 84 90 00 00 00    	je     0x2f0b
    2e7b:	fe 0e                	dec    BYTE PTR [rsi]
    2e7d:	48 ff c6             	inc    rsi
    2e80:	fe 06                	inc    BYTE PTR [rsi]
    2e82:	48 81 c6 02 00 00 00 	add    rsi,0x2
    2e89:	8a 06                	mov    al,BYTE PTR [rsi]
    2e8b:	84 c0                	test   al,al
    2e8d:	0f 84 3c 00 00 00    	je     0x2ecf
    2e93:	fe 0e                	dec    BYTE PTR [rsi]
    2e95:	48 81 c6 fe ff ff ff 	add    rsi,0xfffffffffffffffe
    2e9c:	fe 0e                	dec    BYTE PTR [rsi]
    2e9e:	48 81 c6 f6 ff ff ff 	add    rsi,0xfffffffffffffff6
    2ea5:	fe 06                	inc    BYTE PTR [rsi]
    2ea7:	48 81 c6 0b 00 00 00 	add    rsi,0xb
    2eae:	8a 06                	mov    al,BYTE PTR [rsi]
    2eb0:	84 c0                	test   al,al
    2eb2:	0f 84 0f 00 00 00    	je     0x2ec7
    2eb8:	fe 0e                	dec    BYTE PTR [rsi]
    2eba:	48 ff ce             	dec    rsi
    2ebd:	fe 06                	inc    BYTE PTR [rsi]
    2ebf:	48 ff c6             	inc    rsi
    2ec2:	e9 e7 ff ff ff       	jmp    0x2eae
    2ec7:	48 ff c6             	inc    rsi
    2eca:	e9 ba ff ff ff       	jmp    0x2e89
    2ecf:	48 ff ce             	dec    rsi
    2ed2:	8a 06                	mov    al,BYTE PTR [rsi]
    2ed4:	84 c0                	test   al,al
    2ed6:	0f 84 23 00 00 00    	je     0x2eff
    2edc:	fe 0e                	dec    BYTE PTR [rsi]
    2ede:	48 ff ce             	dec    rsi
    2ee1:	fe 0e                	dec    BYTE PTR [rsi]
    2ee3:	48 81 c6 f6 ff ff ff 	add    rsi,0xfffffffffffffff6
    2eea:	fe 06                	inc    BYTE PTR [rsi]
    2eec:	48 81 c6 04 00 00 00 	add    rsi,0x4
    2ef3:	48 81 c6 07 00 00 00 	add    rsi,0x7
    2efa:	e9 d3 ff ff ff       	jmp    0x2ed2
    2eff:	48 81 c6 fe ff ff ff 	add    rsi,0xfffffffffffffffe
    2f06:	e9 66 ff ff ff       	jmp    0x2e71
    2f0b:	48 81 c6 03 00 00 00 	add    rsi,0x3
    2f12:	8a 06                	mov    al,BYTE PTR [rsi]
    2f14:	84 c0                	test   al,al
    2f16:	0f 84 3c 00 00 00    	je     0x2f58
    2f1c:	fe 0e                	dec    BYTE PTR [rsi]
    2f1e:	48 81 c6 fe ff ff ff 	add    rsi,0xfffffffffffffffe
    2f25:	fe 06                	inc    BYTE PTR [rsi]
    2f27:	48 ff c6             	inc    rsi
    2f2a:	8a 06                	mov    al,BYTE PTR [rsi]
    2f2c:	84 c0                	test   al,al
    2f2e:	0f 84 1c 00 00 00    	je     0x2f50
    2f34:	fe 0e                	dec    BYTE PTR [rsi]
    2f36:	48 ff ce             	dec    rsi
    2f39:	fe 0e                	dec    BYTE PTR [rsi]
    2f3b:	48 81 c6 f6 ff ff ff 	add    rsi,0xfffffffffffffff6
    2f42:	fe 06                	inc    BYTE PTR [rsi]
    2f44:	48 81 c6 0b 00 00 00 	add    rsi,0xb
    2f4b:	e9 da ff ff ff       	jmp    0x2f2a
    2f50:	48 ff c6             	inc    rsi
    2f53:	e9 ba ff ff ff       	jmp    0x2f12
    2f58:	48 ff ce             	dec    rsi
    2f5b:	8a 06                	mov    al,BYTE PTR [rsi]
    2f5d:	84 c0                	test   al,al
    2f5f:	0f 84 0f 00 00 00    	je     0x2f74
    2f65:	fe 0e                	dec    BYTE PTR [rsi]
    2f67:	48 ff ce             	dec    rsi
    2f6a:	fe 06                	inc    BYTE PTR [rsi]
    2f6c:	48 ff c6             	inc    rsi
    2f6f:	e9 e7 ff ff ff       	jmp    0x2f5b
    2f74:	48 81 c6 f4 ff ff ff 	add    rsi,0xfffffffffffffff4
    2f7b:	e9 e4 fe ff ff       	jmp    0x2e64
    2f80:	48 81 c6 05 00 00 00 	add    rsi,0x5
    2f87:	fe 06                	inc    BYTE PTR [rsi]
    2f89:	48 81 c6 fb ff ff ff 	add    rsi,0xfffffffffffffffb
    2f90:	e9 35 fe ff ff       	jmp    0x2dca
    2f95:	48 81 c6 09 00 00 00 	add    rsi,0x9
    2f9c:	8a 06                	mov    al,BYTE PTR [rsi]
    2f9e:	84 c0                	test   al,al
    2fa0:	0f 84 4c 00 00 00    	je     0x2ff2
    2fa6:	48 81 c6 03 00 00 00 	add    rsi,0x3
    2fad:	8a 06                	mov    al,BYTE PTR [rsi]
    2faf:	84 c0                	test   al,al
    2fb1:	0f 84 07 00 00 00    	je     0x2fbe
    2fb7:	fe 0e                	dec    BYTE PTR [rsi]
    2fb9:	e9 ef ff ff ff       	jmp    0x2fad
    2fbe:	48 ff c6             	inc    rsi
    2fc1:	8a 06                	mov    al,BYTE PTR [rsi]
    2fc3:	84 c0                	test   al,al
    2fc5:	0f 84 07 00 00 00    	je     0x2fd2
    2fcb:	fe 0e                	dec    BYTE PTR [rsi]
    2fcd:	e9 ef ff ff ff       	jmp    0x2fc1
    2fd2:	48 ff c6             	inc    rsi
    2fd5:	8a 06                	mov    al,BYTE PTR [rsi]
    2fd7:	84 c0                	test   al,al
    2fd9:	0f 84 07 00 00 00    	je     0x2fe6
    2fdf:	fe 0e                	dec    BYTE PTR [rsi]
    2fe1:	e9 ef ff ff ff       	jmp    0x2fd5
    2fe6:	48 81 c6 04 00 00 00 	add    rsi,0x4
    2fed:	e9 aa ff ff ff       	jmp    0x2f9c
    2ff2:	48 81 c6 f7 ff ff ff 	add    rsi,0xfffffffffffffff7
    2ff9:	8a 06                	mov    al,BYTE PTR [rsi]
    2ffb:	84 c0                	test   al,al
    2ffd:	0f 84 0c 00 00 00    	je     0x300f
    3003:	48 81 c6 f7 ff ff ff 	add    rsi,0xfffffffffffffff7
    300a:	e9 ea ff ff ff       	jmp    0x2ff9
    300f:	48 81 c6 03 00 00 00 	add    rsi,0x3
    3016:	8a 06                	mov    al,BYTE PTR [rsi]
    3018:	84 c0                	test   al,al
    301a:	0f 84 07 00 00 00    	je     0x3027
    3020:	fe 0e                	dec    BYTE PTR [rsi]
    3022:	e9 ef ff ff ff       	jmp    0x3016
    3027:	48 ff c6             	inc    rsi
    302a:	8a 06                	mov    al,BYTE PTR [rsi]
    302c:	84 c0                	test   al,al
    302e:	0f 84 07 00 00 00    	je     0x303b
    3034:	fe 0e                	dec    BYTE PTR [rsi]
    3036:	e9 ef ff ff ff       	jmp    0x302a
    303b:	48 81 c6 05 00 00 00 	add    rsi,0x5
    3042:	8a 06                	mov    al,BYTE PTR [rsi]
    3044:	84 c0                	test   al,al
    3046:	0f 84 68 00 00 00    	je     0x30b4
    304c:	48 81 c6 07 00 00 00 	add    rsi,0x7
    3053:	8a 06                	mov    al,BYTE PTR [rsi]
    3055:	84 c0                	test   al,al
    3057:	0f 84 1a 00 00 00    	je     0x3077
    305d:	fe 0e                	dec    BYTE PTR [rsi]
    305f:	48 81 c6 fb ff ff ff 	add    rsi,0xfffffffffffffffb
    3066:	48 ff ce             	dec    rsi
    3069:	fe 06                	inc    BYTE PTR [rsi]
    306b:	48 81 c6 06 00 00 00 	add    rsi,0x6
    3072:	e9 dc ff ff ff       	jmp    0x3053
    3077:	48 81 c6 fa ff ff ff 	add    rsi,0xfffffffffffffffa
    307e:	8a 06                	mov    al,BYTE PTR [rsi]
    3080:	84 c0                	test   al,al
    3082:	0f 84 20 00 00 00    	je     0x30a8
    3088:	fe 0e                	dec    BYTE PTR [rsi]
    308a:	48 81 c6 06 00 00 00 	add    rsi,0x6
    3091:	fe 06                	inc    BYTE PTR [rsi]
    3093:	48 81 c6 fc ff ff ff 	add    rsi,0xfffffffffffffffc
    309a:	fe 06                	inc    BYTE PTR [rsi]
    309c:	48 81 c6 fe ff ff ff 	add    rsi,0xfffffffffffffffe
    30a3:	e9 d6 ff ff ff       	jmp    0x307e
    30a8:	48 81 c6 08 00 00 00 	add    rsi,0x8
    30af:	e9 8e ff ff ff       	jmp    0x3042
    30b4:	48 81 c6 f7 ff ff ff 	add    rsi,0xfffffffffffffff7
    30bb:	8a 06                	mov    al,BYTE PTR [rsi]
    30bd:	84 c0                	test   al,al
    30bf:	0f 84 0c 00 00 00    	je     0x30d1
    30c5:	48 81 c6 f7 ff ff ff 	add    rsi,0xfffffffffffffff7
    30cc:	e9 ea ff ff ff       	jmp    0x30bb
    30d1:	48 81 c6 04 00 00 00 	add    rsi,0x4
    30d8:	fe 06                	inc    BYTE PTR [rsi]
    30da:	48 ff c6             	inc    rsi
    30dd:	8a 06                	mov    al,BYTE PTR [rsi]
    30df:	84 c0                	test   al,al
    30e1:	0f 84 1f 00 00 00    	je     0x3106
    30e7:	fe 0e                	dec    BYTE PTR [rsi]
    30e9:	48 ff ce             	dec    rsi
    30ec:	fe 0e                	dec    BYTE PTR [rsi]
    30ee:	48 81 c6 fc ff ff ff 	add    rsi,0xfffffffffffffffc
    30f5:	fe 06                	inc    BYTE PTR [rsi]
    30f7:	48 81 c6 04 00 00 00 	add    rsi,0x4
    30fe:	48 ff c6             	inc    rsi
    3101:	e9 d7 ff ff ff       	jmp    0x30dd
    3106:	48 81 c6 02 00 00 00 	add    rsi,0x2
    310d:	8a 06                	mov    al,BYTE PTR [rsi]
    310f:	84 c0                	test   al,al
    3111:	0f 84 6e 00 00 00    	je     0x3185
    3117:	fe 0e                	dec    BYTE PTR [rsi]
    3119:	48 81 c6 f9 ff ff ff 	add    rsi,0xfffffffffffffff9
    3120:	8a 06                	mov    al,BYTE PTR [rsi]
    3122:	84 c0                	test   al,al
    3124:	0f 84 1d 00 00 00    	je     0x3147
    312a:	fe 0e                	dec    BYTE PTR [rsi]
    312c:	48 81 c6 05 00 00 00 	add    rsi,0x5
    3133:	fe 06                	inc    BYTE PTR [rsi]
    3135:	48 ff ce             	dec    rsi
    3138:	80 06 02             	add    BYTE PTR [rsi],0x2
    313b:	48 81 c6 fc ff ff ff 	add    rsi,0xfffffffffffffffc
    3142:	e9 d9 ff ff ff       	jmp    0x3120
    3147:	48 81 c6 05 00 00 00 	add    rsi,0x5
    314e:	8a 06                	mov    al,BYTE PTR [rsi]
    3150:	84 c0                	test   al,al
    3152:	0f 84 17 00 00 00    	je     0x316f
    3158:	fe 0e                	dec    BYTE PTR [rsi]
    315a:	48 81 c6 fb ff ff ff 	add    rsi,0xfffffffffffffffb
    3161:	fe 06                	inc    BYTE PTR [rsi]
    3163:	48 81 c6 05 00 00 00 	add    rsi,0x5
    316a:	e9 df ff ff ff       	jmp    0x314e
    316f:	48 ff ce             	dec    rsi
    3172:	fe 0e                	dec    BYTE PTR [rsi]
    3174:	48 ff c6             	inc    rsi
    3177:	fe 06                	inc    BYTE PTR [rsi]
    3179:	48 81 c6 02 00 00 00 	add    rsi,0x2
    3180:	e9 88 ff ff ff       	jmp    0x310d
    3185:	48 81 c6 fe ff ff ff 	add    rsi,0xfffffffffffffffe
    318c:	8a 06                	mov    al,BYTE PTR [rsi]
    318e:	84 c0                	test   al,al
    3190:	0f 84 17 00 00 00    	je     0x31ad
    3196:	fe 0e                	dec    BYTE PTR [rsi]
    3198:	48 81 c6 02 00 00 00 	add    rsi,0x2
    319f:	fe 06                	inc    BYTE PTR [rsi]
    31a1:	48 81 c6 fe ff ff ff 	add    rsi,0xfffffffffffffffe
    31a8:	e9 df ff ff ff       	jmp    0x318c
    31ad:	48 81 c6 fb ff ff ff 	add    rsi,0xfffffffffffffffb
    31b4:	8a 06                	mov    al,BYTE PTR [rsi]
    31b6:	84 c0                	test   al,al
    31b8:	0f 84 1e 00 00 00    	je     0x31dc
    31be:	fe 0e                	dec    BYTE PTR [rsi]
    31c0:	48 81 c6 05 00 00 00 	add    rsi,0x5
    31c7:	fe 06                	inc    BYTE PTR [rsi]
    31c9:	48 81 c6 fe ff ff ff 	add    rsi,0xfffffffffffffffe
    31d0:	48 81 c6 fd ff ff ff 	add    rsi,0xfffffffffffffffd
    31d7:	e9 d8 ff ff ff       	jmp    0x31b4
    31dc:	fe 06                	inc    BYTE PTR [rsi]
    31de:	48 81 c6 04 00 00 00 	add    rsi,0x4
    31e5:	8a 06                	mov    al,BYTE PTR [rsi]
    31e7:	84 c0                	test   al,al
    31e9:	0f 84 17 00 00 00    	je     0x3206
    31ef:	fe 0e                	dec    BYTE PTR [rsi]
    31f1:	48 81 c6 fc ff ff ff 	add    rsi,0xfffffffffffffffc
    31f8:	fe 0e                	dec    BYTE PTR [rsi]
    31fa:	48 81 c6 04 00 00 00 	add    rsi,0x4
    3201:	e9 df ff ff ff       	jmp    0x31e5
    3206:	fe 06                	inc    BYTE PTR [rsi]
    3208:	48 81 c6 fc ff ff ff 	add    rsi,0xfffffffffffffffc
    320f:	8a 06                	mov    al,BYTE PTR [rsi]
    3211:	84 c0                	test   al,al
    3213:	0f 84 e3 06 00 00    	je     0x38fc
    3219:	fe 0e                	dec    BYTE PTR [rsi]
    321b:	48 81 c6 04 00 00 00 	add    rsi,0x4
    3222:	fe 0e                	dec    BYTE PTR [rsi]
    3224:	48 81 c6 05 00 00 00 	add    rsi,0x5
    322b:	8a 06                	mov    al,BYTE PTR [rsi]
    322d:	84 c0                	test   al,al
    322f:	0f 84 3a 02 00 00    	je     0x346f
    3235:	48 81 c6 03 00 00 00 	add    rsi,0x3
    323c:	8a 06                	mov    al,BYTE PTR [rsi]
    323e:	84 c0                	test   al,al
    3240:	0f 84 17 00 00 00    	je     0x325d
    3246:	fe 0e                	dec    BYTE PTR [rsi]
    3248:	48 81 c6 fd ff ff ff 	add    rsi,0xfffffffffffffffd
    324f:	fe 0e                	dec    BYTE PTR [rsi]
    3251:	48 81 c6 03 00 00 00 	add    rsi,0x3
    3258:	e9 df ff ff ff       	jmp    0x323c
    325d:	fe 06                	inc    BYTE PTR [rsi]
    325f:	48 81 c6 fd ff ff ff 	add    rsi,0xfffffffffffffffd
    3266:	8a 06                	mov    al,BYTE PTR [rsi]
    3268:	84 c0                	test   al,al
    326a:	0f 84 b8 00 00 00    	je     0x3328
    3270:	fe 0e                	dec    BYTE PTR [rsi]
    3272:	48 81 c6 03 00 00 00 	add    rsi,0x3
    3279:	fe 0e                	dec    BYTE PTR [rsi]
    327b:	48 ff ce             	dec    rsi
    327e:	8a 06                	mov    al,BYTE PTR [rsi]
    3280:	84 c0                	test   al,al
    3282:	0f 84 17 00 00 00    	je     0x329f
    3288:	fe 0e                	dec    BYTE PTR [rsi]
    328a:	48 81 c6 fe ff ff ff 	add    rsi,0xfffffffffffffffe
    3291:	fe 06                	inc    BYTE PTR [rsi]
    3293:	48 81 c6 02 00 00 00 	add    rsi,0x2
    329a:	e9 df ff ff ff       	jmp    0x327e
    329f:	48 81 c6 fe ff ff ff 	add    rsi,0xfffffffffffffffe
    32a6:	8a 06                	mov    al,BYTE PTR [rsi]
    32a8:	84 c0                	test   al,al
    32aa:	0f 84 73 00 00 00    	je     0x3323
    32b0:	fe 0e                	dec    BYTE PTR [rsi]
    32b2:	48 81 c6 02 00 00 00 	add    rsi,0x2
    32b9:	fe 06                	inc    BYTE PTR [rsi]
    32bb:	48 81 c6 fe ff ff ff 	add    rsi,0xfffffffffffffffe
    32c2:	48 81 c6 f7 ff ff ff 	add    rsi,0xfffffffffffffff7
    32c9:	8a 06                	mov    al,BYTE PTR [rsi]
    32cb:	84 c0                	test   al,al
    32cd:	0f 84 0c 00 00 00    	je     0x32df
    32d3:	48 81 c6 f7 ff ff ff 	add    rsi,0xfffffffffffffff7
    32da:	e9 ea ff ff ff       	jmp    0x32c9
    32df:	48 81 c6 04 00 00 00 	add    rsi,0x4
    32e6:	8a 06                	mov    al,BYTE PTR [rsi]
    32e8:	84 c0                	test   al,al
    32ea:	0f 84 07 00 00 00    	je     0x32f7
    32f0:	fe 0e                	dec    BYTE PTR [rsi]
    32f2:	e9 ef ff ff ff       	jmp    0x32e6
    32f7:	fe 06                	inc    BYTE PTR [rsi]
    32f9:	48 81 c6 05 00 00 00 	add    rsi,0x5
    3300:	8a 06                	mov    al,BYTE PTR [rsi]
    3302:	84 c0                	test   al,al
    3304:	0f 84 0c 00 00 00    	je     0x3316
    330a:	48 81 c6 09 00 00 00 	add    rsi,0x9
    3311:	e9 ea ff ff ff       	jmp    0x3300
    3316:	48 ff c6             	inc    rsi
    3319:	fe 06                	inc    BYTE PTR [rsi]
    331b:	48 ff ce             	dec    rsi
    331e:	e9 83 ff ff ff       	jmp    0x32a6
    3323:	e9 3e ff ff ff       	jmp    0x3266
    3328:	fe 06                	inc    BYTE PTR [rsi]
    332a:	48 81 c6 02 00 00 00 	add    rsi,0x2
    3331:	8a 06                	mov    al,BYTE PTR [rsi]
    3333:	84 c0                	test   al,al
    3335:	0f 84 17 00 00 00    	je     0x3352
    333b:	fe 0e                	dec    BYTE PTR [rsi]
    333d:	48 81 c6 fe ff ff ff 	add    rsi,0xfffffffffffffffe
    3344:	fe 0e                	dec    BYTE PTR [rsi]
    3346:	48 81 c6 02 00 00 00 	add    rsi,0x2
    334d:	e9 df ff ff ff       	jmp    0x3331
    3352:	fe 06                	inc    BYTE PTR [rsi]
    3354:	48 81 c6 fe ff ff ff 	add    rsi,0xfffffffffffffffe
    335b:	8a 06                	mov    al,BYTE PTR [rsi]
    335d:	84 c0                	test   al,al
    335f:	0f 84 c5 00 00 00    	je     0x342a
    3365:	fe 0e                	dec    BYTE PTR [rsi]
    3367:	48 81 c6 02 00 00 00 	add    rsi,0x2
    336e:	fe 0e                	dec    BYTE PTR [rsi]
    3370:	48 ff c6             	inc    rsi
    3373:	8a 06                	mov    al,BYTE PTR [rsi]
    3375:	84 c0                	test   al,al
    3377:	0f 84 17 00 00 00    	je     0x3394
    337d:	fe 0e                	dec    BYTE PTR [rsi]
    337f:	48 81 c6 fd ff ff ff 	add    rsi,0xfffffffffffffffd
    3386:	fe 06                	inc    BYTE PTR [rsi]
    3388:	48 81 c6 03 00 00 00 	add    rsi,0x3
    338f:	e9 df ff ff ff       	jmp    0x3373
    3394:	48 ff ce             	dec    rsi
    3397:	48 81 c6 fe ff ff ff 	add    rsi,0xfffffffffffffffe
    339e:	8a 06                	mov    al,BYTE PTR [rsi]
    33a0:	84 c0                	test   al,al
    33a2:	0f 84 7d 00 00 00    	je     0x3425
    33a8:	fe 0e                	dec    BYTE PTR [rsi]
    33aa:	48 81 c6 03 00 00 00 	add    rsi,0x3
    33b1:	fe 06                	inc    BYTE PTR [rsi]
    33b3:	48 81 c6 f4 ff ff ff 	add    rsi,0xfffffffffffffff4
    33ba:	8a 06                	mov    al,BYTE PTR [rsi]
    33bc:	84 c0                	test   al,al
    33be:	0f 84 0c 00 00 00    	je     0x33d0
    33c4:	48 81 c6 f7 ff ff ff 	add    rsi,0xfffffffffffffff7
    33cb:	e9 ea ff ff ff       	jmp    0x33ba
    33d0:	48 81 c6 03 00 00 00 	add    rsi,0x3
    33d7:	8a 06                	mov    al,BYTE PTR [rsi]
    33d9:	84 c0                	test   al,al
    33db:	0f 84 07 00 00 00    	je     0x33e8
    33e1:	fe 0e                	dec    BYTE PTR [rsi]
    33e3:	e9 ef ff ff ff       	jmp    0x33d7
    33e8:	fe 06                	inc    BYTE PTR [rsi]
    33ea:	48 81 c6 06 00 00 00 	add    rsi,0x6
    33f1:	8a 06                	mov    al,BYTE PTR [rsi]
    33f3:	84 c0                	test   al,al
    33f5:	0f 84 0c 00 00 00    	je     0x3407
    33fb:	48 81 c6 09 00 00 00 	add    rsi,0x9
    3402:	e9 ea ff ff ff       	jmp    0x33f1
    3407:	48 ff c6             	inc    rsi
    340a:	8a 06                	mov    al,BYTE PTR [rsi]
    340c:	84 c0                	test   al,al
    340e:	0f 84 07 00 00 00    	je     0x341b
    3414:	fe 0e                	dec    BYTE PTR [rsi]
    3416:	e9 ef ff ff ff       	jmp    0x340a
    341b:	fe 06                	inc    BYTE PTR [rsi]
    341d:	48 ff ce             	dec    rsi
    3420:	e9 79 ff ff ff       	jmp    0x339e
    3425:	e9 31 ff ff ff       	jmp    0x335b
    342a:	fe 06                	inc    BYTE PTR [rsi]
    342c:	48 ff c6             	inc    rsi
    342f:	8a 06                	mov    al,BYTE PTR [rsi]
    3431:	84 c0                	test   al,al
    3433:	0f 84 2a 00 00 00    	je     0x3463
    3439:	fe 0e                	dec    BYTE PTR [rsi]
    343b:	48 ff ce             	dec    rsi
    343e:	8a 06                	mov    al,BYTE PTR [rsi]
    3440:	84 c0                	test   al,al
    3442:	0f 84 0c 00 00 00    	je     0x3454
    3448:	48 81 c6 09 00 00 00 	add    rsi,0x9
    344f:	e9 ea ff ff ff       	jmp    0x343e
    3454:	48 ff ce             	dec    rsi
    3457:	48 81 c6 f9 ff ff ff 	add    rsi,0xfffffffffffffff9
    345e:	e9 cc ff ff ff       	jmp    0x342f
    3463:	48 81 c6 08 00 00 00 	add    rsi,0x8
    346a:	e9 bc fd ff ff       	jmp    0x322b
    346f:	48 81 c6 f7 ff ff ff 	add    rsi,0xfffffffffffffff7
    3476:	8a 06                	mov    al,BYTE PTR [rsi]
    3478:	84 c0                	test   al,al
    347a:	0f 84 0c 00 00 00    	je     0x348c
    3480:	48 81 c6 f7 ff ff ff 	add    rsi,0xfffffffffffffff7
    3487:	e9 ea ff ff ff       	jmp    0x3476
    348c:	48 81 c6 03 00 00 00 	add    rsi,0x3
    3493:	8a 06                	mov    al,BYTE PTR [rsi]
    3495:	84 c0                	test   al,al
    3497:	0f 84 17 00 00 00    	je     0x34b4
    349d:	fe 0e                	dec    BYTE PTR [rsi]
    349f:	48 81 c6 fd ff ff ff 	add    rsi,0xfffffffffffffffd
    34a6:	fe 06                	inc    BYTE PTR [rsi]
    34a8:	48 81 c6 03 00 00 00 	add    rsi,0x3
    34af:	e9 df ff ff ff       	jmp    0x3493
    34b4:	48 81 c6 fd ff ff ff 	add    rsi,0xfffffffffffffffd
    34bb:	8a 06                	mov    al,BYTE PTR [rsi]
    34bd:	84 c0                	test   al,al
    34bf:	0f 84 18 02 00 00    	je     0x36dd
    34c5:	fe 0e                	dec    BYTE PTR [rsi]
    34c7:	48 81 c6 03 00 00 00 	add    rsi,0x3
    34ce:	fe 06                	inc    BYTE PTR [rsi]
    34d0:	48 81 c6 06 00 00 00 	add    rsi,0x6
    34d7:	8a 06                	mov    al,BYTE PTR [rsi]
    34d9:	84 c0                	test   al,al
    34db:	0f 84 49 00 00 00    	je     0x352a
    34e1:	48 ff c6             	inc    rsi
    34e4:	fe 06                	inc    BYTE PTR [rsi]
    34e6:	48 ff c6             	inc    rsi
    34e9:	8a 06                	mov    al,BYTE PTR [rsi]
    34eb:	84 c0                	test   al,al
    34ed:	0f 84 0f 00 00 00    	je     0x3502
    34f3:	fe 0e                	dec    BYTE PTR [rsi]
    34f5:	48 ff ce             	dec    rsi
    34f8:	fe 0e                	dec    BYTE PTR [rsi]
    34fa:	48 ff c6             	inc    rsi
    34fd:	e9 e7 ff ff ff       	jmp    0x34e9
    3502:	48 ff ce             	dec    rsi
    3505:	8a 06                	mov    al,BYTE PTR [rsi]
    3507:	84 c0                	test   al,al
    3509:	0f 84 0f 00 00 00    	je     0x351e
    350f:	fe 0e                	dec    BYTE PTR [rsi]
    3511:	48 ff c6             	inc    rsi
    3514:	fe 06                	inc    BYTE PTR [rsi]
    3516:	48 ff ce             	dec    rsi
    3519:	e9 e7 ff ff ff       	jmp    0x3505
    351e:	48 81 c6 08 00 00 00 	add    rsi,0x8
    3525:	e9 ad ff ff ff       	jmp    0x34d7
    352a:	48 81 c6 f8 ff ff ff 	add    rsi,0xfffffffffffffff8
    3531:	fe 06                	inc    BYTE PTR [rsi]
    3533:	48 ff ce             	dec    rsi
    3536:	8a 06                	mov    al,BYTE PTR [rsi]
    3538:	84 c0                	test   al,al
    353a:	0f 84 27 01 00 00    	je     0x3667
    3540:	48 ff c6             	inc    rsi
    3543:	8a 06                	mov    al,BYTE PTR [rsi]
    3545:	84 c0                	test   al,al
    3547:	0f 84 95 00 00 00    	je     0x35e2
    354d:	fe 0e                	dec    BYTE PTR [rsi]
    354f:	48 81 c6 04 00 00 00 	add    rsi,0x4
    3556:	fe 06                	inc    BYTE PTR [rsi]
    3558:	48 81 c6 fe ff ff ff 	add    rsi,0xfffffffffffffffe
    355f:	8a 06                	mov    al,BYTE PTR [rsi]
    3561:	84 c0                	test   al,al
    3563:	0f 84 44 00 00 00    	je     0x35ad
    3569:	fe 0e                	dec    BYTE PTR [rsi]
    356b:	48 81 c6 02 00 00 00 	add    rsi,0x2
    3572:	fe 0e                	dec    BYTE PTR [rsi]
    3574:	48 81 c6 f3 ff ff ff 	add    rsi,0xfffffffffffffff3
    357b:	fe 06                	inc    BYTE PTR [rsi]
    357d:	48 81 c6 0a 00 00 00 	add    rsi,0xa
    3584:	8a 06                	mov    al,BYTE PTR [rsi]
    3586:	84 c0                	test   al,al
    3588:	0f 84 17 00 00 00    	je     0x35a5
    358e:	fe 0e                	dec    BYTE PTR [rsi]
    3590:	48 81 c6 03 00 00 00 	add    rsi,0x3
    3597:	fe 06                	inc    BYTE PTR [rsi]
    3599:	48 81 c6 fd ff ff ff 	add    rsi,0xfffffffffffffffd
    35a0:	e9 df ff ff ff       	jmp    0x3584
    35a5:	48 ff c6             	inc    rsi
    35a8:	e9 b2 ff ff ff       	jmp    0x355f
    35ad:	48 ff ce             	dec    rsi
    35b0:	8a 06                	mov    al,BYTE PTR [rsi]
    35b2:	84 c0                	test   al,al
    35b4:	0f 84 20 00 00 00    	je     0x35da
    35ba:	fe 0e                	dec    BYTE PTR [rsi]
    35bc:	48 81 c6 03 00 00 00 	add    rsi,0x3
    35c3:	fe 0e                	dec    BYTE PTR [rsi]
    35c5:	48 81 c6 f3 ff ff ff 	add    rsi,0xfffffffffffffff3
    35cc:	fe 06                	inc    BYTE PTR [rsi]
    35ce:	48 81 c6 0a 00 00 00 	add    rsi,0xa
    35d5:	e9 d6 ff ff ff       	jmp    0x35b0
    35da:	48 ff ce             	dec    rsi
    35dd:	e9 61 ff ff ff       	jmp    0x3543
    35e2:	48 81 c6 02 00 00 00 	add    rsi,0x2
    35e9:	8a 06                	mov    al,BYTE PTR [rsi]
    35eb:	84 c0                	test   al,al
    35ed:	0f 84 44 00 00 00    	je     0x3637
    35f3:	fe 0e                	dec    BYTE PTR [rsi]
    35f5:	48 81 c6 02 00 00 00 	add    rsi,0x2
    35fc:	fe 06                	inc    BYTE PTR [rsi]
    35fe:	48 81 c6 fd ff ff ff 	add    rsi,0xfffffffffffffffd
    3605:	8a 06                	mov    al,BYTE PTR [rsi]
    3607:	84 c0                	test   al,al
    3609:	0f 84 20 00 00 00    	je     0x362f
    360f:	fe 0e                	dec    BYTE PTR [rsi]
    3611:	48 81 c6 03 00 00 00 	add    rsi,0x3
    3618:	fe 0e                	dec    BYTE PTR [rsi]
    361a:	48 81 c6 f3 ff ff ff 	add    rsi,0xfffffffffffffff3
    3621:	fe 06                	inc    BYTE PTR [rsi]
    3623:	48 81 c6 0a 00 00 00 	add    rsi,0xa
    362a:	e9 d6 ff ff ff       	jmp    0x3605
    362f:	48 ff c6             	inc    rsi
    3632:	e9 b2 ff ff ff       	jmp    0x35e9
    3637:	48 ff ce             	dec    rsi
    363a:	8a 06                	mov    al,BYTE PTR [rsi]
    363c:	84 c0                	test   al,al
    363e:	0f 84 17 00 00 00    	je     0x365b
    3644:	fe 0e                	dec    BYTE PTR [rsi]
    3646:	48 81 c6 03 00 00 00 	add    rsi,0x3
    364d:	fe 06                	inc    BYTE PTR [rsi]
    364f:	48 81 c6 fd ff ff ff 	add    rsi,0xfffffffffffffffd
    3656:	e9 df ff ff ff       	jmp    0x363a
    365b:	48 81 c6 f5 ff ff ff 	add    rsi,0xfffffffffffffff5
    3662:	e9 cf fe ff ff       	jmp    0x3536
    3667:	48 81 c6 05 00 00 00 	add    rsi,0x5
    366e:	8a 06                	mov    al,BYTE PTR [rsi]
    3670:	84 c0                	test   al,al
    3672:	0f 84 07 00 00 00    	je     0x367f
    3678:	fe 0e                	dec    BYTE PTR [rsi]
    367a:	e9 ef ff ff ff       	jmp    0x366e
    367f:	48 81 c6 02 00 00 00 	add    rsi,0x2
    3686:	8a 06                	mov    al,BYTE PTR [rsi]
    3688:	84 c0                	test   al,al
    368a:	0f 84 17 00 00 00    	je     0x36a7
    3690:	fe 0e                	dec    BYTE PTR [rsi]
    3692:	48 81 c6 f9 ff ff ff 	add    rsi,0xfffffffffffffff9
    3699:	fe 06                	inc    BYTE PTR [rsi]
    369b:	48 81 c6 07 00 00 00 	add    rsi,0x7
    36a2:	e9 df ff ff ff       	jmp    0x3686
    36a7:	48 81 c6 f9 ff ff ff 	add    rsi,0xfffffffffffffff9
    36ae:	8a 06                	mov    al,BYTE PTR [rsi]
    36b0:	84 c0                	test   al,al
    36b2:	0f 84 20 00 00 00    	je     0x36d8
    36b8:	fe 0e                	dec    BYTE PTR [rsi]
    36ba:	48 81 c6 07 00 00 00 	add    rsi,0x7
    36c1:	fe 06                	inc    BYTE PTR [rsi]
    36c3:	48 81 c6 fe ff ff ff 	add    rsi,0xfffffffffffffffe
    36ca:	fe 06                	inc    BYTE PTR [rsi]
    36cc:	48 81 c6 fb ff ff ff 	add    rsi,0xfffffffffffffffb
    36d3:	e9 d6 ff ff ff       	jmp    0x36ae
    36d8:	e9 de fd ff ff       	jmp    0x34bb
    36dd:	48 81 c6 04 00 00 00 	add    rsi,0x4
    36e4:	8a 06                	mov    al,BYTE PTR [rsi]
    36e6:	84 c0                	test   al,al
    36e8:	0f 84 1a 00 00 00    	je     0x3708
    36ee:	fe 0e                	dec    BYTE PTR [rsi]
    36f0:	48 81 c6 fc ff ff ff 	add    rsi,0xfffffffffffffffc
    36f7:	fe 06                	inc    BYTE PTR [rsi]
    36f9:	48 ff c6             	inc    rsi
    36fc:	48 81 c6 03 00 00 00 	add    rsi,0x3
    3703:	e9 dc ff ff ff       	jmp    0x36e4
    3708:	48 81 c6 fc ff ff ff 	add    rsi,0xfffffffffffffffc
    370f:	8a 06                	mov    al,BYTE PTR [rsi]
    3711:	84 c0                	test   al,al
    3713:	0f 84 bf 01 00 00    	je     0x38d8
    3719:	fe 0e                	dec    BYTE PTR [rsi]
    371b:	48 81 c6 04 00 00 00 	add    rsi,0x4
    3722:	fe 06                	inc    BYTE PTR [rsi]
    3724:	48 81 c6 05 00 00 00 	add    rsi,0x5
    372b:	8a 06                	mov    al,BYTE PTR [rsi]
    372d:	84 c0                	test   al,al
    372f:	0f 84 61 00 00 00    	je     0x3796
    3735:	48 ff c6             	inc    rsi
    3738:	fe 06                	inc    BYTE PTR [rsi]
    373a:	48 81 c6 02 00 00 00 	add    rsi,0x2
    3741:	8a 06                	mov    al,BYTE PTR [rsi]
    3743:	84 c0                	test   al,al
    3745:	0f 84 17 00 00 00    	je     0x3762
    374b:	fe 0e                	dec    BYTE PTR [rsi]
    374d:	48 81 c6 fe ff ff ff 	add    rsi,0xfffffffffffffffe
    3754:	fe 0e                	dec    BYTE PTR [rsi]
    3756:	48 81 c6 02 00 00 00 	add    rsi,0x2
    375d:	e9 df ff ff ff       	jmp    0x3741
    3762:	48 81 c6 fe ff ff ff 	add    rsi,0xfffffffffffffffe
    3769:	8a 06                	mov    al,BYTE PTR [rsi]
    376b:	84 c0                	test   al,al
    376d:	0f 84 17 00 00 00    	je     0x378a
    3773:	fe 0e                	dec    BYTE PTR [rsi]
    3775:	48 81 c6 02 00 00 00 	add    rsi,0x2
    377c:	fe 06                	inc    BYTE PTR [rsi]
    377e:	48 81 c6 fe ff ff ff 	add    rsi,0xfffffffffffffffe
    3785:	e9 df ff ff ff       	jmp    0x3769
    378a:	48 81 c6 08 00 00 00 	add    rsi,0x8
    3791:	e9 95 ff ff ff       	jmp    0x372b
    3796:	48 81 c6 f8 ff ff ff 	add    rsi,0xfffffffffffffff8
    379d:	fe 06                	inc    BYTE PTR [rsi]
    379f:	48 ff ce             	dec    rsi
    37a2:	8a 06                	mov    al,BYTE PTR [rsi]
    37a4:	84 c0                	test   al,al
    37a6:	0f 84 27 01 00 00    	je     0x38d3
    37ac:	48 ff c6             	inc    rsi
    37af:	8a 06                	mov    al,BYTE PTR [rsi]
    37b1:	84 c0                	test   al,al
    37b3:	0f 84 99 00 00 00    	je     0x3852
    37b9:	fe 0e                	dec    BYTE PTR [rsi]
    37bb:	48 81 c6 04 00 00 00 	add    rsi,0x4
    37c2:	fe 06                	inc    BYTE PTR [rsi]
    37c4:	48 81 c6 fd ff ff ff 	add    rsi,0xfffffffffffffffd
    37cb:	8a 06                	mov    al,BYTE PTR [rsi]
    37cd:	84 c0                	test   al,al
    37cf:	0f 84 44 00 00 00    	je     0x3819
    37d5:	fe 0e                	dec    BYTE PTR [rsi]
    37d7:	48 81 c6 03 00 00 00 	add    rsi,0x3
    37de:	fe 0e                	dec    BYTE PTR [rsi]
    37e0:	48 81 c6 f3 ff ff ff 	add    rsi,0xfffffffffffffff3
    37e7:	fe 06                	inc    BYTE PTR [rsi]
    37e9:	48 81 c6 0b 00 00 00 	add    rsi,0xb
    37f0:	8a 06                	mov    al,BYTE PTR [rsi]
    37f2:	84 c0                	test   al,al
    37f4:	0f 84 17 00 00 00    	je     0x3811
    37fa:	fe 0e                	dec    BYTE PTR [rsi]
    37fc:	48 81 c6 02 00 00 00 	add    rsi,0x2
    3803:	fe 06                	inc    BYTE PTR [rsi]
    3805:	48 81 c6 fe ff ff ff 	add    rsi,0xfffffffffffffffe
    380c:	e9 df ff ff ff       	jmp    0x37f0
    3811:	48 ff ce             	dec    rsi
    3814:	e9 b2 ff ff ff       	jmp    0x37cb
    3819:	48 ff c6             	inc    rsi
    381c:	8a 06                	mov    al,BYTE PTR [rsi]
    381e:	84 c0                	test   al,al
    3820:	0f 84 20 00 00 00    	je     0x3846
    3826:	fe 0e                	dec    BYTE PTR [rsi]
    3828:	48 81 c6 02 00 00 00 	add    rsi,0x2
    382f:	fe 0e                	dec    BYTE PTR [rsi]
    3831:	48 81 c6 f3 ff ff ff 	add    rsi,0xfffffffffffffff3
    3838:	fe 06                	inc    BYTE PTR [rsi]
    383a:	48 81 c6 0b 00 00 00 	add    rsi,0xb
    3841:	e9 d6 ff ff ff       	jmp    0x381c
    3846:	48 81 c6 fe ff ff ff 	add    rsi,0xfffffffffffffffe
    384d:	e9 5d ff ff ff       	jmp    0x37af
    3852:	48 ff c6             	inc    rsi
    3855:	8a 06                	mov    al,BYTE PTR [rsi]
    3857:	84 c0                	test   al,al
    3859:	0f 84 44 00 00 00    	je     0x38a3
    385f:	fe 0e                	dec    BYTE PTR [rsi]
    3861:	48 81 c6 03 00 00 00 	add    rsi,0x3
    3868:	fe 06                	inc    BYTE PTR [rsi]
    386a:	48 81 c6 fe ff ff ff 	add    rsi,0xfffffffffffffffe
    3871:	8a 06                	mov    al,BYTE PTR [rsi]
    3873:	84 c0                	test   al,al
    3875:	0f 84 20 00 00 00    	je     0x389b
    387b:	fe 0e                	dec    BYTE PTR [rsi]
    387d:	48 81 c6 02 00 00 00 	add    rsi,0x2
    3884:	fe 0e                	dec    BYTE PTR [rsi]
    3886:	48 81 c6 f3 ff ff ff 	add    rsi,0xfffffffffffffff3
    388d:	fe 06                	inc    BYTE PTR [rsi]
    388f:	48 81 c6 0b 00 00 00 	add    rsi,0xb
    3896:	e9 d6 ff ff ff       	jmp    0x3871
    389b:	48 ff ce             	dec    rsi
    389e:	e9 b2 ff ff ff       	jmp    0x3855
    38a3:	48 ff c6             	inc    rsi
    38a6:	8a 06                	mov    al,BYTE PTR [rsi]
    38a8:	84 c0                	test   al,al
    38aa:	0f 84 17 00 00 00    	je     0x38c7
    38b0:	fe 0e                	dec    BYTE PTR [rsi]
    38b2:	48 81 c6 02 00 00 00 	add    rsi,0x2
    38b9:	fe 06                	inc    BYTE PTR [rsi]
    38bb:	48 81 c6 fe ff ff ff 	add    rsi,0xfffffffffffffffe
    38c2:	e9 df ff ff ff       	jmp    0x38a6
    38c7:	48 81 c6 f4 ff ff ff 	add    rsi,0xfffffffffffffff4
    38ce:	e9 cf fe ff ff       	jmp    0x37a2
    38d3:	e9 37 fe ff ff       	jmp    0x370f
    38d8:	48 81 c6 04 00 00 00 	add    rsi,0x4
    38df:	8a 06                	mov    al,BYTE PTR [rsi]
    38e1:	84 c0                	test   al,al
    38e3:	0f 84 07 00 00 00    	je     0x38f0
    38e9:	fe 0e                	dec    BYTE PTR [rsi]
    38eb:	e9 ef ff ff ff       	jmp    0x38df
    38f0:	48 81 c6 fc ff ff ff 	add    rsi,0xfffffffffffffffc
    38f7:	e9 13 f9 ff ff       	jmp    0x320f
    38fc:	48 81 c6 04 00 00 00 	add    rsi,0x4
    3903:	8a 06                	mov    al,BYTE PTR [rsi]
    3905:	84 c0                	test   al,al
    3907:	0f 84 1e 00 00 00    	je     0x392b
    390d:	fe 0e                	dec    BYTE PTR [rsi]
    390f:	48 81 c6 fc ff ff ff 	add    rsi,0xfffffffffffffffc
    3916:	fe 06                	inc    BYTE PTR [rsi]
    3918:	48 81 c6 02 00 00 00 	add    rsi,0x2
    391f:	48 81 c6 02 00 00 00 	add    rsi,0x2
    3926:	e9 d8 ff ff ff       	jmp    0x3903
    392b:	48 81 c6 fc ff ff ff 	add    rsi,0xfffffffffffffffc
    3932:	8a 06                	mov    al,BYTE PTR [rsi]
    3934:	84 c0                	test   al,al
    3936:	0f 84 e7 01 00 00    	je     0x3b23
    393c:	fe 0e                	dec    BYTE PTR [rsi]
    393e:	48 81 c6 04 00 00 00 	add    rsi,0x4
    3945:	fe 06                	inc    BYTE PTR [rsi]
    3947:	48 ff c6             	inc    rsi
    394a:	8a 06                	mov    al,BYTE PTR [rsi]
    394c:	84 c0                	test   al,al
    394e:	0f 84 07 00 00 00    	je     0x395b
    3954:	fe 0e                	dec    BYTE PTR [rsi]
    3956:	e9 ef ff ff ff       	jmp    0x394a
    395b:	48 81 c6 02 00 00 00 	add    rsi,0x2
    3962:	8a 06                	mov    al,BYTE PTR [rsi]
    3964:	84 c0                	test   al,al
    3966:	0f 84 17 00 00 00    	je     0x3983
    396c:	fe 0e                	dec    BYTE PTR [rsi]
    396e:	48 81 c6 f9 ff ff ff 	add    rsi,0xfffffffffffffff9
    3975:	fe 06                	inc    BYTE PTR [rsi]
    3977:	48 81 c6 07 00 00 00 	add    rsi,0x7
    397e:	e9 df ff ff ff       	jmp    0x3962
    3983:	48 81 c6 f9 ff ff ff 	add    rsi,0xfffffffffffffff9
    398a:	8a 06                	mov    al,BYTE PTR [rsi]
    398c:	84 c0                	test   al,al
    398e:	0f 84 20 00 00 00    	je     0x39b4
    3994:	fe 0e                	dec    BYTE PTR [rsi]
    3996:	48 81 c6 07 00 00 00 	add    rsi,0x7
    399d:	fe 06                	inc    BYTE PTR [rsi]
    399f:	48 81 c6 fe ff ff ff 	add    rsi,0xfffffffffffffffe
    39a6:	fe 06                	inc    BYTE PTR [rsi]
    39a8:	48 81 c6 fb ff ff ff 	add    rsi,0xfffffffffffffffb
    39af:	e9 d6 ff ff ff       	jmp    0x398a
    39b4:	48 81 c6 09 00 00 00 	add    rsi,0x9
    39bb:	8a 06                	mov    al,BYTE PTR [rsi]
    39bd:	84 c0                	test   al,al
    39bf:	0f 84 13 00 00 00    	je     0x39d8
    39c5:	48 81 c6 06 00 00 00 	add    rsi,0x6
    39cc:	48 81 c6 03 00 00 00 	add    rsi,0x3
    39d3:	e9 e3 ff ff ff       	jmp    0x39bb
    39d8:	48 81 c6 f7 ff ff ff 	add    rsi,0xfffffffffffffff7
    39df:	8a 06                	mov    al,BYTE PTR [rsi]
    39e1:	84 c0                	test   al,al
    39e3:	0f 84 35 01 00 00    	je     0x3b1e
    39e9:	48 ff c6             	inc    rsi
    39ec:	8a 06                	mov    al,BYTE PTR [rsi]
    39ee:	84 c0                	test   al,al
    39f0:	0f 84 a0 00 00 00    	je     0x3a96
    39f6:	fe 0e                	dec    BYTE PTR [rsi]
    39f8:	48 81 c6 04 00 00 00 	add    rsi,0x4
    39ff:	fe 06                	inc    BYTE PTR [rsi]
    3a01:	48 81 c6 fd ff ff ff 	add    rsi,0xfffffffffffffffd
    3a08:	8a 06                	mov    al,BYTE PTR [rsi]
    3a0a:	84 c0                	test   al,al
    3a0c:	0f 84 44 00 00 00    	je     0x3a56
    3a12:	fe 0e                	dec    BYTE PTR [rsi]
    3a14:	48 81 c6 03 00 00 00 	add    rsi,0x3
    3a1b:	fe 0e                	dec    BYTE PTR [rsi]
    3a1d:	48 81 c6 f3 ff ff ff 	add    rsi,0xfffffffffffffff3
    3a24:	fe 06                	inc    BYTE PTR [rsi]
    3a26:	48 81 c6 0b 00 00 00 	add    rsi,0xb
    3a2d:	8a 06                	mov    al,BYTE PTR [rsi]
    3a2f:	84 c0                	test   al,al
    3a31:	0f 84 17 00 00 00    	je     0x3a4e
    3a37:	fe 0e                	dec    BYTE PTR [rsi]
    3a39:	48 81 c6 02 00 00 00 	add    rsi,0x2
    3a40:	fe 06                	inc    BYTE PTR [rsi]
    3a42:	48 81 c6 fe ff ff ff 	add    rsi,0xfffffffffffffffe
    3a49:	e9 df ff ff ff       	jmp    0x3a2d
    3a4e:	48 ff ce             	dec    rsi
    3a51:	e9 b2 ff ff ff       	jmp    0x3a08
    3a56:	48 ff c6             	inc    rsi
    3a59:	8a 06                	mov    al,BYTE PTR [rsi]
    3a5b:	84 c0                	test   al,al
    3a5d:	0f 84 27 00 00 00    	je     0x3a8a
    3a63:	fe 0e                	dec    BYTE PTR [rsi]
    3a65:	48 81 c6 02 00 00 00 	add    rsi,0x2
    3a6c:	fe 0e                	dec    BYTE PTR [rsi]
    3a6e:	48 81 c6 f8 ff ff ff 	add    rsi,0xfffffffffffffff8
    3a75:	48 81 c6 fb ff ff ff 	add    rsi,0xfffffffffffffffb
    3a7c:	fe 06                	inc    BYTE PTR [rsi]
    3a7e:	48 81 c6 0b 00 00 00 	add    rsi,0xb
    3a85:	e9 cf ff ff ff       	jmp    0x3a59
    3a8a:	48 81 c6 fe ff ff ff 	add    rsi,0xfffffffffffffffe
    3a91:	e9 56 ff ff ff       	jmp    0x39ec
    3a96:	48 ff c6             	inc    rsi
    3a99:	8a 06                	mov    al,BYTE PTR [rsi]
    3a9b:	84 c0                	test   al,al
    3a9d:	0f 84 44 00 00 00    	je     0x3ae7
    3aa3:	fe 0e                	dec    BYTE PTR [rsi]
    3aa5:	48 81 c6 03 00 00 00 	add    rsi,0x3
    3aac:	fe 06                	inc    BYTE PTR [rsi]
    3aae:	48 81 c6 fe ff ff ff 	add    rsi,0xfffffffffffffffe
    3ab5:	8a 06                	mov    al,BYTE PTR [rsi]
    3ab7:	84 c0                	test   al,al
    3ab9:	0f 84 20 00 00 00    	je     0x3adf
    3abf:	fe 0e                	dec    BYTE PTR [rsi]
    3ac1:	48 81 c6 02 00 00 00 	add    rsi,0x2
    3ac8:	fe 0e                	dec    BYTE PTR [rsi]
    3aca:	48 81 c6 f3 ff ff ff 	add    rsi,0xfffffffffffffff3
    3ad1:	fe 06                	inc    BYTE PTR [rsi]
    3ad3:	48 81 c6 0b 00 00 00 	add    rsi,0xb
    3ada:	e9 d6 ff ff ff       	jmp    0x3ab5
    3adf:	48 ff ce             	dec    rsi
    3ae2:	e9 b2 ff ff ff       	jmp    0x3a99
    3ae7:	48 ff c6             	inc    rsi
    3aea:	8a 06                	mov    al,BYTE PTR [rsi]
    3aec:	84 c0                	test   al,al
    3aee:	0f 84 17 00 00 00    	je     0x3b0b
    3af4:	fe 0e                	dec    BYTE PTR [rsi]
    3af6:	48 81 c6 02 00 00 00 	add    rsi,0x2
    3afd:	fe 06                	inc    BYTE PTR [rsi]
    3aff:	48 81 c6 fe ff ff ff 	add    rsi,0xfffffffffffffffe
    3b06:	e9 df ff ff ff       	jmp    0x3aea
    3b0b:	48 81 c6 f8 ff ff ff 	add    rsi,0xfffffffffffffff8
    3b12:	48 81 c6 fc ff ff ff 	add    rsi,0xfffffffffffffffc
    3b19:	e9 c1 fe ff ff       	jmp    0x39df
    3b1e:	e9 0f fe ff ff       	jmp    0x3932
    3b23:	48 81 c6 09 00 00 00 	add    rsi,0x9
    3b2a:	8a 06                	mov    al,BYTE PTR [rsi]
    3b2c:	84 c0                	test   al,al
    3b2e:	0f 84 38 00 00 00    	je     0x3b6c
    3b34:	48 81 c6 02 00 00 00 	add    rsi,0x2
    3b3b:	8a 06                	mov    al,BYTE PTR [rsi]
    3b3d:	84 c0                	test   al,al
    3b3f:	0f 84 07 00 00 00    	je     0x3b4c
    3b45:	fe 0e                	dec    BYTE PTR [rsi]
    3b47:	e9 ef ff ff ff       	jmp    0x3b3b
    3b4c:	48 ff c6             	inc    rsi
    3b4f:	8a 06                	mov    al,BYTE PTR [rsi]
    3b51:	84 c0                	test   al,al
    3b53:	0f 84 07 00 00 00    	je     0x3b60
    3b59:	fe 0e                	dec    BYTE PTR [rsi]
    3b5b:	e9 ef ff ff ff       	jmp    0x3b4f
    3b60:	48 81 c6 06 00 00 00 	add    rsi,0x6
    3b67:	e9 be ff ff ff       	jmp    0x3b2a
    3b6c:	48 81 c6 f7 ff ff ff 	add    rsi,0xfffffffffffffff7
    3b73:	8a 06                	mov    al,BYTE PTR [rsi]
    3b75:	84 c0                	test   al,al
    3b77:	0f 84 0c 00 00 00    	je     0x3b89
    3b7d:	48 81 c6 f7 ff ff ff 	add    rsi,0xfffffffffffffff7
    3b84:	e9 ea ff ff ff       	jmp    0x3b73
    3b89:	48 81 c6 03 00 00 00 	add    rsi,0x3
    3b90:	8a 06                	mov    al,BYTE PTR [rsi]
    3b92:	84 c0                	test   al,al
    3b94:	0f 84 07 00 00 00    	je     0x3ba1
    3b9a:	fe 0e                	dec    BYTE PTR [rsi]
    3b9c:	e9 ef ff ff ff       	jmp    0x3b90
    3ba1:	48 ff c6             	inc    rsi
    3ba4:	8a 06                	mov    al,BYTE PTR [rsi]
    3ba6:	84 c0                	test   al,al
    3ba8:	0f 84 07 00 00 00    	je     0x3bb5
    3bae:	fe 0e                	dec    BYTE PTR [rsi]
    3bb0:	e9 ef ff ff ff       	jmp    0x3ba4
    3bb5:	48 81 c6 05 00 00 00 	add    rsi,0x5
    3bbc:	8a 06                	mov    al,BYTE PTR [rsi]
    3bbe:	84 c0                	test   al,al
    3bc0:	0f 84 61 00 00 00    	je     0x3c27
    3bc6:	48 81 c6 05 00 00 00 	add    rsi,0x5
    3bcd:	8a 06                	mov    al,BYTE PTR [rsi]
    3bcf:	84 c0                	test   al,al
    3bd1:	0f 84 17 00 00 00    	je     0x3bee
    3bd7:	fe 0e                	dec    BYTE PTR [rsi]
    3bd9:	48 81 c6 fc ff ff ff 	add    rsi,0xfffffffffffffffc
    3be0:	fe 06                	inc    BYTE PTR [rsi]
    3be2:	48 81 c6 04 00 00 00 	add    rsi,0x4
    3be9:	e9 df ff ff ff       	jmp    0x3bcd
    3bee:	48 81 c6 fc ff ff ff 	add    rsi,0xfffffffffffffffc
    3bf5:	8a 06                	mov    al,BYTE PTR [rsi]
    3bf7:	84 c0                	test   al,al
    3bf9:	0f 84 1c 00 00 00    	je     0x3c1b
    3bff:	fe 0e                	dec    BYTE PTR [rsi]
    3c01:	48 81 c6 04 00 00 00 	add    rsi,0x4
    3c08:	fe 06                	inc    BYTE PTR [rsi]
    3c0a:	48 81 c6 fd ff ff ff 	add    rsi,0xfffffffffffffffd
    3c11:	fe 06                	inc    BYTE PTR [rsi]
    3c13:	48 ff ce             	dec    rsi
    3c16:	e9 da ff ff ff       	jmp    0x3bf5
    3c1b:	48 81 c6 08 00 00 00 	add    rsi,0x8
    3c22:	e9 95 ff ff ff       	jmp    0x3bbc
    3c27:	48 81 c6 f7 ff ff ff 	add    rsi,0xfffffffffffffff7
    3c2e:	8a 06                	mov    al,BYTE PTR [rsi]
    3c30:	84 c0                	test   al,al
    3c32:	0f 84 0c 00 00 00    	je     0x3c44
    3c38:	48 81 c6 f7 ff ff ff 	add    rsi,0xfffffffffffffff7
    3c3f:	e9 ea ff ff ff       	jmp    0x3c2e
    3c44:	48 81 c6 09 00 00 00 	add    rsi,0x9
    3c4b:	8a 06                	mov    al,BYTE PTR [rsi]
    3c4d:	84 c0                	test   al,al
    3c4f:	0f 84 65 00 00 00    	je     0x3cba
    3c55:	48 81 c6 06 00 00 00 	add    rsi,0x6
    3c5c:	8a 06                	mov    al,BYTE PTR [rsi]
    3c5e:	84 c0                	test   al,al
    3c60:	0f 84 17 00 00 00    	je     0x3c7d
    3c66:	fe 0e                	dec    BYTE PTR [rsi]
    3c68:	48 81 c6 fb ff ff ff 	add    rsi,0xfffffffffffffffb
    3c6f:	fe 06                	inc    BYTE PTR [rsi]
    3c71:	48 81 c6 05 00 00 00 	add    rsi,0x5
    3c78:	e9 df ff ff ff       	jmp    0x3c5c
    3c7d:	48 81 c6 fb ff ff ff 	add    rsi,0xfffffffffffffffb
    3c84:	8a 06                	mov    al,BYTE PTR [rsi]
    3c86:	84 c0                	test   al,al
    3c88:	0f 84 20 00 00 00    	je     0x3cae
    3c8e:	fe 0e                	dec    BYTE PTR [rsi]
    3c90:	48 81 c6 05 00 00 00 	add    rsi,0x5
    3c97:	fe 06                	inc    BYTE PTR [rsi]
    3c99:	48 81 c6 fd ff ff ff 	add    rsi,0xfffffffffffffffd
    3ca0:	fe 06                	inc    BYTE PTR [rsi]
    3ca2:	48 81 c6 fe ff ff ff 	add    rsi,0xfffffffffffffffe
    3ca9:	e9 d6 ff ff ff       	jmp    0x3c84
    3cae:	48 81 c6 08 00 00 00 	add    rsi,0x8
    3cb5:	e9 91 ff ff ff       	jmp    0x3c4b
    3cba:	48 81 c6 f7 ff ff ff 	add    rsi,0xfffffffffffffff7
    3cc1:	8a 06                	mov    al,BYTE PTR [rsi]
    3cc3:	84 c0                	test   al,al
    3cc5:	0f 84 0c 00 00 00    	je     0x3cd7
    3ccb:	48 81 c6 f7 ff ff ff 	add    rsi,0xfffffffffffffff7
    3cd2:	e9 ea ff ff ff       	jmp    0x3cc1
    3cd7:	48 81 c6 09 00 00 00 	add    rsi,0x9
    3cde:	80 06 0f             	add    BYTE PTR [rsi],0xf
    3ce1:	8a 06                	mov    al,BYTE PTR [rsi]
    3ce3:	84 c0                	test   al,al
    3ce5:	0f 84 fe 00 00 00    	je     0x3de9
    3ceb:	8a 06                	mov    al,BYTE PTR [rsi]
    3ced:	84 c0                	test   al,al
    3cef:	0f 84 13 00 00 00    	je     0x3d08
    3cf5:	48 81 c6 04 00 00 00 	add    rsi,0x4
    3cfc:	48 81 c6 05 00 00 00 	add    rsi,0x5
    3d03:	e9 e3 ff ff ff       	jmp    0x3ceb
    3d08:	fe 06                	inc    BYTE PTR [rsi]
    3d0a:	48 ff c6             	inc    rsi
    3d0d:	8a 06                	mov    al,BYTE PTR [rsi]
    3d0f:	84 c0                	test   al,al
    3d11:	0f 84 07 00 00 00    	je     0x3d1e
    3d17:	fe 0e                	dec    BYTE PTR [rsi]
    3d19:	e9 ef ff ff ff       	jmp    0x3d0d
    3d1e:	48 ff c6             	inc    rsi
    3d21:	8a 06                	mov    al,BYTE PTR [rsi]
    3d23:	84 c0                	test   al,al
    3d25:	0f 84 07 00 00 00    	je     0x3d32
    3d2b:	fe 0e                	dec    BYTE PTR [rsi]
    3d2d:	e9 ef ff ff ff       	jmp    0x3d21
    3d32:	48 ff c6             	inc    rsi
    3d35:	8a 06                	mov    al,BYTE PTR [rsi]
    3d37:	84 c0                	test   al,al
    3d39:	0f 84 07 00 00 00    	je     0x3d46
    3d3f:	fe 0e                	dec    BYTE PTR [rsi]
    3d41:	e9 ef ff ff ff       	jmp    0x3d35
    3d46:	48 ff c6             	inc    rsi
    3d49:	8a 06                	mov    al,BYTE PTR [rsi]
    3d4b:	84 c0                	test   al,al
    3d4d:	0f 84 07 00 00 00    	je     0x3d5a
    3d53:	fe 0e                	dec    BYTE PTR [rsi]
    3d55:	e9 ef ff ff ff       	jmp    0x3d49
    3d5a:	48 ff c6             	inc    rsi
    3d5d:	8a 06                	mov    al,BYTE PTR [rsi]
    3d5f:	84 c0                	test   al,al
    3d61:	0f 84 07 00 00 00    	je     0x3d6e
    3d67:	fe 0e                	dec    BYTE PTR [rsi]
    3d69:	e9 ef ff ff ff       	jmp    0x3d5d
    3d6e:	48 ff c6             	inc    rsi
    3d71:	8a 06                	mov    al,BYTE PTR [rsi]
    3d73:	84 c0                	test   al,al
    3d75:	0f 84 07 00 00 00    	je     0x3d82
    3d7b:	fe 0e                	dec    BYTE PTR [rsi]
    3d7d:	e9 ef ff ff ff       	jmp    0x3d71
    3d82:	48 ff c6             	inc    rsi
    3d85:	8a 06                	mov    al,BYTE PTR [rsi]
    3d87:	84 c0                	test   al,al
    3d89:	0f 84 07 00 00 00    	je     0x3d96
    3d8f:	fe 0e                	dec    BYTE PTR [rsi]
    3d91:	e9 ef ff ff ff       	jmp    0x3d85
    3d96:	48 ff c6             	inc    rsi
    3d99:	8a 06                	mov    al,BYTE PTR [rsi]
    3d9b:	84 c0                	test   al,al
    3d9d:	0f 84 07 00 00 00    	je     0x3daa
    3da3:	fe 0e                	dec    BYTE PTR [rsi]
    3da5:	e9 ef ff ff ff       	jmp    0x3d99
    3daa:	48 ff c6             	inc    rsi
    3dad:	8a 06                	mov    al,BYTE PTR [rsi]
    3daf:	84 c0                	test   al,al
    3db1:	0f 84 07 00 00 00    	je     0x3dbe
    3db7:	fe 0e                	dec    BYTE PTR [rsi]
    3db9:	e9 ef ff ff ff       	jmp    0x3dad
    3dbe:	48 81 c6 f7 ff ff ff 	add    rsi,0xfffffffffffffff7
    3dc5:	8a 06                	mov    al,BYTE PTR [rsi]
    3dc7:	84 c0                	test   al,al
    3dc9:	0f 84 0c 00 00 00    	je     0x3ddb
    3dcf:	48 81 c6 f7 ff ff ff 	add    rsi,0xfffffffffffffff7
    3dd6:	e9 ea ff ff ff       	jmp    0x3dc5
    3ddb:	48 81 c6 09 00 00 00 	add    rsi,0x9
    3de2:	fe 0e                	dec    BYTE PTR [rsi]
    3de4:	e9 f8 fe ff ff       	jmp    0x3ce1
    3de9:	fe 06                	inc    BYTE PTR [rsi]
    3deb:	8a 06                	mov    al,BYTE PTR [rsi]
    3ded:	84 c0                	test   al,al
    3def:	0f 84 18 00 00 00    	je     0x3e0d
    3df5:	48 ff c6             	inc    rsi
    3df8:	fe 06                	inc    BYTE PTR [rsi]
    3dfa:	48 81 c6 02 00 00 00 	add    rsi,0x2
    3e01:	48 81 c6 06 00 00 00 	add    rsi,0x6
    3e08:	e9 de ff ff ff       	jmp    0x3deb
    3e0d:	48 81 c6 f7 ff ff ff 	add    rsi,0xfffffffffffffff7
    3e14:	8a 06                	mov    al,BYTE PTR [rsi]
    3e16:	84 c0                	test   al,al
    3e18:	0f 84 0c 00 00 00    	je     0x3e2a
    3e1e:	48 81 c6 f7 ff ff ff 	add    rsi,0xfffffffffffffff7
    3e25:	e9 ea ff ff ff       	jmp    0x3e14
    3e2a:	48 81 c6 09 00 00 00 	add    rsi,0x9
    3e31:	8a 06                	mov    al,BYTE PTR [rsi]
    3e33:	84 c0                	test   al,al
    3e35:	0f 84 78 01 00 00    	je     0x3fb3
    3e3b:	48 ff c6             	inc    rsi
    3e3e:	fe 0e                	dec    BYTE PTR [rsi]
    3e40:	48 81 c6 04 00 00 00 	add    rsi,0x4
    3e47:	8a 06                	mov    al,BYTE PTR [rsi]
    3e49:	84 c0                	test   al,al
    3e4b:	0f 84 17 00 00 00    	je     0x3e68
    3e51:	fe 0e                	dec    BYTE PTR [rsi]
    3e53:	48 81 c6 fc ff ff ff 	add    rsi,0xfffffffffffffffc
    3e5a:	fe 06                	inc    BYTE PTR [rsi]
    3e5c:	48 81 c6 04 00 00 00 	add    rsi,0x4
    3e63:	e9 df ff ff ff       	jmp    0x3e47
    3e68:	48 81 c6 fc ff ff ff 	add    rsi,0xfffffffffffffffc
    3e6f:	8a 06                	mov    al,BYTE PTR [rsi]
    3e71:	84 c0                	test   al,al
    3e73:	0f 84 a7 00 00 00    	je     0x3f20
    3e79:	fe 0e                	dec    BYTE PTR [rsi]
    3e7b:	48 81 c6 04 00 00 00 	add    rsi,0x4
    3e82:	fe 06                	inc    BYTE PTR [rsi]
    3e84:	48 81 c6 fb ff ff ff 	add    rsi,0xfffffffffffffffb
    3e8b:	8a 06                	mov    al,BYTE PTR [rsi]
    3e8d:	84 c0                	test   al,al
    3e8f:	0f 84 69 00 00 00    	je     0x3efe
    3e95:	fe 0e                	dec    BYTE PTR [rsi]
    3e97:	48 81 c6 02 00 00 00 	add    rsi,0x2
    3e9e:	8a 06                	mov    al,BYTE PTR [rsi]
    3ea0:	84 c0                	test   al,al
    3ea2:	0f 84 17 00 00 00    	je     0x3ebf
    3ea8:	fe 0e                	dec    BYTE PTR [rsi]
    3eaa:	48 81 c6 fe ff ff ff 	add    rsi,0xfffffffffffffffe
    3eb1:	fe 06                	inc    BYTE PTR [rsi]
    3eb3:	48 81 c6 02 00 00 00 	add    rsi,0x2
    3eba:	e9 df ff ff ff       	jmp    0x3e9e
    3ebf:	48 81 c6 fe ff ff ff 	add    rsi,0xfffffffffffffffe
    3ec6:	8a 06                	mov    al,BYTE PTR [rsi]
    3ec8:	84 c0                	test   al,al
    3eca:	0f 84 20 00 00 00    	je     0x3ef0
    3ed0:	fe 0e                	dec    BYTE PTR [rsi]
    3ed2:	48 81 c6 02 00 00 00 	add    rsi,0x2
    3ed9:	fe 06                	inc    BYTE PTR [rsi]
    3edb:	48 81 c6 02 00 00 00 	add    rsi,0x2
    3ee2:	fe 06                	inc    BYTE PTR [rsi]
    3ee4:	48 81 c6 fc ff ff ff 	add    rsi,0xfffffffffffffffc
    3eeb:	e9 d6 ff ff ff       	jmp    0x3ec6
    3ef0:	fe 06                	inc    BYTE PTR [rsi]
    3ef2:	48 81 c6 09 00 00 00 	add    rsi,0x9
    3ef9:	e9 8d ff ff ff       	jmp    0x3e8b
    3efe:	48 81 c6 f8 ff ff ff 	add    rsi,0xfffffffffffffff8
    3f05:	8a 06                	mov    al,BYTE PTR [rsi]
    3f07:	84 c0                	test   al,al
    3f09:	0f 84 0c 00 00 00    	je     0x3f1b
    3f0f:	48 81 c6 f7 ff ff ff 	add    rsi,0xfffffffffffffff7
    3f16:	e9 ea ff ff ff       	jmp    0x3f05
    3f1b:	e9 4f ff ff ff       	jmp    0x3e6f
    3f20:	48 81 c6 09 00 00 00 	add    rsi,0x9
    3f27:	8a 06                	mov    al,BYTE PTR [rsi]
    3f29:	84 c0                	test   al,al
    3f2b:	0f 84 0c 00 00 00    	je     0x3f3d
    3f31:	48 81 c6 09 00 00 00 	add    rsi,0x9
    3f38:	e9 ea ff ff ff       	jmp    0x3f27
    3f3d:	48 81 c6 f7 ff ff ff 	add    rsi,0xfffffffffffffff7
    3f44:	8a 06                	mov    al,BYTE PTR [rsi]
    3f46:	84 c0                	test   al,al
    3f48:	0f 84 30 00 00 00    	je     0x3f7e
    3f4e:	48 ff c6             	inc    rsi
    3f51:	8a 06                	mov    al,BYTE PTR [rsi]
    3f53:	84 c0                	test   al,al
    3f55:	0f 84 17 00 00 00    	je     0x3f72
    3f5b:	fe 0e                	dec    BYTE PTR [rsi]
    3f5d:	48 81 c6 09 00 00 00 	add    rsi,0x9
    3f64:	fe 06                	inc    BYTE PTR [rsi]
    3f66:	48 81 c6 f7 ff ff ff 	add    rsi,0xfffffffffffffff7
    3f6d:	e9 df ff ff ff       	jmp    0x3f51
    3f72:	48 81 c6 f6 ff ff ff 	add    rsi,0xfffffffffffffff6
    3f79:	e9 c6 ff ff ff       	jmp    0x3f44
    3f7e:	48 ff c6             	inc    rsi
    3f81:	8a 06                	mov    al,BYTE PTR [rsi]
    3f83:	84 c0                	test   al,al
    3f85:	0f 84 17 00 00 00    	je     0x3fa2
    3f8b:	fe 0e                	dec    BYTE PTR [rsi]
    3f8d:	48 81 c6 09 00 00 00 	add    rsi,0x9
    3f94:	fe 06                	inc    BYTE PTR [rsi]
    3f96:	48 81 c6 f7 ff ff ff 	add    rsi,0xfffffffffffffff7
    3f9d:	e9 df ff ff ff       	jmp    0x3f81
    3fa2:	48 ff ce             	dec    rsi
    3fa5:	fe 06                	inc    BYTE PTR [rsi]
    3fa7:	48 81 c6 08 00 00 00 	add    rsi,0x8
    3fae:	e9 7e fe ff ff       	jmp    0x3e31
    3fb3:	48 81 c6 f7 ff ff ff 	add    rsi,0xfffffffffffffff7
    3fba:	8a 06                	mov    al,BYTE PTR [rsi]
    3fbc:	84 c0                	test   al,al
    3fbe:	0f 84 c2 00 00 00    	je     0x4086
    3fc4:	48 ff c6             	inc    rsi
    3fc7:	8a 06                	mov    al,BYTE PTR [rsi]
    3fc9:	84 c0                	test   al,al
    3fcb:	0f 84 07 00 00 00    	je     0x3fd8
    3fd1:	fe 0e                	dec    BYTE PTR [rsi]
    3fd3:	e9 ef ff ff ff       	jmp    0x3fc7
    3fd8:	48 ff ce             	dec    rsi
    3fdb:	fe 0e                	dec    BYTE PTR [rsi]
    3fdd:	48 81 c6 04 00 00 00 	add    rsi,0x4
    3fe4:	8a 06                	mov    al,BYTE PTR [rsi]
    3fe6:	84 c0                	test   al,al
    3fe8:	0f 84 5f 00 00 00    	je     0x404d
    3fee:	fe 0e                	dec    BYTE PTR [rsi]
    3ff0:	48 81 c6 fc ff ff ff 	add    rsi,0xfffffffffffffffc
    3ff7:	fe 06                	inc    BYTE PTR [rsi]
    3ff9:	48 ff c6             	inc    rsi
    3ffc:	8a 06                	mov    al,BYTE PTR [rsi]
    3ffe:	84 c0                	test   al,al
    4000:	0f 84 1f 00 00 00    	je     0x4025
    4006:	48 ff ce             	dec    rsi
    4009:	fe 0e                	dec    BYTE PTR [rsi]
    400b:	48 ff c6             	inc    rsi
    400e:	fe 0e                	dec    BYTE PTR [rsi]
    4010:	48 81 c6 fa ff ff ff 	add    rsi,0xfffffffffffffffa
    4017:	fe 06                	inc    BYTE PTR [rsi]
    4019:	48 81 c6 06 00 00 00 	add    rsi,0x6
    4020:	e9 d7 ff ff ff       	jmp    0x3ffc
    4025:	48 ff ce             	dec    rsi
    4028:	8a 06                	mov    al,BYTE PTR [rsi]
    402a:	84 c0                	test   al,al
    402c:	0f 84 0f 00 00 00    	je     0x4041
    4032:	fe 0e                	dec    BYTE PTR [rsi]
    4034:	48 ff c6             	inc    rsi
    4037:	fe 06                	inc    BYTE PTR [rsi]
    4039:	48 ff ce             	dec    rsi
    403c:	e9 e7 ff ff ff       	jmp    0x4028
    4041:	48 81 c6 04 00 00 00 	add    rsi,0x4
    4048:	e9 97 ff ff ff       	jmp    0x3fe4
    404d:	48 81 c6 fd ff ff ff 	add    rsi,0xfffffffffffffffd
    4054:	8a 06                	mov    al,BYTE PTR [rsi]
    4056:	84 c0                	test   al,al
    4058:	0f 84 17 00 00 00    	je     0x4075
    405e:	fe 0e                	dec    BYTE PTR [rsi]
    4060:	48 81 c6 03 00 00 00 	add    rsi,0x3
    4067:	fe 06                	inc    BYTE PTR [rsi]
    4069:	48 81 c6 fd ff ff ff 	add    rsi,0xfffffffffffffffd
    4070:	e9 df ff ff ff       	jmp    0x4054
    4075:	48 ff ce             	dec    rsi
    4078:	fe 06                	inc    BYTE PTR [rsi]
    407a:	48 81 c6 f7 ff ff ff 	add    rsi,0xfffffffffffffff7
    4081:	e9 34 ff ff ff       	jmp    0x3fba
    4086:	48 81 c6 09 00 00 00 	add    rsi,0x9
    408d:	8a 06                	mov    al,BYTE PTR [rsi]
    408f:	84 c0                	test   al,al
    4091:	0f 84 11 00 00 00    	je     0x40a8
    4097:	48 ff c6             	inc    rsi
    409a:	fe 06                	inc    BYTE PTR [rsi]
    409c:	48 81 c6 08 00 00 00 	add    rsi,0x8
    40a3:	e9 e5 ff ff ff       	jmp    0x408d
    40a8:	48 81 c6 f7 ff ff ff 	add    rsi,0xfffffffffffffff7
    40af:	8a 06                	mov    al,BYTE PTR [rsi]
    40b1:	84 c0                	test   al,al
    40b3:	0f 84 0c 00 00 00    	je     0x40c5
    40b9:	48 81 c6 f7 ff ff ff 	add    rsi,0xfffffffffffffff7
    40c0:	e9 ea ff ff ff       	jmp    0x40af
    40c5:	48 81 c6 09 00 00 00 	add    rsi,0x9
    40cc:	8a 06                	mov    al,BYTE PTR [rsi]
    40ce:	84 c0                	test   al,al
    40d0:	0f 84 95 01 00 00    	je     0x426b
    40d6:	48 ff c6             	inc    rsi
    40d9:	fe 0e                	dec    BYTE PTR [rsi]
    40db:	48 81 c6 05 00 00 00 	add    rsi,0x5
    40e2:	8a 06                	mov    al,BYTE PTR [rsi]
    40e4:	84 c0                	test   al,al
    40e6:	0f 84 17 00 00 00    	je     0x4103
    40ec:	fe 0e                	dec    BYTE PTR [rsi]
    40ee:	48 81 c6 fb ff ff ff 	add    rsi,0xfffffffffffffffb
    40f5:	fe 06                	inc    BYTE PTR [rsi]
    40f7:	48 81 c6 05 00 00 00 	add    rsi,0x5
    40fe:	e9 df ff ff ff       	jmp    0x40e2
    4103:	48 81 c6 fb ff ff ff 	add    rsi,0xfffffffffffffffb
    410a:	8a 06                	mov    al,BYTE PTR [rsi]
    410c:	84 c0                	test   al,al
    410e:	0f 84 aa 00 00 00    	je     0x41be
    4114:	fe 0e                	dec    BYTE PTR [rsi]
    4116:	48 81 c6 05 00 00 00 	add    rsi,0x5
    411d:	fe 06                	inc    BYTE PTR [rsi]
    411f:	48 81 c6 fc ff ff ff 	add    rsi,0xfffffffffffffffc
    4126:	48 81 c6 fe ff ff ff 	add    rsi,0xfffffffffffffffe
    412d:	8a 06                	mov    al,BYTE PTR [rsi]
    412f:	84 c0                	test   al,al
    4131:	0f 84 65 00 00 00    	je     0x419c
    4137:	fe 0e                	dec    BYTE PTR [rsi]
    4139:	48 81 c6 03 00 00 00 	add    rsi,0x3
    4140:	8a 06                	mov    al,BYTE PTR [rsi]
    4142:	84 c0                	test   al,al
    4144:	0f 84 17 00 00 00    	je     0x4161
    414a:	fe 0e                	dec    BYTE PTR [rsi]
    414c:	48 81 c6 fd ff ff ff 	add    rsi,0xfffffffffffffffd
    4153:	fe 06                	inc    BYTE PTR [rsi]
    4155:	48 81 c6 03 00 00 00 	add    rsi,0x3
    415c:	e9 df ff ff ff       	jmp    0x4140
    4161:	48 81 c6 fd ff ff ff 	add    rsi,0xfffffffffffffffd
    4168:	8a 06                	mov    al,BYTE PTR [rsi]
    416a:	84 c0                	test   al,al
    416c:	0f 84 1c 00 00 00    	je     0x418e
    4172:	fe 0e                	dec    BYTE PTR [rsi]
    4174:	48 81 c6 03 00 00 00 	add    rsi,0x3
    417b:	fe 06                	inc    BYTE PTR [rsi]
    417d:	48 ff c6             	inc    rsi
    4180:	fe 06                	inc    BYTE PTR [rsi]
    4182:	48 81 c6 fc ff ff ff 	add    rsi,0xfffffffffffffffc
    4189:	e9 da ff ff ff       	jmp    0x4168
    418e:	fe 06                	inc    BYTE PTR [rsi]
    4190:	48 81 c6 09 00 00 00 	add    rsi,0x9
    4197:	e9 91 ff ff ff       	jmp    0x412d
    419c:	48 81 c6 f8 ff ff ff 	add    rsi,0xfffffffffffffff8
    41a3:	8a 06                	mov    al,BYTE PTR [rsi]
    41a5:	84 c0                	test   al,al
    41a7:	0f 84 0c 00 00 00    	je     0x41b9
    41ad:	48 81 c6 f7 ff ff ff 	add    rsi,0xfffffffffffffff7
    41b4:	e9 ea ff ff ff       	jmp    0x41a3
    41b9:	e9 4c ff ff ff       	jmp    0x410a
    41be:	48 81 c6 09 00 00 00 	add    rsi,0x9
    41c5:	8a 06                	mov    al,BYTE PTR [rsi]
    41c7:	84 c0                	test   al,al
    41c9:	0f 84 13 00 00 00    	je     0x41e2
    41cf:	48 81 c6 06 00 00 00 	add    rsi,0x6
    41d6:	48 81 c6 03 00 00 00 	add    rsi,0x3
    41dd:	e9 e3 ff ff ff       	jmp    0x41c5
    41e2:	48 81 c6 f7 ff ff ff 	add    rsi,0xfffffffffffffff7
    41e9:	8a 06                	mov    al,BYTE PTR [rsi]
    41eb:	84 c0                	test   al,al
    41ed:	0f 84 34 00 00 00    	je     0x4227
    41f3:	48 81 c6 02 00 00 00 	add    rsi,0x2
    41fa:	8a 06                	mov    al,BYTE PTR [rsi]
    41fc:	84 c0                	test   al,al
    41fe:	0f 84 17 00 00 00    	je     0x421b
    4204:	fe 0e                	dec    BYTE PTR [rsi]
    4206:	48 81 c6 09 00 00 00 	add    rsi,0x9
    420d:	fe 06                	inc    BYTE PTR [rsi]
    420f:	48 81 c6 f7 ff ff ff 	add    rsi,0xfffffffffffffff7
    4216:	e9 df ff ff ff       	jmp    0x41fa
    421b:	48 81 c6 f5 ff ff ff 	add    rsi,0xfffffffffffffff5
    4222:	e9 c2 ff ff ff       	jmp    0x41e9
    4227:	48 81 c6 02 00 00 00 	add    rsi,0x2
    422e:	8a 06                	mov    al,BYTE PTR [rsi]
    4230:	84 c0                	test   al,al
    4232:	0f 84 17 00 00 00    	je     0x424f
    4238:	fe 0e                	dec    BYTE PTR [rsi]
    423a:	48 81 c6 09 00 00 00 	add    rsi,0x9
    4241:	fe 06                	inc    BYTE PTR [rsi]
    4243:	48 81 c6 f7 ff ff ff 	add    rsi,0xfffffffffffffff7
    424a:	e9 df ff ff ff       	jmp    0x422e
    424f:	48 81 c6 fe ff ff ff 	add    rsi,0xfffffffffffffffe
    4256:	fe 06                	inc    BYTE PTR [rsi]
    4258:	48 81 c6 03 00 00 00 	add    rsi,0x3
    425f:	48 81 c6 05 00 00 00 	add    rsi,0x5
    4266:	e9 61 fe ff ff       	jmp    0x40cc
    426b:	48 81 c6 f7 ff ff ff 	add    rsi,0xfffffffffffffff7
    4272:	8a 06                	mov    al,BYTE PTR [rsi]
    4274:	84 c0                	test   al,al
    4276:	0f 84 c2 00 00 00    	je     0x433e
    427c:	48 ff c6             	inc    rsi
    427f:	8a 06                	mov    al,BYTE PTR [rsi]
    4281:	84 c0                	test   al,al
    4283:	0f 84 07 00 00 00    	je     0x4290
    4289:	fe 0e                	dec    BYTE PTR [rsi]
    428b:	e9 ef ff ff ff       	jmp    0x427f
    4290:	48 ff ce             	dec    rsi
    4293:	fe 0e                	dec    BYTE PTR [rsi]
    4295:	48 81 c6 04 00 00 00 	add    rsi,0x4
    429c:	8a 06                	mov    al,BYTE PTR [rsi]
    429e:	84 c0                	test   al,al
    42a0:	0f 84 5f 00 00 00    	je     0x4305
    42a6:	fe 0e                	dec    BYTE PTR [rsi]
    42a8:	48 81 c6 fc ff ff ff 	add    rsi,0xfffffffffffffffc
    42af:	fe 06                	inc    BYTE PTR [rsi]
    42b1:	48 ff c6             	inc    rsi
    42b4:	8a 06                	mov    al,BYTE PTR [rsi]
    42b6:	84 c0                	test   al,al
    42b8:	0f 84 1f 00 00 00    	je     0x42dd
    42be:	48 ff ce             	dec    rsi
    42c1:	fe 0e                	dec    BYTE PTR [rsi]
    42c3:	48 ff c6             	inc    rsi
    42c6:	fe 0e                	dec    BYTE PTR [rsi]
    42c8:	48 81 c6 fa ff ff ff 	add    rsi,0xfffffffffffffffa
    42cf:	fe 06                	inc    BYTE PTR [rsi]
    42d1:	48 81 c6 06 00 00 00 	add    rsi,0x6
    42d8:	e9 d7 ff ff ff       	jmp    0x42b4
    42dd:	48 ff ce             	dec    rsi
    42e0:	8a 06                	mov    al,BYTE PTR [rsi]
    42e2:	84 c0                	test   al,al
    42e4:	0f 84 0f 00 00 00    	je     0x42f9
    42ea:	fe 0e                	dec    BYTE PTR [rsi]
    42ec:	48 ff c6             	inc    rsi
    42ef:	fe 06                	inc    BYTE PTR [rsi]
    42f1:	48 ff ce             	dec    rsi
    42f4:	e9 e7 ff ff ff       	jmp    0x42e0
    42f9:	48 81 c6 04 00 00 00 	add    rsi,0x4
    4300:	e9 97 ff ff ff       	jmp    0x429c
    4305:	48 81 c6 fd ff ff ff 	add    rsi,0xfffffffffffffffd
    430c:	8a 06                	mov    al,BYTE PTR [rsi]
    430e:	84 c0                	test   al,al
    4310:	0f 84 17 00 00 00    	je     0x432d
    4316:	fe 0e                	dec    BYTE PTR [rsi]
    4318:	48 81 c6 03 00 00 00 	add    rsi,0x3
    431f:	fe 06                	inc    BYTE PTR [rsi]
    4321:	48 81 c6 fd ff ff ff 	add    rsi,0xfffffffffffffffd
    4328:	e9 df ff ff ff       	jmp    0x430c
    432d:	48 ff ce             	dec    rsi
    4330:	fe 06                	inc    BYTE PTR [rsi]
    4332:	48 81 c6 f7 ff ff ff 	add    rsi,0xfffffffffffffff7
    4339:	e9 34 ff ff ff       	jmp    0x4272
    433e:	48 81 c6 09 00 00 00 	add    rsi,0x9
    4345:	8a 06                	mov    al,BYTE PTR [rsi]
    4347:	84 c0                	test   al,al
    4349:	0f 84 3b 00 00 00    	je     0x438a
    434f:	48 81 c6 04 00 00 00 	add    rsi,0x4
    4356:	8a 06                	mov    al,BYTE PTR [rsi]
    4358:	84 c0                	test   al,al
    435a:	0f 84 1e 00 00 00    	je     0x437e
    4360:	fe 0e                	dec    BYTE PTR [rsi]
    4362:	48 81 c6 dc ff ff ff 	add    rsi,0xffffffffffffffdc
    4369:	fe 06                	inc    BYTE PTR [rsi]
    436b:	48 81 c6 11 00 00 00 	add    rsi,0x11
    4372:	48 81 c6 13 00 00 00 	add    rsi,0x13
    4379:	e9 d8 ff ff ff       	jmp    0x4356
    437e:	48 81 c6 05 00 00 00 	add    rsi,0x5
    4385:	e9 bb ff ff ff       	jmp    0x4345
    438a:	48 81 c6 f7 ff ff ff 	add    rsi,0xfffffffffffffff7
    4391:	8a 06                	mov    al,BYTE PTR [rsi]
    4393:	84 c0                	test   al,al
    4395:	0f 84 0c 00 00 00    	je     0x43a7
    439b:	48 81 c6 f7 ff ff ff 	add    rsi,0xfffffffffffffff7
    43a2:	e9 ea ff ff ff       	jmp    0x4391
    43a7:	48 81 c6 09 00 00 00 	add    rsi,0x9
    43ae:	80 06 0f             	add    BYTE PTR [rsi],0xf
    43b1:	8a 06                	mov    al,BYTE PTR [rsi]
    43b3:	84 c0                	test   al,al
    43b5:	0f 84 4d 00 00 00    	je     0x4408
    43bb:	8a 06                	mov    al,BYTE PTR [rsi]
    43bd:	84 c0                	test   al,al
    43bf:	0f 84 0f 00 00 00    	je     0x43d4
    43c5:	48 81 c6 08 00 00 00 	add    rsi,0x8
    43cc:	48 ff c6             	inc    rsi
    43cf:	e9 e7 ff ff ff       	jmp    0x43bb
    43d4:	48 81 c6 f7 ff ff ff 	add    rsi,0xfffffffffffffff7
    43db:	fe 0e                	dec    BYTE PTR [rsi]
    43dd:	48 81 c6 f7 ff ff ff 	add    rsi,0xfffffffffffffff7
    43e4:	8a 06                	mov    al,BYTE PTR [rsi]
    43e6:	84 c0                	test   al,al
    43e8:	0f 84 0c 00 00 00    	je     0x43fa
    43ee:	48 81 c6 f7 ff ff ff 	add    rsi,0xfffffffffffffff7
    43f5:	e9 ea ff ff ff       	jmp    0x43e4
    43fa:	48 81 c6 09 00 00 00 	add    rsi,0x9
    4401:	fe 0e                	dec    BYTE PTR [rsi]
    4403:	e9 a9 ff ff ff       	jmp    0x43b1
    4408:	fe 06                	inc    BYTE PTR [rsi]
    440a:	48 81 c6 15 00 00 00 	add    rsi,0x15
    4411:	fe 06                	inc    BYTE PTR [rsi]
    4413:	48 81 c6 fd ff ff ff 	add    rsi,0xfffffffffffffffd
    441a:	8a 06                	mov    al,BYTE PTR [rsi]
    441c:	84 c0                	test   al,al
    441e:	0f 84 0c 00 00 00    	je     0x4430
    4424:	48 81 c6 f7 ff ff ff 	add    rsi,0xfffffffffffffff7
    442b:	e9 ea ff ff ff       	jmp    0x441a
    4430:	48 81 c6 09 00 00 00 	add    rsi,0x9
    4437:	8a 06                	mov    al,BYTE PTR [rsi]
    4439:	84 c0                	test   al,al
    443b:	0f 84 33 02 00 00    	je     0x4674
    4441:	48 81 c6 03 00 00 00 	add    rsi,0x3
    4448:	8a 06                	mov    al,BYTE PTR [rsi]
    444a:	84 c0                	test   al,al
    444c:	0f 84 17 00 00 00    	je     0x4469
    4452:	fe 0e                	dec    BYTE PTR [rsi]
    4454:	48 81 c6 fd ff ff ff 	add    rsi,0xfffffffffffffffd
    445b:	fe 0e                	dec    BYTE PTR [rsi]
    445d:	48 81 c6 03 00 00 00 	add    rsi,0x3
    4464:	e9 df ff ff ff       	jmp    0x4448
    4469:	fe 06                	inc    BYTE PTR [rsi]
    446b:	48 81 c6 fd ff ff ff 	add    rsi,0xfffffffffffffffd
    4472:	8a 06                	mov    al,BYTE PTR [rsi]
    4474:	84 c0                	test   al,al
    4476:	0f 84 b1 00 00 00    	je     0x452d
    447c:	fe 0e                	dec    BYTE PTR [rsi]
    447e:	48 81 c6 03 00 00 00 	add    rsi,0x3
    4485:	fe 0e                	dec    BYTE PTR [rsi]
    4487:	48 ff c6             	inc    rsi
    448a:	8a 06                	mov    al,BYTE PTR [rsi]
    448c:	84 c0                	test   al,al
    448e:	0f 84 17 00 00 00    	je     0x44ab
    4494:	fe 0e                	dec    BYTE PTR [rsi]
    4496:	48 81 c6 fc ff ff ff 	add    rsi,0xfffffffffffffffc
    449d:	fe 06                	inc    BYTE PTR [rsi]
    449f:	48 81 c6 04 00 00 00 	add    rsi,0x4
    44a6:	e9 df ff ff ff       	jmp    0x448a
    44ab:	48 81 c6 fc ff ff ff 	add    rsi,0xfffffffffffffffc
    44b2:	8a 06                	mov    al,BYTE PTR [rsi]
    44b4:	84 c0                	test   al,al
    44b6:	0f 84 6c 00 00 00    	je     0x4528
    44bc:	fe 0e                	dec    BYTE PTR [rsi]
    44be:	48 81 c6 04 00 00 00 	add    rsi,0x4
    44c5:	fe 06                	inc    BYTE PTR [rsi]
    44c7:	48 81 c6 f3 ff ff ff 	add    rsi,0xfffffffffffffff3
    44ce:	8a 06                	mov    al,BYTE PTR [rsi]
    44d0:	84 c0                	test   al,al
    44d2:	0f 84 0c 00 00 00    	je     0x44e4
    44d8:	48 81 c6 f7 ff ff ff 	add    rsi,0xfffffffffffffff7
    44df:	e9 ea ff ff ff       	jmp    0x44ce
    44e4:	48 81 c6 04 00 00 00 	add    rsi,0x4
    44eb:	8a 06                	mov    al,BYTE PTR [rsi]
    44ed:	84 c0                	test   al,al
    44ef:	0f 84 07 00 00 00    	je     0x44fc
    44f5:	fe 0e                	dec    BYTE PTR [rsi]
    44f7:	e9 ef ff ff ff       	jmp    0x44eb
    44fc:	fe 06                	inc    BYTE PTR [rsi]
    44fe:	48 81 c6 05 00 00 00 	add    rsi,0x5
    4505:	8a 06                	mov    al,BYTE PTR [rsi]
    4507:	84 c0                	test   al,al
    4509:	0f 84 0c 00 00 00    	je     0x451b
    450f:	48 81 c6 09 00 00 00 	add    rsi,0x9
    4516:	e9 ea ff ff ff       	jmp    0x4505
    451b:	48 ff c6             	inc    rsi
    451e:	fe 06                	inc    BYTE PTR [rsi]
    4520:	48 ff ce             	dec    rsi
    4523:	e9 8a ff ff ff       	jmp    0x44b2
    4528:	e9 45 ff ff ff       	jmp    0x4472
    452d:	fe 06                	inc    BYTE PTR [rsi]
    452f:	48 81 c6 04 00 00 00 	add    rsi,0x4
    4536:	8a 06                	mov    al,BYTE PTR [rsi]
    4538:	84 c0                	test   al,al
    453a:	0f 84 17 00 00 00    	je     0x4557
    4540:	fe 0e                	dec    BYTE PTR [rsi]
    4542:	48 81 c6 fc ff ff ff 	add    rsi,0xfffffffffffffffc
    4549:	fe 0e                	dec    BYTE PTR [rsi]
    454b:	48 81 c6 04 00 00 00 	add    rsi,0x4
    4552:	e9 df ff ff ff       	jmp    0x4536
    4557:	fe 06                	inc    BYTE PTR [rsi]
    4559:	48 81 c6 fc ff ff ff 	add    rsi,0xfffffffffffffffc
    4560:	8a 06                	mov    al,BYTE PTR [rsi]
    4562:	84 c0                	test   al,al
    4564:	0f 84 c5 00 00 00    	je     0x462f
    456a:	fe 0e                	dec    BYTE PTR [rsi]
    456c:	48 81 c6 04 00 00 00 	add    rsi,0x4
    4573:	fe 0e                	dec    BYTE PTR [rsi]
    4575:	48 ff ce             	dec    rsi
    4578:	8a 06                	mov    al,BYTE PTR [rsi]
    457a:	84 c0                	test   al,al
    457c:	0f 84 17 00 00 00    	je     0x4599
    4582:	fe 0e                	dec    BYTE PTR [rsi]
    4584:	48 81 c6 fd ff ff ff 	add    rsi,0xfffffffffffffffd
    458b:	fe 06                	inc    BYTE PTR [rsi]
    458d:	48 81 c6 03 00 00 00 	add    rsi,0x3
    4594:	e9 df ff ff ff       	jmp    0x4578
    4599:	48 81 c6 fd ff ff ff 	add    rsi,0xfffffffffffffffd
    45a0:	8a 06                	mov    al,BYTE PTR [rsi]
    45a2:	84 c0                	test   al,al
    45a4:	0f 84 80 00 00 00    	je     0x462a
    45aa:	fe 0e                	dec    BYTE PTR [rsi]
    45ac:	48 81 c6 03 00 00 00 	add    rsi,0x3
    45b3:	fe 06                	inc    BYTE PTR [rsi]
    45b5:	48 ff ce             	dec    rsi
    45b8:	48 81 c6 f5 ff ff ff 	add    rsi,0xfffffffffffffff5
    45bf:	8a 06                	mov    al,BYTE PTR [rsi]
    45c1:	84 c0                	test   al,al
    45c3:	0f 84 0c 00 00 00    	je     0x45d5
    45c9:	48 81 c6 f7 ff ff ff 	add    rsi,0xfffffffffffffff7
    45d0:	e9 ea ff ff ff       	jmp    0x45bf
    45d5:	48 81 c6 03 00 00 00 	add    rsi,0x3
    45dc:	8a 06                	mov    al,BYTE PTR [rsi]
    45de:	84 c0                	test   al,al
    45e0:	0f 84 07 00 00 00    	je     0x45ed
    45e6:	fe 0e                	dec    BYTE PTR [rsi]
    45e8:	e9 ef ff ff ff       	jmp    0x45dc
    45ed:	fe 06                	inc    BYTE PTR [rsi]
    45ef:	48 81 c6 06 00 00 00 	add    rsi,0x6
    45f6:	8a 06                	mov    al,BYTE PTR [rsi]
    45f8:	84 c0                	test   al,al
    45fa:	0f 84 0c 00 00 00    	je     0x460c
    4600:	48 81 c6 09 00 00 00 	add    rsi,0x9
    4607:	e9 ea ff ff ff       	jmp    0x45f6
    460c:	48 ff c6             	inc    rsi
    460f:	8a 06                	mov    al,BYTE PTR [rsi]
    4611:	84 c0                	test   al,al
    4613:	0f 84 07 00 00 00    	je     0x4620
    4619:	fe 0e                	dec    BYTE PTR [rsi]
    461b:	e9 ef ff ff ff       	jmp    0x460f
    4620:	fe 06                	inc    BYTE PTR [rsi]
    4622:	48 ff ce             	dec    rsi
    4625:	e9 76 ff ff ff       	jmp    0x45a0
    462a:	e9 31 ff ff ff       	jmp    0x4560
    462f:	fe 06                	inc    BYTE PTR [rsi]
    4631:	48 ff c6             	inc    rsi
    4634:	8a 06                	mov    al,BYTE PTR [rsi]
    4636:	84 c0                	test   al,al
    4638:	0f 84 27 00 00 00    	je     0x4665
    463e:	fe 0e                	dec    BYTE PTR [rsi]
    4640:	48 ff ce             	dec    rsi
    4643:	8a 06                	mov    al,BYTE PTR [rsi]
    4645:	84 c0                	test   al,al
    4647:	0f 84 0c 00 00 00    	je     0x4659
    464d:	48 81 c6 09 00 00 00 	add    rsi,0x9
    4654:	e9 ea ff ff ff       	jmp    0x4643
    4659:	48 81 c6 f8 ff ff ff 	add    rsi,0xfffffffffffffff8
    4660:	e9 cf ff ff ff       	jmp    0x4634
    4665:	48 ff c6             	inc    rsi
    4668:	48 81 c6 07 00 00 00 	add    rsi,0x7
    466f:	e9 c3 fd ff ff       	jmp    0x4437
    4674:	48 81 c6 f7 ff ff ff 	add    rsi,0xfffffffffffffff7
    467b:	8a 06                	mov    al,BYTE PTR [rsi]
    467d:	84 c0                	test   al,al
    467f:	0f 84 0c 00 00 00    	je     0x4691
    4685:	48 81 c6 f7 ff ff ff 	add    rsi,0xfffffffffffffff7
    468c:	e9 ea ff ff ff       	jmp    0x467b
    4691:	48 81 c6 02 00 00 00 	add    rsi,0x2
    4698:	fe 0e                	dec    BYTE PTR [rsi]
    469a:	48 81 c6 02 00 00 00 	add    rsi,0x2
    46a1:	8a 06                	mov    al,BYTE PTR [rsi]
    46a3:	84 c0                	test   al,al
    46a5:	0f 84 17 00 00 00    	je     0x46c2
    46ab:	fe 0e                	dec    BYTE PTR [rsi]
    46ad:	48 81 c6 fc ff ff ff 	add    rsi,0xfffffffffffffffc
    46b4:	fe 06                	inc    BYTE PTR [rsi]
    46b6:	48 81 c6 04 00 00 00 	add    rsi,0x4
    46bd:	e9 df ff ff ff       	jmp    0x46a1
    46c2:	48 81 c6 fc ff ff ff 	add    rsi,0xfffffffffffffffc
    46c9:	8a 06                	mov    al,BYTE PTR [rsi]
    46cb:	84 c0                	test   al,al
    46cd:	0f 84 2f 00 00 00    	je     0x4702
    46d3:	fe 0e                	dec    BYTE PTR [rsi]
    46d5:	48 81 c6 04 00 00 00 	add    rsi,0x4
    46dc:	fe 06                	inc    BYTE PTR [rsi]
    46de:	48 81 c6 fe ff ff ff 	add    rsi,0xfffffffffffffffe
    46e5:	8a 06                	mov    al,BYTE PTR [rsi]
    46e7:	84 c0                	test   al,al
    46e9:	0f 84 07 00 00 00    	je     0x46f6
    46ef:	fe 0e                	dec    BYTE PTR [rsi]
    46f1:	e9 ef ff ff ff       	jmp    0x46e5
    46f6:	48 81 c6 fe ff ff ff 	add    rsi,0xfffffffffffffffe
    46fd:	e9 c7 ff ff ff       	jmp    0x46c9
    4702:	48 81 c6 02 00 00 00 	add    rsi,0x2
    4709:	e9 00 c8 ff ff       	jmp    0xf0e
    470e:	48 81 c6 fe ff ff ff 	add    rsi,0xfffffffffffffffe
    4715:	fe 06                	inc    BYTE PTR [rsi]
    4717:	48 81 c6 04 00 00 00 	add    rsi,0x4
    471e:	8a 06                	mov    al,BYTE PTR [rsi]
    4720:	84 c0                	test   al,al
    4722:	0f 84 17 00 00 00    	je     0x473f
    4728:	fe 0e                	dec    BYTE PTR [rsi]
    472a:	48 81 c6 fc ff ff ff 	add    rsi,0xfffffffffffffffc
    4731:	fe 0e                	dec    BYTE PTR [rsi]
    4733:	48 81 c6 04 00 00 00 	add    rsi,0x4
    473a:	e9 df ff ff ff       	jmp    0x471e
    473f:	fe 06                	inc    BYTE PTR [rsi]
    4741:	48 81 c6 fc ff ff ff 	add    rsi,0xfffffffffffffffc
    4748:	8a 06                	mov    al,BYTE PTR [rsi]
    474a:	84 c0                	test   al,al
    474c:	0f 84 24 00 00 00    	je     0x4776
    4752:	fe 0e                	dec    BYTE PTR [rsi]
    4754:	48 81 c6 04 00 00 00 	add    rsi,0x4
    475b:	fe 0e                	dec    BYTE PTR [rsi]
    475d:	48 81 c6 fa ff ff ff 	add    rsi,0xfffffffffffffffa
    4764:	48 8b 0e             	mov    rcx,QWORD PTR [rsi]
    4767:	41 ff d4             	call   r12
    476a:	48 81 c6 02 00 00 00 	add    rsi,0x2
    4771:	e9 d2 ff ff ff       	jmp    0x4748
    4776:	48 81 c6 04 00 00 00 	add    rsi,0x4
    477d:	8a 06                	mov    al,BYTE PTR [rsi]
    477f:	84 c0                	test   al,al
    4781:	0f 84 1b 00 00 00    	je     0x47a2
    4787:	fe 0e                	dec    BYTE PTR [rsi]
    4789:	48 81 c6 f9 ff ff ff 	add    rsi,0xfffffffffffffff9
    4790:	48 8b 0e             	mov    rcx,QWORD PTR [rsi]
    4793:	41 ff d4             	call   r12
    4796:	48 81 c6 07 00 00 00 	add    rsi,0x7
    479d:	e9 db ff ff ff       	jmp    0x477d
    47a2:	48 81 c6 fd ff ff ff 	add    rsi,0xfffffffffffffffd
    47a9:	8a 06                	mov    al,BYTE PTR [rsi]
    47ab:	84 c0                	test   al,al
    47ad:	0f 84 07 00 00 00    	je     0x47ba
    47b3:	fe 0e                	dec    BYTE PTR [rsi]
    47b5:	e9 ef ff ff ff       	jmp    0x47a9
    47ba:	48 ff c6             	inc    rsi
    47bd:	8a 06                	mov    al,BYTE PTR [rsi]
    47bf:	84 c0                	test   al,al
    47c1:	0f 84 07 00 00 00    	je     0x47ce
    47c7:	fe 0e                	dec    BYTE PTR [rsi]
    47c9:	e9 ef ff ff ff       	jmp    0x47bd
    47ce:	48 ff c6             	inc    rsi
    47d1:	8a 06                	mov    al,BYTE PTR [rsi]
    47d3:	84 c0                	test   al,al
    47d5:	0f 84 07 00 00 00    	je     0x47e2
    47db:	fe 0e                	dec    BYTE PTR [rsi]
    47dd:	e9 ef ff ff ff       	jmp    0x47d1
    47e2:	48 ff c6             	inc    rsi
    47e5:	8a 06                	mov    al,BYTE PTR [rsi]
    47e7:	84 c0                	test   al,al
    47e9:	0f 84 07 00 00 00    	je     0x47f6
    47ef:	fe 0e                	dec    BYTE PTR [rsi]
    47f1:	e9 ef ff ff ff       	jmp    0x47e5
    47f6:	48 ff c6             	inc    rsi
    47f9:	8a 06                	mov    al,BYTE PTR [rsi]
    47fb:	84 c0                	test   al,al
    47fd:	0f 84 07 00 00 00    	je     0x480a
    4803:	fe 0e                	dec    BYTE PTR [rsi]
    4805:	e9 ef ff ff ff       	jmp    0x47f9
    480a:	48 ff c6             	inc    rsi
    480d:	8a 06                	mov    al,BYTE PTR [rsi]
    480f:	84 c0                	test   al,al
    4811:	0f 84 07 00 00 00    	je     0x481e
    4817:	fe 0e                	dec    BYTE PTR [rsi]
    4819:	e9 ef ff ff ff       	jmp    0x480d
    481e:	48 81 c6 03 00 00 00 	add    rsi,0x3
    4825:	8a 06                	mov    al,BYTE PTR [rsi]
    4827:	84 c0                	test   al,al
    4829:	0f 84 84 00 00 00    	je     0x48b3
    482f:	48 ff c6             	inc    rsi
    4832:	8a 06                	mov    al,BYTE PTR [rsi]
    4834:	84 c0                	test   al,al
    4836:	0f 84 07 00 00 00    	je     0x4843
    483c:	fe 0e                	dec    BYTE PTR [rsi]
    483e:	e9 ef ff ff ff       	jmp    0x4832
    4843:	48 ff c6             	inc    rsi
    4846:	8a 06                	mov    al,BYTE PTR [rsi]
    4848:	84 c0                	test   al,al
    484a:	0f 84 07 00 00 00    	je     0x4857
    4850:	fe 0e                	dec    BYTE PTR [rsi]
    4852:	e9 ef ff ff ff       	jmp    0x4846
    4857:	48 ff c6             	inc    rsi
    485a:	8a 06                	mov    al,BYTE PTR [rsi]
    485c:	84 c0                	test   al,al
    485e:	0f 84 07 00 00 00    	je     0x486b
    4864:	fe 0e                	dec    BYTE PTR [rsi]
    4866:	e9 ef ff ff ff       	jmp    0x485a
    486b:	48 ff c6             	inc    rsi
    486e:	8a 06                	mov    al,BYTE PTR [rsi]
    4870:	84 c0                	test   al,al
    4872:	0f 84 07 00 00 00    	je     0x487f
    4878:	fe 0e                	dec    BYTE PTR [rsi]
    487a:	e9 ef ff ff ff       	jmp    0x486e
    487f:	48 ff c6             	inc    rsi
    4882:	8a 06                	mov    al,BYTE PTR [rsi]
    4884:	84 c0                	test   al,al
    4886:	0f 84 07 00 00 00    	je     0x4893
    488c:	fe 0e                	dec    BYTE PTR [rsi]
    488e:	e9 ef ff ff ff       	jmp    0x4882
    4893:	48 ff c6             	inc    rsi
    4896:	8a 06                	mov    al,BYTE PTR [rsi]
    4898:	84 c0                	test   al,al
    489a:	0f 84 07 00 00 00    	je     0x48a7
    48a0:	fe 0e                	dec    BYTE PTR [rsi]
    48a2:	e9 ef ff ff ff       	jmp    0x4896
    48a7:	48 81 c6 03 00 00 00 	add    rsi,0x3
    48ae:	e9 72 ff ff ff       	jmp    0x4825
    48b3:	48 81 c6 f7 ff ff ff 	add    rsi,0xfffffffffffffff7
    48ba:	8a 06                	mov    al,BYTE PTR [rsi]
    48bc:	84 c0                	test   al,al
    48be:	0f 84 0c 00 00 00    	je     0x48d0
    48c4:	48 81 c6 f7 ff ff ff 	add    rsi,0xfffffffffffffff7
    48cb:	e9 ea ff ff ff       	jmp    0x48ba
    48d0:	48 81 c6 09 00 00 00 	add    rsi,0x9
    48d7:	8a 06                	mov    al,BYTE PTR [rsi]
    48d9:	84 c0                	test   al,al
    48db:	0f 84 24 00 00 00    	je     0x4905
    48e1:	48 81 c6 05 00 00 00 	add    rsi,0x5
    48e8:	8a 06                	mov    al,BYTE PTR [rsi]
    48ea:	84 c0                	test   al,al
    48ec:	0f 84 07 00 00 00    	je     0x48f9
    48f2:	fe 0e                	dec    BYTE PTR [rsi]
    48f4:	e9 ef ff ff ff       	jmp    0x48e8
    48f9:	48 81 c6 04 00 00 00 	add    rsi,0x4
    4900:	e9 d2 ff ff ff       	jmp    0x48d7
    4905:	48 81 c6 f7 ff ff ff 	add    rsi,0xfffffffffffffff7
    490c:	8a 06                	mov    al,BYTE PTR [rsi]
    490e:	84 c0                	test   al,al
    4910:	0f 84 0c 00 00 00    	je     0x4922
    4916:	48 81 c6 f7 ff ff ff 	add    rsi,0xfffffffffffffff7
    491d:	e9 ea ff ff ff       	jmp    0x490c
    4922:	48 ff c6             	inc    rsi
    4925:	80 06 0b             	add    BYTE PTR [rsi],0xb
    4928:	8a 06                	mov    al,BYTE PTR [rsi]
    492a:	84 c0                	test   al,al
    492c:	0f 84 2f 00 00 00    	je     0x4961
    4932:	fe 0e                	dec    BYTE PTR [rsi]
    4934:	8a 06                	mov    al,BYTE PTR [rsi]
    4936:	84 c0                	test   al,al
    4938:	0f 84 17 00 00 00    	je     0x4955
    493e:	fe 0e                	dec    BYTE PTR [rsi]
    4940:	48 81 c6 09 00 00 00 	add    rsi,0x9
    4947:	fe 06                	inc    BYTE PTR [rsi]
    4949:	48 81 c6 f7 ff ff ff 	add    rsi,0xfffffffffffffff7
    4950:	e9 df ff ff ff       	jmp    0x4934
    4955:	48 81 c6 09 00 00 00 	add    rsi,0x9
    495c:	e9 c7 ff ff ff       	jmp    0x4928
    4961:	48 81 c6 04 00 00 00 	add    rsi,0x4
    4968:	fe 06                	inc    BYTE PTR [rsi]
    496a:	48 81 c6 09 00 00 00 	add    rsi,0x9
    4971:	fe 06                	inc    BYTE PTR [rsi]
    4973:	48 81 c6 f8 ff ff ff 	add    rsi,0xfffffffffffffff8
    497a:	48 81 c6 fa ff ff ff 	add    rsi,0xfffffffffffffffa
    4981:	8a 06                	mov    al,BYTE PTR [rsi]
    4983:	84 c0                	test   al,al
    4985:	0f 84 0c 00 00 00    	je     0x4997
    498b:	48 81 c6 f7 ff ff ff 	add    rsi,0xfffffffffffffff7
    4992:	e9 ea ff ff ff       	jmp    0x4981
    4997:	48 81 c6 07 00 00 00 	add    rsi,0x7
    499e:	8a 06                	mov    al,BYTE PTR [rsi]
    49a0:	84 c0                	test   al,al
    49a2:	0f 84 17 00 00 00    	je     0x49bf
    49a8:	fe 0e                	dec    BYTE PTR [rsi]
    49aa:	48 81 c6 f9 ff ff ff 	add    rsi,0xfffffffffffffff9
    49b1:	fe 06                	inc    BYTE PTR [rsi]
    49b3:	48 81 c6 07 00 00 00 	add    rsi,0x7
    49ba:	e9 df ff ff ff       	jmp    0x499e
    49bf:	48 81 c6 f9 ff ff ff 	add    rsi,0xfffffffffffffff9
    49c6:	8a 06                	mov    al,BYTE PTR [rsi]
    49c8:	84 c0                	test   al,al
    49ca:	0f 84 f0 00 00 00    	je     0x4ac0
    49d0:	fe 0e                	dec    BYTE PTR [rsi]
    49d2:	48 81 c6 07 00 00 00 	add    rsi,0x7
    49d9:	fe 06                	inc    BYTE PTR [rsi]
    49db:	8a 06                	mov    al,BYTE PTR [rsi]
    49dd:	84 c0                	test   al,al
    49df:	0f 84 07 00 00 00    	je     0x49ec
    49e5:	fe 0e                	dec    BYTE PTR [rsi]
    49e7:	e9 ef ff ff ff       	jmp    0x49db
    49ec:	48 81 c6 02 00 00 00 	add    rsi,0x2
    49f3:	8a 06                	mov    al,BYTE PTR [rsi]
    49f5:	84 c0                	test   al,al
    49f7:	0f 84 0c 00 00 00    	je     0x4a09
    49fd:	48 81 c6 09 00 00 00 	add    rsi,0x9
    4a04:	e9 ea ff ff ff       	jmp    0x49f3
    4a09:	48 81 c6 fb ff ff ff 	add    rsi,0xfffffffffffffffb
    4a10:	48 81 c6 fc ff ff ff 	add    rsi,0xfffffffffffffffc
    4a17:	8a 06                	mov    al,BYTE PTR [rsi]
    4a19:	84 c0                	test   al,al
    4a1b:	0f 84 9a 00 00 00    	je     0x4abb
    4a21:	48 81 c6 07 00 00 00 	add    rsi,0x7
    4a28:	8a 06                	mov    al,BYTE PTR [rsi]
    4a2a:	84 c0                	test   al,al
    4a2c:	0f 84 17 00 00 00    	je     0x4a49
    4a32:	fe 0e                	dec    BYTE PTR [rsi]
    4a34:	48 81 c6 fa ff ff ff 	add    rsi,0xfffffffffffffffa
    4a3b:	fe 06                	inc    BYTE PTR [rsi]
    4a3d:	48 81 c6 06 00 00 00 	add    rsi,0x6
    4a44:	e9 df ff ff ff       	jmp    0x4a28
    4a49:	48 81 c6 fa ff ff ff 	add    rsi,0xfffffffffffffffa
    4a50:	8a 06                	mov    al,BYTE PTR [rsi]
    4a52:	84 c0                	test   al,al
    4a54:	0f 84 4e 00 00 00    	je     0x4aa8
    4a5a:	fe 0e                	dec    BYTE PTR [rsi]
    4a5c:	48 81 c6 06 00 00 00 	add    rsi,0x6
    4a63:	fe 06                	inc    BYTE PTR [rsi]
    4a65:	48 81 c6 f9 ff ff ff 	add    rsi,0xfffffffffffffff9
    4a6c:	8a 06                	mov    al,BYTE PTR [rsi]
    4a6e:	84 c0                	test   al,al
    4a70:	0f 84 0c 00 00 00    	je     0x4a82
    4a76:	48 81 c6 f7 ff ff ff 	add    rsi,0xfffffffffffffff7
    4a7d:	e9 ea ff ff ff       	jmp    0x4a6c
    4a82:	48 81 c6 07 00 00 00 	add    rsi,0x7
    4a89:	8a 06                	mov    al,BYTE PTR [rsi]
    4a8b:	84 c0                	test   al,al
    4a8d:	0f 84 07 00 00 00    	je     0x4a9a
    4a93:	fe 0e                	dec    BYTE PTR [rsi]
    4a95:	e9 ef ff ff ff       	jmp    0x4a89
    4a9a:	fe 06                	inc    BYTE PTR [rsi]
    4a9c:	48 81 c6 03 00 00 00 	add    rsi,0x3
    4aa3:	e9 a8 ff ff ff       	jmp    0x4a50
    4aa8:	48 81 c6 fc ff ff ff 	add    rsi,0xfffffffffffffffc
    4aaf:	48 81 c6 fa ff ff ff 	add    rsi,0xfffffffffffffffa
    4ab6:	e9 5c ff ff ff       	jmp    0x4a17
    4abb:	e9 06 ff ff ff       	jmp    0x49c6
    4ac0:	48 81 c6 07 00 00 00 	add    rsi,0x7
    4ac7:	8a 06                	mov    al,BYTE PTR [rsi]
    4ac9:	84 c0                	test   al,al
    4acb:	0f 84 17 00 00 00    	je     0x4ae8
    4ad1:	fe 0e                	dec    BYTE PTR [rsi]
    4ad3:	48 81 c6 f9 ff ff ff 	add    rsi,0xfffffffffffffff9
    4ada:	fe 06                	inc    BYTE PTR [rsi]
    4adc:	48 81 c6 07 00 00 00 	add    rsi,0x7
    4ae3:	e9 df ff ff ff       	jmp    0x4ac7
    4ae8:	48 81 c6 f9 ff ff ff 	add    rsi,0xfffffffffffffff9
    4aef:	8a 06                	mov    al,BYTE PTR [rsi]
    4af1:	84 c0                	test   al,al
    4af3:	0f 84 f4 01 00 00    	je     0x4ced
    4af9:	fe 0e                	dec    BYTE PTR [rsi]
    4afb:	48 81 c6 07 00 00 00 	add    rsi,0x7
    4b02:	fe 06                	inc    BYTE PTR [rsi]
    4b04:	48 81 c6 02 00 00 00 	add    rsi,0x2
    4b0b:	8a 06                	mov    al,BYTE PTR [rsi]
    4b0d:	84 c0                	test   al,al
    4b0f:	0f 84 64 00 00 00    	je     0x4b79
    4b15:	48 ff c6             	inc    rsi
    4b18:	fe 06                	inc    BYTE PTR [rsi]
    4b1a:	48 81 c6 04 00 00 00 	add    rsi,0x4
    4b21:	8a 06                	mov    al,BYTE PTR [rsi]
    4b23:	84 c0                	test   al,al
    4b25:	0f 84 17 00 00 00    	je     0x4b42
    4b2b:	fe 0e                	dec    BYTE PTR [rsi]
    4b2d:	48 81 c6 fc ff ff ff 	add    rsi,0xfffffffffffffffc
    4b34:	fe 0e                	dec    BYTE PTR [rsi]
    4b36:	48 81 c6 04 00 00 00 	add    rsi,0x4
    4b3d:	e9 df ff ff ff       	jmp    0x4b21
    4b42:	48 81 c6 fc ff ff ff 	add    rsi,0xfffffffffffffffc
    4b49:	8a 06                	mov    al,BYTE PTR [rsi]
    4b4b:	84 c0                	test   al,al
    4b4d:	0f 84 1a 00 00 00    	je     0x4b6d
    4b53:	fe 0e                	dec    BYTE PTR [rsi]
    4b55:	48 81 c6 03 00 00 00 	add    rsi,0x3
    4b5c:	48 ff c6             	inc    rsi
    4b5f:	fe 06                	inc    BYTE PTR [rsi]
    4b61:	48 81 c6 fc ff ff ff 	add    rsi,0xfffffffffffffffc
    4b68:	e9 dc ff ff ff       	jmp    0x4b49
    4b6d:	48 81 c6 08 00 00 00 	add    rsi,0x8
    4b74:	e9 92 ff ff ff       	jmp    0x4b0b
    4b79:	48 81 c6 fe ff ff ff 	add    rsi,0xfffffffffffffffe
    4b80:	fe 06                	inc    BYTE PTR [rsi]
    4b82:	48 81 c6 f9 ff ff ff 	add    rsi,0xfffffffffffffff9
    4b89:	8a 06                	mov    al,BYTE PTR [rsi]
    4b8b:	84 c0                	test   al,al
    4b8d:	0f 84 34 00 00 00    	je     0x4bc7
    4b93:	48 81 c6 05 00 00 00 	add    rsi,0x5
    4b9a:	8a 06                	mov    al,BYTE PTR [rsi]
    4b9c:	84 c0                	test   al,al
    4b9e:	0f 84 17 00 00 00    	je     0x4bbb
    4ba4:	fe 0e                	dec    BYTE PTR [rsi]
    4ba6:	48 81 c6 02 00 00 00 	add    rsi,0x2
    4bad:	fe 06                	inc    BYTE PTR [rsi]
    4baf:	48 81 c6 fe ff ff ff 	add    rsi,0xfffffffffffffffe
    4bb6:	e9 df ff ff ff       	jmp    0x4b9a
    4bbb:	48 81 c6 f2 ff ff ff 	add    rsi,0xfffffffffffffff2
    4bc2:	e9 c2 ff ff ff       	jmp    0x4b89
    4bc7:	48 81 c6 09 00 00 00 	add    rsi,0x9
    4bce:	8a 06                	mov    al,BYTE PTR [rsi]
    4bd0:	84 c0                	test   al,al
    4bd2:	0f 84 0c 00 00 00    	je     0x4be4
    4bd8:	48 81 c6 09 00 00 00 	add    rsi,0x9
    4bdf:	e9 ea ff ff ff       	jmp    0x4bce
    4be4:	48 81 c6 fb ff ff ff 	add    rsi,0xfffffffffffffffb
    4beb:	48 81 c6 fc ff ff ff 	add    rsi,0xfffffffffffffffc
    4bf2:	8a 06                	mov    al,BYTE PTR [rsi]
    4bf4:	84 c0                	test   al,al
    4bf6:	0f 84 c2 00 00 00    	je     0x4cbe
    4bfc:	48 ff c6             	inc    rsi
    4bff:	8a 06                	mov    al,BYTE PTR [rsi]
    4c01:	84 c0                	test   al,al
    4c03:	0f 84 07 00 00 00    	je     0x4c10
    4c09:	fe 0e                	dec    BYTE PTR [rsi]
    4c0b:	e9 ef ff ff ff       	jmp    0x4bff
    4c10:	48 ff ce             	dec    rsi
    4c13:	fe 0e                	dec    BYTE PTR [rsi]
    4c15:	48 81 c6 07 00 00 00 	add    rsi,0x7
    4c1c:	8a 06                	mov    al,BYTE PTR [rsi]
    4c1e:	84 c0                	test   al,al
    4c20:	0f 84 5f 00 00 00    	je     0x4c85
    4c26:	fe 0e                	dec    BYTE PTR [rsi]
    4c28:	48 81 c6 f9 ff ff ff 	add    rsi,0xfffffffffffffff9
    4c2f:	fe 06                	inc    BYTE PTR [rsi]
    4c31:	48 ff c6             	inc    rsi
    4c34:	8a 06                	mov    al,BYTE PTR [rsi]
    4c36:	84 c0                	test   al,al
    4c38:	0f 84 1f 00 00 00    	je     0x4c5d
    4c3e:	48 ff ce             	dec    rsi
    4c41:	fe 0e                	dec    BYTE PTR [rsi]
    4c43:	48 ff c6             	inc    rsi
    4c46:	fe 0e                	dec    BYTE PTR [rsi]
    4c48:	48 81 c6 fd ff ff ff 	add    rsi,0xfffffffffffffffd
    4c4f:	fe 06                	inc    BYTE PTR [rsi]
    4c51:	48 81 c6 03 00 00 00 	add    rsi,0x3
    4c58:	e9 d7 ff ff ff       	jmp    0x4c34
    4c5d:	48 ff ce             	dec    rsi
    4c60:	8a 06                	mov    al,BYTE PTR [rsi]
    4c62:	84 c0                	test   al,al
    4c64:	0f 84 0f 00 00 00    	je     0x4c79
    4c6a:	fe 0e                	dec    BYTE PTR [rsi]
    4c6c:	48 ff c6             	inc    rsi
    4c6f:	fe 06                	inc    BYTE PTR [rsi]
    4c71:	48 ff ce             	dec    rsi
    4c74:	e9 e7 ff ff ff       	jmp    0x4c60
    4c79:	48 81 c6 07 00 00 00 	add    rsi,0x7
    4c80:	e9 97 ff ff ff       	jmp    0x4c1c
    4c85:	48 81 c6 fa ff ff ff 	add    rsi,0xfffffffffffffffa
    4c8c:	8a 06                	mov    al,BYTE PTR [rsi]
    4c8e:	84 c0                	test   al,al
    4c90:	0f 84 17 00 00 00    	je     0x4cad
    4c96:	fe 0e                	dec    BYTE PTR [rsi]
    4c98:	48 81 c6 06 00 00 00 	add    rsi,0x6
    4c9f:	fe 06                	inc    BYTE PTR [rsi]
    4ca1:	48 81 c6 fa ff ff ff 	add    rsi,0xfffffffffffffffa
    4ca8:	e9 df ff ff ff       	jmp    0x4c8c
    4cad:	48 ff ce             	dec    rsi
    4cb0:	fe 06                	inc    BYTE PTR [rsi]
    4cb2:	48 81 c6 f7 ff ff ff 	add    rsi,0xfffffffffffffff7
    4cb9:	e9 34 ff ff ff       	jmp    0x4bf2
    4cbe:	48 81 c6 07 00 00 00 	add    rsi,0x7
    4cc5:	fe 0e                	dec    BYTE PTR [rsi]
    4cc7:	48 81 c6 fc ff ff ff 	add    rsi,0xfffffffffffffffc
    4cce:	8a 06                	mov    al,BYTE PTR [rsi]
    4cd0:	84 c0                	test   al,al
    4cd2:	0f 84 07 00 00 00    	je     0x4cdf
    4cd8:	fe 0e                	dec    BYTE PTR [rsi]
    4cda:	e9 ef ff ff ff       	jmp    0x4cce
    4cdf:	fe 06                	inc    BYTE PTR [rsi]
    4ce1:	48 81 c6 fd ff ff ff 	add    rsi,0xfffffffffffffffd
    4ce8:	e9 02 fe ff ff       	jmp    0x4aef
    4ced:	fe 06                	inc    BYTE PTR [rsi]
    4cef:	48 81 c6 07 00 00 00 	add    rsi,0x7
    4cf6:	8a 06                	mov    al,BYTE PTR [rsi]
    4cf8:	84 c0                	test   al,al
    4cfa:	0f 84 17 00 00 00    	je     0x4d17
    4d00:	fe 0e                	dec    BYTE PTR [rsi]
    4d02:	48 81 c6 f9 ff ff ff 	add    rsi,0xfffffffffffffff9
    4d09:	fe 0e                	dec    BYTE PTR [rsi]
    4d0b:	48 81 c6 07 00 00 00 	add    rsi,0x7
    4d12:	e9 df ff ff ff       	jmp    0x4cf6
    4d17:	fe 06                	inc    BYTE PTR [rsi]
    4d19:	48 81 c6 f9 ff ff ff 	add    rsi,0xfffffffffffffff9
    4d20:	8a 06                	mov    al,BYTE PTR [rsi]
    4d22:	84 c0                	test   al,al
    4d24:	0f 84 a5 04 00 00    	je     0x51cf
    4d2a:	fe 0e                	dec    BYTE PTR [rsi]
    4d2c:	48 81 c6 07 00 00 00 	add    rsi,0x7
    4d33:	fe 0e                	dec    BYTE PTR [rsi]
    4d35:	48 81 c6 02 00 00 00 	add    rsi,0x2
    4d3c:	8a 06                	mov    al,BYTE PTR [rsi]
    4d3e:	84 c0                	test   al,al
    4d40:	0f 84 3b 00 00 00    	je     0x4d81
    4d46:	48 81 c6 02 00 00 00 	add    rsi,0x2
    4d4d:	48 81 c6 03 00 00 00 	add    rsi,0x3
    4d54:	8a 06                	mov    al,BYTE PTR [rsi]
    4d56:	84 c0                	test   al,al
    4d58:	0f 84 17 00 00 00    	je     0x4d75
    4d5e:	fe 0e                	dec    BYTE PTR [rsi]
    4d60:	48 81 c6 02 00 00 00 	add    rsi,0x2
    4d67:	fe 06                	inc    BYTE PTR [rsi]
    4d69:	48 81 c6 fe ff ff ff 	add    rsi,0xfffffffffffffffe
    4d70:	e9 df ff ff ff       	jmp    0x4d54
    4d75:	48 81 c6 04 00 00 00 	add    rsi,0x4
    4d7c:	e9 bb ff ff ff       	jmp    0x4d3c
    4d81:	48 81 c6 f7 ff ff ff 	add    rsi,0xfffffffffffffff7
    4d88:	8a 06                	mov    al,BYTE PTR [rsi]
    4d8a:	84 c0                	test   al,al
    4d8c:	0f 84 c9 00 00 00    	je     0x4e5b
    4d92:	48 ff c6             	inc    rsi
    4d95:	8a 06                	mov    al,BYTE PTR [rsi]
    4d97:	84 c0                	test   al,al
    4d99:	0f 84 07 00 00 00    	je     0x4da6
    4d9f:	fe 0e                	dec    BYTE PTR [rsi]
    4da1:	e9 ef ff ff ff       	jmp    0x4d95
    4da6:	48 ff ce             	dec    rsi
    4da9:	fe 0e                	dec    BYTE PTR [rsi]
    4dab:	48 81 c6 07 00 00 00 	add    rsi,0x7
    4db2:	8a 06                	mov    al,BYTE PTR [rsi]
    4db4:	84 c0                	test   al,al
    4db6:	0f 84 5f 00 00 00    	je     0x4e1b
    4dbc:	fe 0e                	dec    BYTE PTR [rsi]
    4dbe:	48 81 c6 f9 ff ff ff 	add    rsi,0xfffffffffffffff9
    4dc5:	fe 06                	inc    BYTE PTR [rsi]
    4dc7:	48 ff c6             	inc    rsi
    4dca:	8a 06                	mov    al,BYTE PTR [rsi]
    4dcc:	84 c0                	test   al,al
    4dce:	0f 84 1f 00 00 00    	je     0x4df3
    4dd4:	48 ff ce             	dec    rsi
    4dd7:	fe 0e                	dec    BYTE PTR [rsi]
    4dd9:	48 ff c6             	inc    rsi
    4ddc:	fe 0e                	dec    BYTE PTR [rsi]
    4dde:	48 81 c6 fd ff ff ff 	add    rsi,0xfffffffffffffffd
    4de5:	fe 06                	inc    BYTE PTR [rsi]
    4de7:	48 81 c6 03 00 00 00 	add    rsi,0x3
    4dee:	e9 d7 ff ff ff       	jmp    0x4dca
    4df3:	48 ff ce             	dec    rsi
    4df6:	8a 06                	mov    al,BYTE PTR [rsi]
    4df8:	84 c0                	test   al,al
    4dfa:	0f 84 0f 00 00 00    	je     0x4e0f
    4e00:	fe 0e                	dec    BYTE PTR [rsi]
    4e02:	48 ff c6             	inc    rsi
    4e05:	fe 06                	inc    BYTE PTR [rsi]
    4e07:	48 ff ce             	dec    rsi
    4e0a:	e9 e7 ff ff ff       	jmp    0x4df6
    4e0f:	48 81 c6 07 00 00 00 	add    rsi,0x7
    4e16:	e9 97 ff ff ff       	jmp    0x4db2
    4e1b:	48 81 c6 fe ff ff ff 	add    rsi,0xfffffffffffffffe
    4e22:	48 81 c6 fc ff ff ff 	add    rsi,0xfffffffffffffffc
    4e29:	8a 06                	mov    al,BYTE PTR [rsi]
    4e2b:	84 c0                	test   al,al
    4e2d:	0f 84 17 00 00 00    	je     0x4e4a
    4e33:	fe 0e                	dec    BYTE PTR [rsi]
    4e35:	48 81 c6 06 00 00 00 	add    rsi,0x6
    4e3c:	fe 06                	inc    BYTE PTR [rsi]
    4e3e:	48 81 c6 fa ff ff ff 	add    rsi,0xfffffffffffffffa
    4e45:	e9 df ff ff ff       	jmp    0x4e29
    4e4a:	48 ff ce             	dec    rsi
    4e4d:	fe 06                	inc    BYTE PTR [rsi]
    4e4f:	48 81 c6 f7 ff ff ff 	add    rsi,0xfffffffffffffff7
    4e56:	e9 2d ff ff ff       	jmp    0x4d88
    4e5b:	48 ff c6             	inc    rsi
    4e5e:	80 06 05             	add    BYTE PTR [rsi],0x5
    4e61:	8a 06                	mov    al,BYTE PTR [rsi]
    4e63:	84 c0                	test   al,al
    4e65:	0f 84 2f 00 00 00    	je     0x4e9a
    4e6b:	fe 0e                	dec    BYTE PTR [rsi]
    4e6d:	8a 06                	mov    al,BYTE PTR [rsi]
    4e6f:	84 c0                	test   al,al
    4e71:	0f 84 17 00 00 00    	je     0x4e8e
    4e77:	fe 0e                	dec    BYTE PTR [rsi]
    4e79:	48 81 c6 09 00 00 00 	add    rsi,0x9
    4e80:	fe 06                	inc    BYTE PTR [rsi]
    4e82:	48 81 c6 f7 ff ff ff 	add    rsi,0xfffffffffffffff7
    4e89:	e9 df ff ff ff       	jmp    0x4e6d
    4e8e:	48 81 c6 09 00 00 00 	add    rsi,0x9
    4e95:	e9 c7 ff ff ff       	jmp    0x4e61
    4e9a:	48 81 c6 04 00 00 00 	add    rsi,0x4
    4ea1:	fe 06                	inc    BYTE PTR [rsi]
    4ea3:	48 81 c6 fd ff ff ff 	add    rsi,0xfffffffffffffffd
    4eaa:	48 81 c6 fe ff ff ff 	add    rsi,0xfffffffffffffffe
    4eb1:	8a 06                	mov    al,BYTE PTR [rsi]
    4eb3:	84 c0                	test   al,al
    4eb5:	0f 84 0c 00 00 00    	je     0x4ec7
    4ebb:	48 81 c6 f7 ff ff ff 	add    rsi,0xfffffffffffffff7
    4ec2:	e9 ea ff ff ff       	jmp    0x4eb1
    4ec7:	48 81 c6 09 00 00 00 	add    rsi,0x9
    4ece:	8a 06                	mov    al,BYTE PTR [rsi]
    4ed0:	84 c0                	test   al,al
    4ed2:	0f 84 46 02 00 00    	je     0x511e
    4ed8:	48 81 c6 05 00 00 00 	add    rsi,0x5
    4edf:	8a 06                	mov    al,BYTE PTR [rsi]
    4ee1:	84 c0                	test   al,al
    4ee3:	0f 84 17 00 00 00    	je     0x4f00
    4ee9:	fe 0e                	dec    BYTE PTR [rsi]
    4eeb:	48 81 c6 fb ff ff ff 	add    rsi,0xfffffffffffffffb
    4ef2:	fe 0e                	dec    BYTE PTR [rsi]
    4ef4:	48 81 c6 05 00 00 00 	add    rsi,0x5
    4efb:	e9 df ff ff ff       	jmp    0x4edf
    4f00:	fe 06                	inc    BYTE PTR [rsi]
    4f02:	48 81 c6 fb ff ff ff 	add    rsi,0xfffffffffffffffb
    4f09:	8a 06                	mov    al,BYTE PTR [rsi]
    4f0b:	84 c0                	test   al,al
    4f0d:	0f 84 bc 00 00 00    	je     0x4fcf
    4f13:	fe 0e                	dec    BYTE PTR [rsi]
    4f15:	48 81 c6 05 00 00 00 	add    rsi,0x5
    4f1c:	fe 0e                	dec    BYTE PTR [rsi]
    4f1e:	48 81 c6 02 00 00 00 	add    rsi,0x2
    4f25:	8a 06                	mov    al,BYTE PTR [rsi]
    4f27:	84 c0                	test   al,al
    4f29:	0f 84 17 00 00 00    	je     0x4f46
    4f2f:	fe 0e                	dec    BYTE PTR [rsi]
    4f31:	48 81 c6 f9 ff ff ff 	add    rsi,0xfffffffffffffff9
    4f38:	fe 06                	inc    BYTE PTR [rsi]
    4f3a:	48 81 c6 07 00 00 00 	add    rsi,0x7
    4f41:	e9 df ff ff ff       	jmp    0x4f25
    4f46:	48 81 c6 fc ff ff ff 	add    rsi,0xfffffffffffffffc
    4f4d:	48 81 c6 fd ff ff ff 	add    rsi,0xfffffffffffffffd
    4f54:	8a 06                	mov    al,BYTE PTR [rsi]
    4f56:	84 c0                	test   al,al
    4f58:	0f 84 6c 00 00 00    	je     0x4fca
    4f5e:	fe 0e                	dec    BYTE PTR [rsi]
    4f60:	48 81 c6 07 00 00 00 	add    rsi,0x7
    4f67:	fe 06                	inc    BYTE PTR [rsi]
    4f69:	48 81 c6 f0 ff ff ff 	add    rsi,0xfffffffffffffff0
    4f70:	8a 06                	mov    al,BYTE PTR [rsi]
    4f72:	84 c0                	test   al,al
    4f74:	0f 84 0c 00 00 00    	je     0x4f86
    4f7a:	48 81 c6 f7 ff ff ff 	add    rsi,0xfffffffffffffff7
    4f81:	e9 ea ff ff ff       	jmp    0x4f70
    4f86:	48 81 c6 04 00 00 00 	add    rsi,0x4
    4f8d:	8a 06                	mov    al,BYTE PTR [rsi]
    4f8f:	84 c0                	test   al,al
    4f91:	0f 84 07 00 00 00    	je     0x4f9e
    4f97:	fe 0e                	dec    BYTE PTR [rsi]
    4f99:	e9 ef ff ff ff       	jmp    0x4f8d
    4f9e:	fe 06                	inc    BYTE PTR [rsi]
    4fa0:	48 81 c6 05 00 00 00 	add    rsi,0x5
    4fa7:	8a 06                	mov    al,BYTE PTR [rsi]
    4fa9:	84 c0                	test   al,al
    4fab:	0f 84 0c 00 00 00    	je     0x4fbd
    4fb1:	48 81 c6 09 00 00 00 	add    rsi,0x9
    4fb8:	e9 ea ff ff ff       	jmp    0x4fa7
    4fbd:	48 ff c6             	inc    rsi
    4fc0:	fe 06                	inc    BYTE PTR [rsi]
    4fc2:	48 ff ce             	dec    rsi
    4fc5:	e9 8a ff ff ff       	jmp    0x4f54
    4fca:	e9 3a ff ff ff       	jmp    0x4f09
    4fcf:	fe 06                	inc    BYTE PTR [rsi]
    4fd1:	48 81 c6 07 00 00 00 	add    rsi,0x7
    4fd8:	8a 06                	mov    al,BYTE PTR [rsi]
    4fda:	84 c0                	test   al,al
    4fdc:	0f 84 1a 00 00 00    	je     0x4ffc
    4fe2:	fe 0e                	dec    BYTE PTR [rsi]
    4fe4:	48 ff ce             	dec    rsi
    4fe7:	48 81 c6 fa ff ff ff 	add    rsi,0xfffffffffffffffa
    4fee:	fe 0e                	dec    BYTE PTR [rsi]
    4ff0:	48 81 c6 07 00 00 00 	add    rsi,0x7
    4ff7:	e9 dc ff ff ff       	jmp    0x4fd8
    4ffc:	fe 06                	inc    BYTE PTR [rsi]
    4ffe:	48 81 c6 f9 ff ff ff 	add    rsi,0xfffffffffffffff9
    5005:	8a 06                	mov    al,BYTE PTR [rsi]
    5007:	84 c0                	test   al,al
    5009:	0f 84 cd 00 00 00    	je     0x50dc
    500f:	fe 0e                	dec    BYTE PTR [rsi]
    5011:	48 81 c6 07 00 00 00 	add    rsi,0x7
    5018:	fe 0e                	dec    BYTE PTR [rsi]
    501a:	48 81 c6 fe ff ff ff 	add    rsi,0xfffffffffffffffe
    5021:	8a 06                	mov    al,BYTE PTR [rsi]
    5023:	84 c0                	test   al,al
    5025:	0f 84 17 00 00 00    	je     0x5042
    502b:	fe 0e                	dec    BYTE PTR [rsi]
    502d:	48 81 c6 fb ff ff ff 	add    rsi,0xfffffffffffffffb
    5034:	fe 06                	inc    BYTE PTR [rsi]
    5036:	48 81 c6 05 00 00 00 	add    rsi,0x5
    503d:	e9 df ff ff ff       	jmp    0x5021
    5042:	48 81 c6 fb ff ff ff 	add    rsi,0xfffffffffffffffb
    5049:	8a 06                	mov    al,BYTE PTR [rsi]
    504b:	84 c0                	test   al,al
    504d:	0f 84 84 00 00 00    	je     0x50d7
    5053:	fe 0e                	dec    BYTE PTR [rsi]
    5055:	48 81 c6 05 00 00 00 	add    rsi,0x5
    505c:	fe 06                	inc    BYTE PTR [rsi]
    505e:	48 81 c6 f2 ff ff ff 	add    rsi,0xfffffffffffffff2
    5065:	8a 06                	mov    al,BYTE PTR [rsi]
    5067:	84 c0                	test   al,al
    5069:	0f 84 13 00 00 00    	je     0x5082
    506f:	48 81 c6 fd ff ff ff 	add    rsi,0xfffffffffffffffd
    5076:	48 81 c6 fa ff ff ff 	add    rsi,0xfffffffffffffffa
    507d:	e9 e3 ff ff ff       	jmp    0x5065
    5082:	48 81 c6 03 00 00 00 	add    rsi,0x3
    5089:	8a 06                	mov    al,BYTE PTR [rsi]
    508b:	84 c0                	test   al,al
    508d:	0f 84 07 00 00 00    	je     0x509a
    5093:	fe 0e                	dec    BYTE PTR [rsi]
    5095:	e9 ef ff ff ff       	jmp    0x5089
    509a:	fe 06                	inc    BYTE PTR [rsi]
    509c:	48 81 c6 06 00 00 00 	add    rsi,0x6
    50a3:	8a 06                	mov    al,BYTE PTR [rsi]
    50a5:	84 c0                	test   al,al
    50a7:	0f 84 0c 00 00 00    	je     0x50b9
    50ad:	48 81 c6 09 00 00 00 	add    rsi,0x9
    50b4:	e9 ea ff ff ff       	jmp    0x50a3
    50b9:	48 ff c6             	inc    rsi
    50bc:	8a 06                	mov    al,BYTE PTR [rsi]
    50be:	84 c0                	test   al,al
    50c0:	0f 84 07 00 00 00    	je     0x50cd
    50c6:	fe 0e                	dec    BYTE PTR [rsi]
    50c8:	e9 ef ff ff ff       	jmp    0x50bc
    50cd:	fe 06                	inc    BYTE PTR [rsi]
    50cf:	48 ff ce             	dec    rsi
    50d2:	e9 72 ff ff ff       	jmp    0x5049
    50d7:	e9 29 ff ff ff       	jmp    0x5005
    50dc:	fe 06                	inc    BYTE PTR [rsi]
    50de:	48 ff c6             	inc    rsi
    50e1:	8a 06                	mov    al,BYTE PTR [rsi]
    50e3:	84 c0                	test   al,al
    50e5:	0f 84 27 00 00 00    	je     0x5112
    50eb:	fe 0e                	dec    BYTE PTR [rsi]
    50ed:	48 ff ce             	dec    rsi
    50f0:	8a 06                	mov    al,BYTE PTR [rsi]
    50f2:	84 c0                	test   al,al
    50f4:	0f 84 0c 00 00 00    	je     0x5106
    50fa:	48 81 c6 09 00 00 00 	add    rsi,0x9
    5101:	e9 ea ff ff ff       	jmp    0x50f0
    5106:	48 81 c6 f8 ff ff ff 	add    rsi,0xfffffffffffffff8
    510d:	e9 cf ff ff ff       	jmp    0x50e1
    5112:	48 81 c6 08 00 00 00 	add    rsi,0x8
    5119:	e9 b0 fd ff ff       	jmp    0x4ece
    511e:	48 81 c6 f9 ff ff ff 	add    rsi,0xfffffffffffffff9
    5125:	48 81 c6 fe ff ff ff 	add    rsi,0xfffffffffffffffe
    512c:	8a 06                	mov    al,BYTE PTR [rsi]
    512e:	84 c0                	test   al,al
    5130:	0f 84 0c 00 00 00    	je     0x5142
    5136:	48 81 c6 f7 ff ff ff 	add    rsi,0xfffffffffffffff7
    513d:	e9 ea ff ff ff       	jmp    0x512c
    5142:	48 81 c6 04 00 00 00 	add    rsi,0x4
    5149:	8a 06                	mov    al,BYTE PTR [rsi]
    514b:	84 c0                	test   al,al
    514d:	0f 84 07 00 00 00    	je     0x515a
    5153:	fe 0e                	dec    BYTE PTR [rsi]
    5155:	e9 ef ff ff ff       	jmp    0x5149
    515a:	48 81 c6 fd ff ff ff 	add    rsi,0xfffffffffffffffd
    5161:	80 06 05             	add    BYTE PTR [rsi],0x5
    5164:	8a 06                	mov    al,BYTE PTR [rsi]
    5166:	84 c0                	test   al,al
    5168:	0f 84 2f 00 00 00    	je     0x519d
    516e:	fe 0e                	dec    BYTE PTR [rsi]
    5170:	8a 06                	mov    al,BYTE PTR [rsi]
    5172:	84 c0                	test   al,al
    5174:	0f 84 17 00 00 00    	je     0x5191
    517a:	fe 0e                	dec    BYTE PTR [rsi]
    517c:	48 81 c6 09 00 00 00 	add    rsi,0x9
    5183:	fe 06                	inc    BYTE PTR [rsi]
    5185:	48 81 c6 f7 ff ff ff 	add    rsi,0xfffffffffffffff7
    518c:	e9 df ff ff ff       	jmp    0x5170
    5191:	48 81 c6 09 00 00 00 	add    rsi,0x9
    5198:	e9 c7 ff ff ff       	jmp    0x5164
    519d:	48 81 c6 04 00 00 00 	add    rsi,0x4
    51a4:	fe 0e                	dec    BYTE PTR [rsi]
    51a6:	48 81 c6 fb ff ff ff 	add    rsi,0xfffffffffffffffb
    51ad:	8a 06                	mov    al,BYTE PTR [rsi]
    51af:	84 c0                	test   al,al
    51b1:	0f 84 13 00 00 00    	je     0x51ca
    51b7:	48 81 c6 f9 ff ff ff 	add    rsi,0xfffffffffffffff9
    51be:	48 81 c6 fe ff ff ff 	add    rsi,0xfffffffffffffffe
    51c5:	e9 e3 ff ff ff       	jmp    0x51ad
    51ca:	e9 51 fb ff ff       	jmp    0x4d20
    51cf:	48 81 c6 03 00 00 00 	add    rsi,0x3
    51d6:	e9 0f b1 ff ff       	jmp    0x2ea
    51db:	48 81 c6 fc ff ff ff 	add    rsi,0xfffffffffffffffc
    51e2:	48 8b 0e             	mov    rcx,QWORD PTR [rsi]
    51e5:	41 ff d4             	call   r12
    51e8:	48 81 c6 0a 00 00 00 	add    rsi,0xa
    51ef:	8a 06                	mov    al,BYTE PTR [rsi]
    51f1:	84 c0                	test   al,al
    51f3:	0f 84 24 00 00 00    	je     0x521d
    51f9:	48 81 c6 06 00 00 00 	add    rsi,0x6
    5200:	8a 06                	mov    al,BYTE PTR [rsi]
    5202:	84 c0                	test   al,al
    5204:	0f 84 07 00 00 00    	je     0x5211
    520a:	fe 0e                	dec    BYTE PTR [rsi]
    520c:	e9 ef ff ff ff       	jmp    0x5200
    5211:	48 81 c6 03 00 00 00 	add    rsi,0x3
    5218:	e9 d2 ff ff ff       	jmp    0x51ef
    521d:	48 81 c6 f7 ff ff ff 	add    rsi,0xfffffffffffffff7
    5224:	8a 06                	mov    al,BYTE PTR [rsi]
    5226:	84 c0                	test   al,al
    5228:	0f 84 0c 00 00 00    	je     0x523a
    522e:	48 81 c6 f7 ff ff ff 	add    rsi,0xfffffffffffffff7
    5235:	e9 ea ff ff ff       	jmp    0x5224
    523a:	48 ff c6             	inc    rsi
    523d:	80 06 0a             	add    BYTE PTR [rsi],0xa
    5240:	8a 06                	mov    al,BYTE PTR [rsi]
    5242:	84 c0                	test   al,al
    5244:	0f 84 32 00 00 00    	je     0x527c
    524a:	fe 0e                	dec    BYTE PTR [rsi]
    524c:	8a 06                	mov    al,BYTE PTR [rsi]
    524e:	84 c0                	test   al,al
    5250:	0f 84 1a 00 00 00    	je     0x5270
    5256:	fe 0e                	dec    BYTE PTR [rsi]
    5258:	48 81 c6 08 00 00 00 	add    rsi,0x8
    525f:	48 ff c6             	inc    rsi
    5262:	fe 06                	inc    BYTE PTR [rsi]
    5264:	48 81 c6 f7 ff ff ff 	add    rsi,0xfffffffffffffff7
    526b:	e9 dc ff ff ff       	jmp    0x524c
    5270:	48 81 c6 09 00 00 00 	add    rsi,0x9
    5277:	e9 c4 ff ff ff       	jmp    0x5240
    527c:	48 81 c6 05 00 00 00 	add    rsi,0x5
    5283:	fe 06                	inc    BYTE PTR [rsi]
    5285:	48 81 c6 09 00 00 00 	add    rsi,0x9
    528c:	fe 06                	inc    BYTE PTR [rsi]
    528e:	48 81 c6 f1 ff ff ff 	add    rsi,0xfffffffffffffff1
    5295:	8a 06                	mov    al,BYTE PTR [rsi]
    5297:	84 c0                	test   al,al
    5299:	0f 84 0c 00 00 00    	je     0x52ab
    529f:	48 81 c6 f7 ff ff ff 	add    rsi,0xfffffffffffffff7
    52a6:	e9 ea ff ff ff       	jmp    0x5295
    52ab:	48 81 c6 08 00 00 00 	add    rsi,0x8
    52b2:	8a 06                	mov    al,BYTE PTR [rsi]
    52b4:	84 c0                	test   al,al
    52b6:	0f 84 1e 00 00 00    	je     0x52da
    52bc:	fe 0e                	dec    BYTE PTR [rsi]
    52be:	48 81 c6 fa ff ff ff 	add    rsi,0xfffffffffffffffa
    52c5:	48 81 c6 fe ff ff ff 	add    rsi,0xfffffffffffffffe
    52cc:	fe 06                	inc    BYTE PTR [rsi]
    52ce:	48 81 c6 08 00 00 00 	add    rsi,0x8
    52d5:	e9 d8 ff ff ff       	jmp    0x52b2
    52da:	48 81 c6 f8 ff ff ff 	add    rsi,0xfffffffffffffff8
    52e1:	8a 06                	mov    al,BYTE PTR [rsi]
    52e3:	84 c0                	test   al,al
    52e5:	0f 84 e1 00 00 00    	je     0x53cc
    52eb:	fe 0e                	dec    BYTE PTR [rsi]
    52ed:	48 81 c6 08 00 00 00 	add    rsi,0x8
    52f4:	fe 06                	inc    BYTE PTR [rsi]
    52f6:	8a 06                	mov    al,BYTE PTR [rsi]
    52f8:	84 c0                	test   al,al
    52fa:	0f 84 07 00 00 00    	je     0x5307
    5300:	fe 0e                	dec    BYTE PTR [rsi]
    5302:	e9 ef ff ff ff       	jmp    0x52f6
    5307:	48 ff c6             	inc    rsi
    530a:	8a 06                	mov    al,BYTE PTR [rsi]
    530c:	84 c0                	test   al,al
    530e:	0f 84 0c 00 00 00    	je     0x5320
    5314:	48 81 c6 09 00 00 00 	add    rsi,0x9
    531b:	e9 ea ff ff ff       	jmp    0x530a
    5320:	48 81 c6 f7 ff ff ff 	add    rsi,0xfffffffffffffff7
    5327:	8a 06                	mov    al,BYTE PTR [rsi]
    5329:	84 c0                	test   al,al
    532b:	0f 84 96 00 00 00    	je     0x53c7
    5331:	48 81 c6 08 00 00 00 	add    rsi,0x8
    5338:	8a 06                	mov    al,BYTE PTR [rsi]
    533a:	84 c0                	test   al,al
    533c:	0f 84 1a 00 00 00    	je     0x535c
    5342:	fe 0e                	dec    BYTE PTR [rsi]
    5344:	48 81 c6 f9 ff ff ff 	add    rsi,0xfffffffffffffff9
    534b:	fe 06                	inc    BYTE PTR [rsi]
    534d:	48 81 c6 06 00 00 00 	add    rsi,0x6
    5354:	48 ff c6             	inc    rsi
    5357:	e9 dc ff ff ff       	jmp    0x5338
    535c:	48 81 c6 f9 ff ff ff 	add    rsi,0xfffffffffffffff9
    5363:	8a 06                	mov    al,BYTE PTR [rsi]
    5365:	84 c0                	test   al,al
    5367:	0f 84 4e 00 00 00    	je     0x53bb
    536d:	fe 0e                	dec    BYTE PTR [rsi]
    536f:	48 81 c6 07 00 00 00 	add    rsi,0x7
    5376:	fe 06                	inc    BYTE PTR [rsi]
    5378:	48 81 c6 f8 ff ff ff 	add    rsi,0xfffffffffffffff8
    537f:	8a 06                	mov    al,BYTE PTR [rsi]
    5381:	84 c0                	test   al,al
    5383:	0f 84 0c 00 00 00    	je     0x5395
    5389:	48 81 c6 f7 ff ff ff 	add    rsi,0xfffffffffffffff7
    5390:	e9 ea ff ff ff       	jmp    0x537f
    5395:	48 81 c6 08 00 00 00 	add    rsi,0x8
    539c:	8a 06                	mov    al,BYTE PTR [rsi]
    539e:	84 c0                	test   al,al
    53a0:	0f 84 07 00 00 00    	je     0x53ad
    53a6:	fe 0e                	dec    BYTE PTR [rsi]
    53a8:	e9 ef ff ff ff       	jmp    0x539c
    53ad:	fe 06                	inc    BYTE PTR [rsi]
    53af:	48 81 c6 02 00 00 00 	add    rsi,0x2
    53b6:	e9 a8 ff ff ff       	jmp    0x5363
    53bb:	48 81 c6 f6 ff ff ff 	add    rsi,0xfffffffffffffff6
    53c2:	e9 60 ff ff ff       	jmp    0x5327
    53c7:	e9 15 ff ff ff       	jmp    0x52e1
    53cc:	48 81 c6 08 00 00 00 	add    rsi,0x8
    53d3:	8a 06                	mov    al,BYTE PTR [rsi]
    53d5:	84 c0                	test   al,al
    53d7:	0f 84 1e 00 00 00    	je     0x53fb
    53dd:	fe 0e                	dec    BYTE PTR [rsi]
    53df:	48 81 c6 fb ff ff ff 	add    rsi,0xfffffffffffffffb
    53e6:	48 81 c6 fd ff ff ff 	add    rsi,0xfffffffffffffffd
    53ed:	fe 06                	inc    BYTE PTR [rsi]
    53ef:	48 81 c6 08 00 00 00 	add    rsi,0x8
    53f6:	e9 d8 ff ff ff       	jmp    0x53d3
    53fb:	48 81 c6 f8 ff ff ff 	add    rsi,0xfffffffffffffff8
    5402:	8a 06                	mov    al,BYTE PTR [rsi]
    5404:	84 c0                	test   al,al
    5406:	0f 84 f0 01 00 00    	je     0x55fc
    540c:	fe 0e                	dec    BYTE PTR [rsi]
    540e:	48 81 c6 08 00 00 00 	add    rsi,0x8
    5415:	fe 06                	inc    BYTE PTR [rsi]
    5417:	48 ff c6             	inc    rsi
    541a:	8a 06                	mov    al,BYTE PTR [rsi]
    541c:	84 c0                	test   al,al
    541e:	0f 84 68 00 00 00    	je     0x548c
    5424:	48 ff c6             	inc    rsi
    5427:	fe 06                	inc    BYTE PTR [rsi]
    5429:	48 81 c6 05 00 00 00 	add    rsi,0x5
    5430:	8a 06                	mov    al,BYTE PTR [rsi]
    5432:	84 c0                	test   al,al
    5434:	0f 84 17 00 00 00    	je     0x5451
    543a:	fe 0e                	dec    BYTE PTR [rsi]
    543c:	48 81 c6 fb ff ff ff 	add    rsi,0xfffffffffffffffb
    5443:	fe 0e                	dec    BYTE PTR [rsi]
    5445:	48 81 c6 05 00 00 00 	add    rsi,0x5
    544c:	e9 df ff ff ff       	jmp    0x5430
    5451:	48 81 c6 fb ff ff ff 	add    rsi,0xfffffffffffffffb
    5458:	8a 06                	mov    al,BYTE PTR [rsi]
    545a:	84 c0                	test   al,al
    545c:	0f 84 17 00 00 00    	je     0x5479
    5462:	fe 0e                	dec    BYTE PTR [rsi]
    5464:	48 81 c6 05 00 00 00 	add    rsi,0x5
    546b:	fe 06                	inc    BYTE PTR [rsi]
    546d:	48 81 c6 fb ff ff ff 	add    rsi,0xfffffffffffffffb
    5474:	e9 df ff ff ff       	jmp    0x5458
    5479:	48 81 c6 06 00 00 00 	add    rsi,0x6
    5480:	48 81 c6 02 00 00 00 	add    rsi,0x2
    5487:	e9 8e ff ff ff       	jmp    0x541a
    548c:	48 ff ce             	dec    rsi
    548f:	fe 06                	inc    BYTE PTR [rsi]
    5491:	48 81 c6 f8 ff ff ff 	add    rsi,0xfffffffffffffff8
    5498:	8a 06                	mov    al,BYTE PTR [rsi]
    549a:	84 c0                	test   al,al
    549c:	0f 84 34 00 00 00    	je     0x54d6
    54a2:	48 81 c6 06 00 00 00 	add    rsi,0x6
    54a9:	8a 06                	mov    al,BYTE PTR [rsi]
    54ab:	84 c0                	test   al,al
    54ad:	0f 84 17 00 00 00    	je     0x54ca
    54b3:	fe 0e                	dec    BYTE PTR [rsi]
    54b5:	48 81 c6 02 00 00 00 	add    rsi,0x2
    54bc:	fe 06                	inc    BYTE PTR [rsi]
    54be:	48 81 c6 fe ff ff ff 	add    rsi,0xfffffffffffffffe
    54c5:	e9 df ff ff ff       	jmp    0x54a9
    54ca:	48 81 c6 f1 ff ff ff 	add    rsi,0xfffffffffffffff1
    54d1:	e9 c2 ff ff ff       	jmp    0x5498
    54d6:	48 81 c6 09 00 00 00 	add    rsi,0x9
    54dd:	8a 06                	mov    al,BYTE PTR [rsi]
    54df:	84 c0                	test   al,al
    54e1:	0f 84 0c 00 00 00    	je     0x54f3
    54e7:	48 81 c6 09 00 00 00 	add    rsi,0x9
    54ee:	e9 ea ff ff ff       	jmp    0x54dd
    54f3:	48 81 c6 f7 ff ff ff 	add    rsi,0xfffffffffffffff7
    54fa:	8a 06                	mov    al,BYTE PTR [rsi]
    54fc:	84 c0                	test   al,al
    54fe:	0f 84 c9 00 00 00    	je     0x55cd
    5504:	48 ff c6             	inc    rsi
    5507:	8a 06                	mov    al,BYTE PTR [rsi]
    5509:	84 c0                	test   al,al
    550b:	0f 84 07 00 00 00    	je     0x5518
    5511:	fe 0e                	dec    BYTE PTR [rsi]
    5513:	e9 ef ff ff ff       	jmp    0x5507
    5518:	48 ff ce             	dec    rsi
    551b:	fe 0e                	dec    BYTE PTR [rsi]
    551d:	48 81 c6 08 00 00 00 	add    rsi,0x8
    5524:	8a 06                	mov    al,BYTE PTR [rsi]
    5526:	84 c0                	test   al,al
    5528:	0f 84 5f 00 00 00    	je     0x558d
    552e:	fe 0e                	dec    BYTE PTR [rsi]
    5530:	48 81 c6 f8 ff ff ff 	add    rsi,0xfffffffffffffff8
    5537:	fe 06                	inc    BYTE PTR [rsi]
    5539:	48 ff c6             	inc    rsi
    553c:	8a 06                	mov    al,BYTE PTR [rsi]
    553e:	84 c0                	test   al,al
    5540:	0f 84 1f 00 00 00    	je     0x5565
    5546:	48 ff ce             	dec    rsi
    5549:	fe 0e                	dec    BYTE PTR [rsi]
    554b:	48 ff c6             	inc    rsi
    554e:	fe 0e                	dec    BYTE PTR [rsi]
    5550:	48 81 c6 fe ff ff ff 	add    rsi,0xfffffffffffffffe
    5557:	fe 06                	inc    BYTE PTR [rsi]
    5559:	48 81 c6 02 00 00 00 	add    rsi,0x2
    5560:	e9 d7 ff ff ff       	jmp    0x553c
    5565:	48 ff ce             	dec    rsi
    5568:	8a 06                	mov    al,BYTE PTR [rsi]
    556a:	84 c0                	test   al,al
    556c:	0f 84 0f 00 00 00    	je     0x5581
    5572:	fe 0e                	dec    BYTE PTR [rsi]
    5574:	48 ff c6             	inc    rsi
    5577:	fe 06                	inc    BYTE PTR [rsi]
    5579:	48 ff ce             	dec    rsi
    557c:	e9 e7 ff ff ff       	jmp    0x5568
    5581:	48 81 c6 08 00 00 00 	add    rsi,0x8
    5588:	e9 97 ff ff ff       	jmp    0x5524
    558d:	48 81 c6 f9 ff ff ff 	add    rsi,0xfffffffffffffff9
    5594:	8a 06                	mov    al,BYTE PTR [rsi]
    5596:	84 c0                	test   al,al
    5598:	0f 84 17 00 00 00    	je     0x55b5
    559e:	fe 0e                	dec    BYTE PTR [rsi]
    55a0:	48 81 c6 07 00 00 00 	add    rsi,0x7
    55a7:	fe 06                	inc    BYTE PTR [rsi]
    55a9:	48 81 c6 f9 ff ff ff 	add    rsi,0xfffffffffffffff9
    55b0:	e9 df ff ff ff       	jmp    0x5594
    55b5:	48 ff ce             	dec    rsi
    55b8:	fe 06                	inc    BYTE PTR [rsi]
    55ba:	48 81 c6 fa ff ff ff 	add    rsi,0xfffffffffffffffa
    55c1:	48 81 c6 fd ff ff ff 	add    rsi,0xfffffffffffffffd
    55c8:	e9 2d ff ff ff       	jmp    0x54fa
    55cd:	48 81 c6 08 00 00 00 	add    rsi,0x8
    55d4:	fe 0e                	dec    BYTE PTR [rsi]
    55d6:	48 81 c6 fb ff ff ff 	add    rsi,0xfffffffffffffffb
    55dd:	8a 06                	mov    al,BYTE PTR [rsi]
    55df:	84 c0                	test   al,al
    55e1:	0f 84 07 00 00 00    	je     0x55ee
    55e7:	fe 0e                	dec    BYTE PTR [rsi]
    55e9:	e9 ef ff ff ff       	jmp    0x55dd
    55ee:	fe 06                	inc    BYTE PTR [rsi]
    55f0:	48 81 c6 fd ff ff ff 	add    rsi,0xfffffffffffffffd
    55f7:	e9 06 fe ff ff       	jmp    0x5402
    55fc:	fe 06                	inc    BYTE PTR [rsi]
    55fe:	48 81 c6 08 00 00 00 	add    rsi,0x8
    5605:	8a 06                	mov    al,BYTE PTR [rsi]
    5607:	84 c0                	test   al,al
    5609:	0f 84 17 00 00 00    	je     0x5626
    560f:	fe 0e                	dec    BYTE PTR [rsi]
    5611:	48 81 c6 f8 ff ff ff 	add    rsi,0xfffffffffffffff8
    5618:	fe 0e                	dec    BYTE PTR [rsi]
    561a:	48 81 c6 08 00 00 00 	add    rsi,0x8
    5621:	e9 df ff ff ff       	jmp    0x5605
    5626:	fe 06                	inc    BYTE PTR [rsi]
    5628:	48 81 c6 f8 ff ff ff 	add    rsi,0xfffffffffffffff8
    562f:	8a 06                	mov    al,BYTE PTR [rsi]
    5631:	84 c0                	test   al,al
    5633:	0f 84 a7 04 00 00    	je     0x5ae0
    5639:	fe 0e                	dec    BYTE PTR [rsi]
    563b:	48 81 c6 08 00 00 00 	add    rsi,0x8
    5642:	fe 0e                	dec    BYTE PTR [rsi]
    5644:	48 ff c6             	inc    rsi
    5647:	8a 06                	mov    al,BYTE PTR [rsi]
    5649:	84 c0                	test   al,al
    564b:	0f 84 3b 00 00 00    	je     0x568c
    5651:	48 81 c6 03 00 00 00 	add    rsi,0x3
    5658:	48 81 c6 03 00 00 00 	add    rsi,0x3
    565f:	8a 06                	mov    al,BYTE PTR [rsi]
    5661:	84 c0                	test   al,al
    5663:	0f 84 17 00 00 00    	je     0x5680
    5669:	fe 0e                	dec    BYTE PTR [rsi]
    566b:	48 81 c6 02 00 00 00 	add    rsi,0x2
    5672:	fe 06                	inc    BYTE PTR [rsi]
    5674:	48 81 c6 fe ff ff ff 	add    rsi,0xfffffffffffffffe
    567b:	e9 df ff ff ff       	jmp    0x565f
    5680:	48 81 c6 03 00 00 00 	add    rsi,0x3
    5687:	e9 bb ff ff ff       	jmp    0x5647
    568c:	48 81 c6 f7 ff ff ff 	add    rsi,0xfffffffffffffff7
    5693:	8a 06                	mov    al,BYTE PTR [rsi]
    5695:	84 c0                	test   al,al
    5697:	0f 84 c9 00 00 00    	je     0x5766
    569d:	48 ff c6             	inc    rsi
    56a0:	8a 06                	mov    al,BYTE PTR [rsi]
    56a2:	84 c0                	test   al,al
    56a4:	0f 84 07 00 00 00    	je     0x56b1
    56aa:	fe 0e                	dec    BYTE PTR [rsi]
    56ac:	e9 ef ff ff ff       	jmp    0x56a0
    56b1:	48 ff ce             	dec    rsi
    56b4:	fe 0e                	dec    BYTE PTR [rsi]
    56b6:	48 81 c6 08 00 00 00 	add    rsi,0x8
    56bd:	8a 06                	mov    al,BYTE PTR [rsi]
    56bf:	84 c0                	test   al,al
    56c1:	0f 84 5f 00 00 00    	je     0x5726
    56c7:	fe 0e                	dec    BYTE PTR [rsi]
    56c9:	48 81 c6 f8 ff ff ff 	add    rsi,0xfffffffffffffff8
    56d0:	fe 06                	inc    BYTE PTR [rsi]
    56d2:	48 ff c6             	inc    rsi
    56d5:	8a 06                	mov    al,BYTE PTR [rsi]
    56d7:	84 c0                	test   al,al
    56d9:	0f 84 1f 00 00 00    	je     0x56fe
    56df:	48 ff ce             	dec    rsi
    56e2:	fe 0e                	dec    BYTE PTR [rsi]
    56e4:	48 ff c6             	inc    rsi
    56e7:	fe 0e                	dec    BYTE PTR [rsi]
    56e9:	48 81 c6 fe ff ff ff 	add    rsi,0xfffffffffffffffe
    56f0:	fe 06                	inc    BYTE PTR [rsi]
    56f2:	48 81 c6 02 00 00 00 	add    rsi,0x2
    56f9:	e9 d7 ff ff ff       	jmp    0x56d5
    56fe:	48 ff ce             	dec    rsi
    5701:	8a 06                	mov    al,BYTE PTR [rsi]
    5703:	84 c0                	test   al,al
    5705:	0f 84 0f 00 00 00    	je     0x571a
    570b:	fe 0e                	dec    BYTE PTR [rsi]
    570d:	48 ff c6             	inc    rsi
    5710:	fe 06                	inc    BYTE PTR [rsi]
    5712:	48 ff ce             	dec    rsi
    5715:	e9 e7 ff ff ff       	jmp    0x5701
    571a:	48 81 c6 08 00 00 00 	add    rsi,0x8
    5721:	e9 97 ff ff ff       	jmp    0x56bd
    5726:	48 81 c6 fe ff ff ff 	add    rsi,0xfffffffffffffffe
    572d:	48 81 c6 fb ff ff ff 	add    rsi,0xfffffffffffffffb
    5734:	8a 06                	mov    al,BYTE PTR [rsi]
    5736:	84 c0                	test   al,al
    5738:	0f 84 17 00 00 00    	je     0x5755
    573e:	fe 0e                	dec    BYTE PTR [rsi]
    5740:	48 81 c6 07 00 00 00 	add    rsi,0x7
    5747:	fe 06                	inc    BYTE PTR [rsi]
    5749:	48 81 c6 f9 ff ff ff 	add    rsi,0xfffffffffffffff9
    5750:	e9 df ff ff ff       	jmp    0x5734
    5755:	48 ff ce             	dec    rsi
    5758:	fe 06                	inc    BYTE PTR [rsi]
    575a:	48 81 c6 f7 ff ff ff 	add    rsi,0xfffffffffffffff7
    5761:	e9 2d ff ff ff       	jmp    0x5693
    5766:	48 ff c6             	inc    rsi
    5769:	80 06 05             	add    BYTE PTR [rsi],0x5
    576c:	8a 06                	mov    al,BYTE PTR [rsi]
    576e:	84 c0                	test   al,al
    5770:	0f 84 2f 00 00 00    	je     0x57a5
    5776:	fe 0e                	dec    BYTE PTR [rsi]
    5778:	8a 06                	mov    al,BYTE PTR [rsi]
    577a:	84 c0                	test   al,al
    577c:	0f 84 17 00 00 00    	je     0x5799
    5782:	fe 0e                	dec    BYTE PTR [rsi]
    5784:	48 81 c6 09 00 00 00 	add    rsi,0x9
    578b:	fe 06                	inc    BYTE PTR [rsi]
    578d:	48 81 c6 f7 ff ff ff 	add    rsi,0xfffffffffffffff7
    5794:	e9 df ff ff ff       	jmp    0x5778
    5799:	48 81 c6 09 00 00 00 	add    rsi,0x9
    57a0:	e9 c7 ff ff ff       	jmp    0x576c
    57a5:	48 81 c6 05 00 00 00 	add    rsi,0x5
    57ac:	fe 06                	inc    BYTE PTR [rsi]
    57ae:	48 81 c6 1b 00 00 00 	add    rsi,0x1b
    57b5:	fe 06                	inc    BYTE PTR [rsi]
    57b7:	48 81 c6 fa ff ff ff 	add    rsi,0xfffffffffffffffa
    57be:	8a 06                	mov    al,BYTE PTR [rsi]
    57c0:	84 c0                	test   al,al
    57c2:	0f 84 0c 00 00 00    	je     0x57d4
    57c8:	48 81 c6 f7 ff ff ff 	add    rsi,0xfffffffffffffff7
    57cf:	e9 ea ff ff ff       	jmp    0x57be
    57d4:	48 81 c6 09 00 00 00 	add    rsi,0x9
    57db:	8a 06                	mov    al,BYTE PTR [rsi]
    57dd:	84 c0                	test   al,al
    57df:	0f 84 46 02 00 00    	je     0x5a2b
    57e5:	48 81 c6 06 00 00 00 	add    rsi,0x6
    57ec:	8a 06                	mov    al,BYTE PTR [rsi]
    57ee:	84 c0                	test   al,al
    57f0:	0f 84 17 00 00 00    	je     0x580d
    57f6:	fe 0e                	dec    BYTE PTR [rsi]
    57f8:	48 81 c6 fa ff ff ff 	add    rsi,0xfffffffffffffffa
    57ff:	fe 0e                	dec    BYTE PTR [rsi]
    5801:	48 81 c6 06 00 00 00 	add    rsi,0x6
    5808:	e9 df ff ff ff       	jmp    0x57ec
    580d:	fe 06                	inc    BYTE PTR [rsi]
    580f:	48 ff ce             	dec    rsi
    5812:	48 81 c6 fb ff ff ff 	add    rsi,0xfffffffffffffffb
    5819:	8a 06                	mov    al,BYTE PTR [rsi]
    581b:	84 c0                	test   al,al
    581d:	0f 84 bc 00 00 00    	je     0x58df
    5823:	fe 0e                	dec    BYTE PTR [rsi]
    5825:	48 81 c6 06 00 00 00 	add    rsi,0x6
    582c:	fe 0e                	dec    BYTE PTR [rsi]
    582e:	48 81 c6 02 00 00 00 	add    rsi,0x2
    5835:	8a 06                	mov    al,BYTE PTR [rsi]
    5837:	84 c0                	test   al,al
    5839:	0f 84 17 00 00 00    	je     0x5856
    583f:	fe 0e                	dec    BYTE PTR [rsi]
    5841:	48 81 c6 f8 ff ff ff 	add    rsi,0xfffffffffffffff8
    5848:	fe 06                	inc    BYTE PTR [rsi]
    584a:	48 81 c6 08 00 00 00 	add    rsi,0x8
    5851:	e9 df ff ff ff       	jmp    0x5835
    5856:	48 81 c6 f8 ff ff ff 	add    rsi,0xfffffffffffffff8
    585d:	8a 06                	mov    al,BYTE PTR [rsi]
    585f:	84 c0                	test   al,al
    5861:	0f 84 73 00 00 00    	je     0x58da
    5867:	fe 0e                	dec    BYTE PTR [rsi]
    5869:	48 81 c6 08 00 00 00 	add    rsi,0x8
    5870:	fe 06                	inc    BYTE PTR [rsi]
    5872:	48 81 c6 ef ff ff ff 	add    rsi,0xffffffffffffffef
    5879:	8a 06                	mov    al,BYTE PTR [rsi]
    587b:	84 c0                	test   al,al
    587d:	0f 84 13 00 00 00    	je     0x5896
    5883:	48 81 c6 f9 ff ff ff 	add    rsi,0xfffffffffffffff9
    588a:	48 81 c6 fe ff ff ff 	add    rsi,0xfffffffffffffffe
    5891:	e9 e3 ff ff ff       	jmp    0x5879
    5896:	48 81 c6 04 00 00 00 	add    rsi,0x4
    589d:	8a 06                	mov    al,BYTE PTR [rsi]
    589f:	84 c0                	test   al,al
    58a1:	0f 84 07 00 00 00    	je     0x58ae
    58a7:	fe 0e                	dec    BYTE PTR [rsi]
    58a9:	e9 ef ff ff ff       	jmp    0x589d
    58ae:	fe 06                	inc    BYTE PTR [rsi]
    58b0:	48 81 c6 05 00 00 00 	add    rsi,0x5
    58b7:	8a 06                	mov    al,BYTE PTR [rsi]
    58b9:	84 c0                	test   al,al
    58bb:	0f 84 0c 00 00 00    	je     0x58cd
    58c1:	48 81 c6 09 00 00 00 	add    rsi,0x9
    58c8:	e9 ea ff ff ff       	jmp    0x58b7
    58cd:	48 ff c6             	inc    rsi
    58d0:	fe 06                	inc    BYTE PTR [rsi]
    58d2:	48 ff ce             	dec    rsi
    58d5:	e9 83 ff ff ff       	jmp    0x585d
    58da:	e9 3a ff ff ff       	jmp    0x5819
    58df:	fe 06                	inc    BYTE PTR [rsi]
    58e1:	48 81 c6 08 00 00 00 	add    rsi,0x8
    58e8:	8a 06                	mov    al,BYTE PTR [rsi]
    58ea:	84 c0                	test   al,al
    58ec:	0f 84 17 00 00 00    	je     0x5909
    58f2:	fe 0e                	dec    BYTE PTR [rsi]
    58f4:	48 81 c6 f8 ff ff ff 	add    rsi,0xfffffffffffffff8
    58fb:	fe 0e                	dec    BYTE PTR [rsi]
    58fd:	48 81 c6 08 00 00 00 	add    rsi,0x8
    5904:	e9 df ff ff ff       	jmp    0x58e8
    5909:	fe 06                	inc    BYTE PTR [rsi]
    590b:	48 81 c6 f8 ff ff ff 	add    rsi,0xfffffffffffffff8
    5912:	8a 06                	mov    al,BYTE PTR [rsi]
    5914:	84 c0                	test   al,al
    5916:	0f 84 cd 00 00 00    	je     0x59e9
    591c:	fe 0e                	dec    BYTE PTR [rsi]
    591e:	48 81 c6 08 00 00 00 	add    rsi,0x8
    5925:	fe 0e                	dec    BYTE PTR [rsi]
    5927:	48 81 c6 fe ff ff ff 	add    rsi,0xfffffffffffffffe
    592e:	8a 06                	mov    al,BYTE PTR [rsi]
    5930:	84 c0                	test   al,al
    5932:	0f 84 17 00 00 00    	je     0x594f
    5938:	fe 0e                	dec    BYTE PTR [rsi]
    593a:	48 81 c6 fa ff ff ff 	add    rsi,0xfffffffffffffffa
    5941:	fe 06                	inc    BYTE PTR [rsi]
    5943:	48 81 c6 06 00 00 00 	add    rsi,0x6
    594a:	e9 df ff ff ff       	jmp    0x592e
    594f:	48 81 c6 fa ff ff ff 	add    rsi,0xfffffffffffffffa
    5956:	8a 06                	mov    al,BYTE PTR [rsi]
    5958:	84 c0                	test   al,al
    595a:	0f 84 84 00 00 00    	je     0x59e4
    5960:	fe 0e                	dec    BYTE PTR [rsi]
    5962:	48 81 c6 06 00 00 00 	add    rsi,0x6
    5969:	fe 06                	inc    BYTE PTR [rsi]
    596b:	48 81 c6 f1 ff ff ff 	add    rsi,0xfffffffffffffff1
    5972:	8a 06                	mov    al,BYTE PTR [rsi]
    5974:	84 c0                	test   al,al
    5976:	0f 84 0c 00 00 00    	je     0x5988
    597c:	48 81 c6 f7 ff ff ff 	add    rsi,0xfffffffffffffff7
    5983:	e9 ea ff ff ff       	jmp    0x5972
    5988:	48 81 c6 03 00 00 00 	add    rsi,0x3
    598f:	8a 06                	mov    al,BYTE PTR [rsi]
    5991:	84 c0                	test   al,al
    5993:	0f 84 07 00 00 00    	je     0x59a0
    5999:	fe 0e                	dec    BYTE PTR [rsi]
    599b:	e9 ef ff ff ff       	jmp    0x598f
    59a0:	fe 06                	inc    BYTE PTR [rsi]
    59a2:	48 81 c6 06 00 00 00 	add    rsi,0x6
    59a9:	8a 06                	mov    al,BYTE PTR [rsi]
    59ab:	84 c0                	test   al,al
    59ad:	0f 84 13 00 00 00    	je     0x59c6
    59b3:	48 81 c6 06 00 00 00 	add    rsi,0x6
    59ba:	48 81 c6 03 00 00 00 	add    rsi,0x3
    59c1:	e9 e3 ff ff ff       	jmp    0x59a9
    59c6:	48 ff c6             	inc    rsi
    59c9:	8a 06                	mov    al,BYTE PTR [rsi]
    59cb:	84 c0                	test   al,al
    59cd:	0f 84 07 00 00 00    	je     0x59da
    59d3:	fe 0e                	dec    BYTE PTR [rsi]
    59d5:	e9 ef ff ff ff       	jmp    0x59c9
    59da:	fe 06                	inc    BYTE PTR [rsi]
    59dc:	48 ff ce             	dec    rsi
    59df:	e9 72 ff ff ff       	jmp    0x5956
    59e4:	e9 29 ff ff ff       	jmp    0x5912
    59e9:	fe 06                	inc    BYTE PTR [rsi]
    59eb:	48 ff c6             	inc    rsi
    59ee:	8a 06                	mov    al,BYTE PTR [rsi]
    59f0:	84 c0                	test   al,al
    59f2:	0f 84 27 00 00 00    	je     0x5a1f
    59f8:	fe 0e                	dec    BYTE PTR [rsi]
    59fa:	48 ff ce             	dec    rsi
    59fd:	8a 06                	mov    al,BYTE PTR [rsi]
    59ff:	84 c0                	test   al,al
    5a01:	0f 84 0c 00 00 00    	je     0x5a13
    5a07:	48 81 c6 09 00 00 00 	add    rsi,0x9
    5a0e:	e9 ea ff ff ff       	jmp    0x59fd
    5a13:	48 81 c6 f8 ff ff ff 	add    rsi,0xfffffffffffffff8
    5a1a:	e9 cf ff ff ff       	jmp    0x59ee
    5a1f:	48 81 c6 08 00 00 00 	add    rsi,0x8
    5a26:	e9 b0 fd ff ff       	jmp    0x57db
    5a2b:	48 81 c6 f7 ff ff ff 	add    rsi,0xfffffffffffffff7
    5a32:	8a 06                	mov    al,BYTE PTR [rsi]
    5a34:	84 c0                	test   al,al
    5a36:	0f 84 0c 00 00 00    	je     0x5a48
    5a3c:	48 81 c6 f7 ff ff ff 	add    rsi,0xfffffffffffffff7
    5a43:	e9 ea ff ff ff       	jmp    0x5a32
    5a48:	48 81 c6 04 00 00 00 	add    rsi,0x4
    5a4f:	8a 06                	mov    al,BYTE PTR [rsi]
    5a51:	84 c0                	test   al,al
    5a53:	0f 84 07 00 00 00    	je     0x5a60
    5a59:	fe 0e                	dec    BYTE PTR [rsi]
    5a5b:	e9 ef ff ff ff       	jmp    0x5a4f
    5a60:	48 81 c6 fd ff ff ff 	add    rsi,0xfffffffffffffffd
    5a67:	80 06 04             	add    BYTE PTR [rsi],0x4
    5a6a:	fe 06                	inc    BYTE PTR [rsi]
    5a6c:	8a 06                	mov    al,BYTE PTR [rsi]
    5a6e:	84 c0                	test   al,al
    5a70:	0f 84 2f 00 00 00    	je     0x5aa5
    5a76:	fe 0e                	dec    BYTE PTR [rsi]
    5a78:	8a 06                	mov    al,BYTE PTR [rsi]
    5a7a:	84 c0                	test   al,al
    5a7c:	0f 84 17 00 00 00    	je     0x5a99
    5a82:	fe 0e                	dec    BYTE PTR [rsi]
    5a84:	48 81 c6 09 00 00 00 	add    rsi,0x9
    5a8b:	fe 06                	inc    BYTE PTR [rsi]
    5a8d:	48 81 c6 f7 ff ff ff 	add    rsi,0xfffffffffffffff7
    5a94:	e9 df ff ff ff       	jmp    0x5a78
    5a99:	48 81 c6 09 00 00 00 	add    rsi,0x9
    5aa0:	e9 c7 ff ff ff       	jmp    0x5a6c
    5aa5:	48 81 c6 05 00 00 00 	add    rsi,0x5
    5aac:	fe 0e                	dec    BYTE PTR [rsi]
    5aae:	48 81 c6 1b 00 00 00 	add    rsi,0x1b
    5ab5:	fe 0e                	dec    BYTE PTR [rsi]
    5ab7:	48 81 c6 fa ff ff ff 	add    rsi,0xfffffffffffffffa
    5abe:	8a 06                	mov    al,BYTE PTR [rsi]
    5ac0:	84 c0                	test   al,al
    5ac2:	0f 84 13 00 00 00    	je     0x5adb
    5ac8:	48 81 c6 fc ff ff ff 	add    rsi,0xfffffffffffffffc
    5acf:	48 81 c6 fb ff ff ff 	add    rsi,0xfffffffffffffffb
    5ad6:	e9 e3 ff ff ff       	jmp    0x5abe
    5adb:	e9 4f fb ff ff       	jmp    0x562f
    5ae0:	48 81 c6 03 00 00 00 	add    rsi,0x3
    5ae7:	e9 be a6 ff ff       	jmp    0x1aa
    5aec:	48 83 c4 20          	add    rsp,0x20
    5af0:	c3                   	ret    
