
example.bin:     file format binary


Disassembly of section .data:

0000000000000000 <.data>:
       0:	48 be 50 56 75 d4 f7 	movabs rsi,0x7ff7d4755650
       7:	7f 00 00 
       a:	49 bc 90 56 47 40 f8 	movabs r12,0x7ff840475690
      11:	7f 00 00 
      14:	49 bd 10 4f 47 40 f8 	movabs r13,0x7ff840474f10
      1b:	7f 00 00 
      1e:	48 83 ec 20          	sub    rsp,0x20
      22:	fe 06                	inc    BYTE PTR [rsi]
      24:	fe 06                	inc    BYTE PTR [rsi]
      26:	fe 06                	inc    BYTE PTR [rsi]
      28:	fe 06                	inc    BYTE PTR [rsi]
      2a:	fe 06                	inc    BYTE PTR [rsi]
      2c:	fe 06                	inc    BYTE PTR [rsi]
      2e:	fe 06                	inc    BYTE PTR [rsi]
      30:	fe 06                	inc    BYTE PTR [rsi]
      32:	fe 06                	inc    BYTE PTR [rsi]
      34:	fe 06                	inc    BYTE PTR [rsi]
      36:	fe 06                	inc    BYTE PTR [rsi]
      38:	fe 06                	inc    BYTE PTR [rsi]
      3a:	fe 06                	inc    BYTE PTR [rsi]
      3c:	8a 06                	mov    al,BYTE PTR [rsi]
      3e:	84 c0                	test   al,al
      40:	0f 84 3f 00 00 00    	je     0x85
      46:	fe 0e                	dec    BYTE PTR [rsi]
      48:	48 ff c6             	inc    rsi
      4b:	fe 06                	inc    BYTE PTR [rsi]
      4d:	fe 06                	inc    BYTE PTR [rsi]
      4f:	48 ff c6             	inc    rsi
      52:	48 ff c6             	inc    rsi
      55:	48 ff c6             	inc    rsi
      58:	fe 06                	inc    BYTE PTR [rsi]
      5a:	fe 06                	inc    BYTE PTR [rsi]
      5c:	fe 06                	inc    BYTE PTR [rsi]
      5e:	fe 06                	inc    BYTE PTR [rsi]
      60:	fe 06                	inc    BYTE PTR [rsi]
      62:	48 ff c6             	inc    rsi
      65:	fe 06                	inc    BYTE PTR [rsi]
      67:	fe 06                	inc    BYTE PTR [rsi]
      69:	48 ff c6             	inc    rsi
      6c:	fe 06                	inc    BYTE PTR [rsi]
      6e:	48 ff ce             	dec    rsi
      71:	48 ff ce             	dec    rsi
      74:	48 ff ce             	dec    rsi
      77:	48 ff ce             	dec    rsi
      7a:	48 ff ce             	dec    rsi
      7d:	48 ff ce             	dec    rsi
      80:	e9 b7 ff ff ff       	jmp    0x3c
      85:	48 ff c6             	inc    rsi
      88:	48 ff c6             	inc    rsi
      8b:	48 ff c6             	inc    rsi
      8e:	48 ff c6             	inc    rsi
      91:	48 ff c6             	inc    rsi
      94:	fe 06                	inc    BYTE PTR [rsi]
      96:	fe 06                	inc    BYTE PTR [rsi]
      98:	fe 06                	inc    BYTE PTR [rsi]
      9a:	fe 06                	inc    BYTE PTR [rsi]
      9c:	fe 06                	inc    BYTE PTR [rsi]
      9e:	fe 06                	inc    BYTE PTR [rsi]
      a0:	48 ff c6             	inc    rsi
      a3:	fe 0e                	dec    BYTE PTR [rsi]
      a5:	fe 0e                	dec    BYTE PTR [rsi]
      a7:	fe 0e                	dec    BYTE PTR [rsi]
      a9:	48 ff c6             	inc    rsi
      ac:	48 ff c6             	inc    rsi
      af:	48 ff c6             	inc    rsi
      b2:	48 ff c6             	inc    rsi
      b5:	48 ff c6             	inc    rsi
      b8:	48 ff c6             	inc    rsi
      bb:	48 ff c6             	inc    rsi
      be:	48 ff c6             	inc    rsi
      c1:	48 ff c6             	inc    rsi
      c4:	48 ff c6             	inc    rsi
      c7:	fe 06                	inc    BYTE PTR [rsi]
      c9:	fe 06                	inc    BYTE PTR [rsi]
      cb:	fe 06                	inc    BYTE PTR [rsi]
      cd:	fe 06                	inc    BYTE PTR [rsi]
      cf:	fe 06                	inc    BYTE PTR [rsi]
      d1:	fe 06                	inc    BYTE PTR [rsi]
      d3:	fe 06                	inc    BYTE PTR [rsi]
      d5:	fe 06                	inc    BYTE PTR [rsi]
      d7:	fe 06                	inc    BYTE PTR [rsi]
      d9:	fe 06                	inc    BYTE PTR [rsi]
      db:	fe 06                	inc    BYTE PTR [rsi]
      dd:	fe 06                	inc    BYTE PTR [rsi]
      df:	fe 06                	inc    BYTE PTR [rsi]
      e1:	fe 06                	inc    BYTE PTR [rsi]
      e3:	fe 06                	inc    BYTE PTR [rsi]
      e5:	8a 06                	mov    al,BYTE PTR [rsi]
      e7:	84 c0                	test   al,al
      e9:	0f 84 78 00 00 00    	je     0x167
      ef:	8a 06                	mov    al,BYTE PTR [rsi]
      f1:	84 c0                	test   al,al
      f3:	0f 84 20 00 00 00    	je     0x119
      f9:	48 ff c6             	inc    rsi
      fc:	48 ff c6             	inc    rsi
      ff:	48 ff c6             	inc    rsi
     102:	48 ff c6             	inc    rsi
     105:	48 ff c6             	inc    rsi
     108:	48 ff c6             	inc    rsi
     10b:	48 ff c6             	inc    rsi
     10e:	48 ff c6             	inc    rsi
     111:	48 ff c6             	inc    rsi
     114:	e9 d6 ff ff ff       	jmp    0xef
     119:	fe 06                	inc    BYTE PTR [rsi]
     11b:	8a 06                	mov    al,BYTE PTR [rsi]
     11d:	84 c0                	test   al,al
     11f:	0f 84 20 00 00 00    	je     0x145
     125:	48 ff ce             	dec    rsi
     128:	48 ff ce             	dec    rsi
     12b:	48 ff ce             	dec    rsi
     12e:	48 ff ce             	dec    rsi
     131:	48 ff ce             	dec    rsi
     134:	48 ff ce             	dec    rsi
     137:	48 ff ce             	dec    rsi
     13a:	48 ff ce             	dec    rsi
     13d:	48 ff ce             	dec    rsi
     140:	e9 d6 ff ff ff       	jmp    0x11b
     145:	48 ff c6             	inc    rsi
     148:	48 ff c6             	inc    rsi
     14b:	48 ff c6             	inc    rsi
     14e:	48 ff c6             	inc    rsi
     151:	48 ff c6             	inc    rsi
     154:	48 ff c6             	inc    rsi
     157:	48 ff c6             	inc    rsi
     15a:	48 ff c6             	inc    rsi
     15d:	48 ff c6             	inc    rsi
     160:	fe 0e                	dec    BYTE PTR [rsi]
     162:	e9 7e ff ff ff       	jmp    0xe5
     167:	fe 06                	inc    BYTE PTR [rsi]
     169:	8a 06                	mov    al,BYTE PTR [rsi]
     16b:	84 c0                	test   al,al
     16d:	0f 84 31 00 00 00    	je     0x1a4
     173:	48 ff c6             	inc    rsi
     176:	48 ff c6             	inc    rsi
     179:	48 ff c6             	inc    rsi
     17c:	48 ff c6             	inc    rsi
     17f:	48 ff c6             	inc    rsi
     182:	48 ff c6             	inc    rsi
     185:	48 ff c6             	inc    rsi
     188:	48 ff c6             	inc    rsi
     18b:	8a 06                	mov    al,BYTE PTR [rsi]
     18d:	84 c0                	test   al,al
     18f:	0f 84 07 00 00 00    	je     0x19c
     195:	fe 0e                	dec    BYTE PTR [rsi]
     197:	e9 ef ff ff ff       	jmp    0x18b
     19c:	48 ff c6             	inc    rsi
     19f:	e9 c5 ff ff ff       	jmp    0x169
     1a4:	48 ff ce             	dec    rsi
     1a7:	48 ff ce             	dec    rsi
     1aa:	48 ff ce             	dec    rsi
     1ad:	48 ff ce             	dec    rsi
     1b0:	48 ff ce             	dec    rsi
     1b3:	48 ff ce             	dec    rsi
     1b6:	48 ff ce             	dec    rsi
     1b9:	48 ff ce             	dec    rsi
     1bc:	48 ff ce             	dec    rsi
     1bf:	8a 06                	mov    al,BYTE PTR [rsi]
     1c1:	84 c0                	test   al,al
     1c3:	0f 84 20 00 00 00    	je     0x1e9
     1c9:	48 ff ce             	dec    rsi
     1cc:	48 ff ce             	dec    rsi
     1cf:	48 ff ce             	dec    rsi
     1d2:	48 ff ce             	dec    rsi
     1d5:	48 ff ce             	dec    rsi
     1d8:	48 ff ce             	dec    rsi
     1db:	48 ff ce             	dec    rsi
     1de:	48 ff ce             	dec    rsi
     1e1:	48 ff ce             	dec    rsi
     1e4:	e9 d6 ff ff ff       	jmp    0x1bf
     1e9:	48 ff c6             	inc    rsi
     1ec:	48 ff c6             	inc    rsi
     1ef:	48 ff c6             	inc    rsi
     1f2:	48 ff c6             	inc    rsi
     1f5:	48 ff c6             	inc    rsi
     1f8:	48 ff c6             	inc    rsi
     1fb:	48 ff c6             	inc    rsi
     1fe:	48 ff c6             	inc    rsi
     201:	8a 06                	mov    al,BYTE PTR [rsi]
     203:	84 c0                	test   al,al
     205:	0f 84 07 00 00 00    	je     0x212
     20b:	fe 0e                	dec    BYTE PTR [rsi]
     20d:	e9 ef ff ff ff       	jmp    0x201
     212:	fe 06                	inc    BYTE PTR [rsi]
     214:	48 ff ce             	dec    rsi
     217:	48 ff ce             	dec    rsi
     21a:	48 ff ce             	dec    rsi
     21d:	48 ff ce             	dec    rsi
     220:	48 ff ce             	dec    rsi
     223:	48 ff ce             	dec    rsi
     226:	48 ff ce             	dec    rsi
     229:	fe 06                	inc    BYTE PTR [rsi]
     22b:	fe 06                	inc    BYTE PTR [rsi]
     22d:	fe 06                	inc    BYTE PTR [rsi]
     22f:	fe 06                	inc    BYTE PTR [rsi]
     231:	fe 06                	inc    BYTE PTR [rsi]
     233:	8a 06                	mov    al,BYTE PTR [rsi]
     235:	84 c0                	test   al,al
     237:	0f 84 6b 00 00 00    	je     0x2a8
     23d:	fe 0e                	dec    BYTE PTR [rsi]
     23f:	8a 06                	mov    al,BYTE PTR [rsi]
     241:	84 c0                	test   al,al
     243:	0f 84 3f 00 00 00    	je     0x288
     249:	fe 0e                	dec    BYTE PTR [rsi]
     24b:	48 ff c6             	inc    rsi
     24e:	48 ff c6             	inc    rsi
     251:	48 ff c6             	inc    rsi
     254:	48 ff c6             	inc    rsi
     257:	48 ff c6             	inc    rsi
     25a:	48 ff c6             	inc    rsi
     25d:	48 ff c6             	inc    rsi
     260:	48 ff c6             	inc    rsi
     263:	48 ff c6             	inc    rsi
     266:	fe 06                	inc    BYTE PTR [rsi]
     268:	48 ff ce             	dec    rsi
     26b:	48 ff ce             	dec    rsi
     26e:	48 ff ce             	dec    rsi
     271:	48 ff ce             	dec    rsi
     274:	48 ff ce             	dec    rsi
     277:	48 ff ce             	dec    rsi
     27a:	48 ff ce             	dec    rsi
     27d:	48 ff ce             	dec    rsi
     280:	48 ff ce             	dec    rsi
     283:	e9 b7 ff ff ff       	jmp    0x23f
     288:	48 ff c6             	inc    rsi
     28b:	48 ff c6             	inc    rsi
     28e:	48 ff c6             	inc    rsi
     291:	48 ff c6             	inc    rsi
     294:	48 ff c6             	inc    rsi
     297:	48 ff c6             	inc    rsi
     29a:	48 ff c6             	inc    rsi
     29d:	48 ff c6             	inc    rsi
     2a0:	48 ff c6             	inc    rsi
     2a3:	e9 8b ff ff ff       	jmp    0x233
     2a8:	48 ff c6             	inc    rsi
     2ab:	48 ff c6             	inc    rsi
     2ae:	48 ff c6             	inc    rsi
     2b1:	48 ff c6             	inc    rsi
     2b4:	48 ff c6             	inc    rsi
     2b7:	48 ff c6             	inc    rsi
     2ba:	48 ff c6             	inc    rsi
     2bd:	fe 06                	inc    BYTE PTR [rsi]
     2bf:	48 ff c6             	inc    rsi
     2c2:	48 ff c6             	inc    rsi
     2c5:	48 ff c6             	inc    rsi
     2c8:	48 ff c6             	inc    rsi
     2cb:	48 ff c6             	inc    rsi
     2ce:	48 ff c6             	inc    rsi
     2d1:	48 ff c6             	inc    rsi
     2d4:	48 ff c6             	inc    rsi
     2d7:	48 ff c6             	inc    rsi
     2da:	48 ff c6             	inc    rsi
     2dd:	48 ff c6             	inc    rsi
     2e0:	48 ff c6             	inc    rsi
     2e3:	48 ff c6             	inc    rsi
     2e6:	48 ff c6             	inc    rsi
     2e9:	48 ff c6             	inc    rsi
     2ec:	48 ff c6             	inc    rsi
     2ef:	48 ff c6             	inc    rsi
     2f2:	48 ff c6             	inc    rsi
     2f5:	48 ff c6             	inc    rsi
     2f8:	48 ff c6             	inc    rsi
     2fb:	48 ff c6             	inc    rsi
     2fe:	48 ff c6             	inc    rsi
     301:	48 ff c6             	inc    rsi
     304:	48 ff c6             	inc    rsi
     307:	48 ff c6             	inc    rsi
     30a:	48 ff c6             	inc    rsi
     30d:	48 ff c6             	inc    rsi
     310:	fe 06                	inc    BYTE PTR [rsi]
     312:	48 ff ce             	dec    rsi
     315:	48 ff ce             	dec    rsi
     318:	48 ff ce             	dec    rsi
     31b:	48 ff ce             	dec    rsi
     31e:	48 ff ce             	dec    rsi
     321:	48 ff ce             	dec    rsi
     324:	48 ff ce             	dec    rsi
     327:	48 ff ce             	dec    rsi
     32a:	48 ff ce             	dec    rsi
     32d:	48 ff ce             	dec    rsi
     330:	48 ff ce             	dec    rsi
     333:	48 ff ce             	dec    rsi
     336:	48 ff ce             	dec    rsi
     339:	48 ff ce             	dec    rsi
     33c:	48 ff ce             	dec    rsi
     33f:	48 ff ce             	dec    rsi
     342:	48 ff ce             	dec    rsi
     345:	8a 06                	mov    al,BYTE PTR [rsi]
     347:	84 c0                	test   al,al
     349:	0f 84 20 00 00 00    	je     0x36f
     34f:	48 ff ce             	dec    rsi
     352:	48 ff ce             	dec    rsi
     355:	48 ff ce             	dec    rsi
     358:	48 ff ce             	dec    rsi
     35b:	48 ff ce             	dec    rsi
     35e:	48 ff ce             	dec    rsi
     361:	48 ff ce             	dec    rsi
     364:	48 ff ce             	dec    rsi
     367:	48 ff ce             	dec    rsi
     36a:	e9 d6 ff ff ff       	jmp    0x345
     36f:	48 ff c6             	inc    rsi
     372:	48 ff c6             	inc    rsi
     375:	48 ff c6             	inc    rsi
     378:	8a 06                	mov    al,BYTE PTR [rsi]
     37a:	84 c0                	test   al,al
     37c:	0f 84 07 00 00 00    	je     0x389
     382:	fe 0e                	dec    BYTE PTR [rsi]
     384:	e9 ef ff ff ff       	jmp    0x378
     389:	fe 06                	inc    BYTE PTR [rsi]
     38b:	8a 06                	mov    al,BYTE PTR [rsi]
     38d:	84 c0                	test   al,al
     38f:	0f 84 e0 95 00 00    	je     0x9975
     395:	48 ff c6             	inc    rsi
     398:	48 ff c6             	inc    rsi
     39b:	48 ff c6             	inc    rsi
     39e:	48 ff c6             	inc    rsi
     3a1:	48 ff c6             	inc    rsi
     3a4:	48 ff c6             	inc    rsi
     3a7:	8a 06                	mov    al,BYTE PTR [rsi]
     3a9:	84 c0                	test   al,al
     3ab:	0f 84 31 00 00 00    	je     0x3e2
     3b1:	48 ff c6             	inc    rsi
     3b4:	48 ff c6             	inc    rsi
     3b7:	48 ff c6             	inc    rsi
     3ba:	48 ff c6             	inc    rsi
     3bd:	48 ff c6             	inc    rsi
     3c0:	48 ff c6             	inc    rsi
     3c3:	48 ff c6             	inc    rsi
     3c6:	8a 06                	mov    al,BYTE PTR [rsi]
     3c8:	84 c0                	test   al,al
     3ca:	0f 84 07 00 00 00    	je     0x3d7
     3d0:	fe 0e                	dec    BYTE PTR [rsi]
     3d2:	e9 ef ff ff ff       	jmp    0x3c6
     3d7:	48 ff c6             	inc    rsi
     3da:	48 ff c6             	inc    rsi
     3dd:	e9 c5 ff ff ff       	jmp    0x3a7
     3e2:	48 ff ce             	dec    rsi
     3e5:	48 ff ce             	dec    rsi
     3e8:	48 ff ce             	dec    rsi
     3eb:	48 ff ce             	dec    rsi
     3ee:	48 ff ce             	dec    rsi
     3f1:	48 ff ce             	dec    rsi
     3f4:	48 ff ce             	dec    rsi
     3f7:	48 ff ce             	dec    rsi
     3fa:	48 ff ce             	dec    rsi
     3fd:	8a 06                	mov    al,BYTE PTR [rsi]
     3ff:	84 c0                	test   al,al
     401:	0f 84 20 00 00 00    	je     0x427
     407:	48 ff ce             	dec    rsi
     40a:	48 ff ce             	dec    rsi
     40d:	48 ff ce             	dec    rsi
     410:	48 ff ce             	dec    rsi
     413:	48 ff ce             	dec    rsi
     416:	48 ff ce             	dec    rsi
     419:	48 ff ce             	dec    rsi
     41c:	48 ff ce             	dec    rsi
     41f:	48 ff ce             	dec    rsi
     422:	e9 d6 ff ff ff       	jmp    0x3fd
     427:	48 ff c6             	inc    rsi
     42a:	48 ff c6             	inc    rsi
     42d:	48 ff c6             	inc    rsi
     430:	48 ff c6             	inc    rsi
     433:	48 ff c6             	inc    rsi
     436:	48 ff c6             	inc    rsi
     439:	48 ff c6             	inc    rsi
     43c:	8a 06                	mov    al,BYTE PTR [rsi]
     43e:	84 c0                	test   al,al
     440:	0f 84 07 00 00 00    	je     0x44d
     446:	fe 0e                	dec    BYTE PTR [rsi]
     448:	e9 ef ff ff ff       	jmp    0x43c
     44d:	fe 06                	inc    BYTE PTR [rsi]
     44f:	48 ff ce             	dec    rsi
     452:	48 ff ce             	dec    rsi
     455:	48 ff ce             	dec    rsi
     458:	48 ff ce             	dec    rsi
     45b:	48 ff ce             	dec    rsi
     45e:	48 ff ce             	dec    rsi
     461:	fe 06                	inc    BYTE PTR [rsi]
     463:	fe 06                	inc    BYTE PTR [rsi]
     465:	fe 06                	inc    BYTE PTR [rsi]
     467:	fe 06                	inc    BYTE PTR [rsi]
     469:	8a 06                	mov    al,BYTE PTR [rsi]
     46b:	84 c0                	test   al,al
     46d:	0f 84 6b 00 00 00    	je     0x4de
     473:	fe 0e                	dec    BYTE PTR [rsi]
     475:	8a 06                	mov    al,BYTE PTR [rsi]
     477:	84 c0                	test   al,al
     479:	0f 84 3f 00 00 00    	je     0x4be
     47f:	fe 0e                	dec    BYTE PTR [rsi]
     481:	48 ff c6             	inc    rsi
     484:	48 ff c6             	inc    rsi
     487:	48 ff c6             	inc    rsi
     48a:	48 ff c6             	inc    rsi
     48d:	48 ff c6             	inc    rsi
     490:	48 ff c6             	inc    rsi
     493:	48 ff c6             	inc    rsi
     496:	48 ff c6             	inc    rsi
     499:	48 ff c6             	inc    rsi
     49c:	fe 06                	inc    BYTE PTR [rsi]
     49e:	48 ff ce             	dec    rsi
     4a1:	48 ff ce             	dec    rsi
     4a4:	48 ff ce             	dec    rsi
     4a7:	48 ff ce             	dec    rsi
     4aa:	48 ff ce             	dec    rsi
     4ad:	48 ff ce             	dec    rsi
     4b0:	48 ff ce             	dec    rsi
     4b3:	48 ff ce             	dec    rsi
     4b6:	48 ff ce             	dec    rsi
     4b9:	e9 b7 ff ff ff       	jmp    0x475
     4be:	48 ff c6             	inc    rsi
     4c1:	48 ff c6             	inc    rsi
     4c4:	48 ff c6             	inc    rsi
     4c7:	48 ff c6             	inc    rsi
     4ca:	48 ff c6             	inc    rsi
     4cd:	48 ff c6             	inc    rsi
     4d0:	48 ff c6             	inc    rsi
     4d3:	48 ff c6             	inc    rsi
     4d6:	48 ff c6             	inc    rsi
     4d9:	e9 8b ff ff ff       	jmp    0x469
     4de:	48 ff c6             	inc    rsi
     4e1:	48 ff c6             	inc    rsi
     4e4:	48 ff c6             	inc    rsi
     4e7:	48 ff c6             	inc    rsi
     4ea:	48 ff c6             	inc    rsi
     4ed:	48 ff c6             	inc    rsi
     4f0:	fe 06                	inc    BYTE PTR [rsi]
     4f2:	48 ff ce             	dec    rsi
     4f5:	48 ff ce             	dec    rsi
     4f8:	48 ff ce             	dec    rsi
     4fb:	48 ff ce             	dec    rsi
     4fe:	48 ff ce             	dec    rsi
     501:	48 ff ce             	dec    rsi
     504:	fe 06                	inc    BYTE PTR [rsi]
     506:	fe 06                	inc    BYTE PTR [rsi]
     508:	fe 06                	inc    BYTE PTR [rsi]
     50a:	fe 06                	inc    BYTE PTR [rsi]
     50c:	fe 06                	inc    BYTE PTR [rsi]
     50e:	fe 06                	inc    BYTE PTR [rsi]
     510:	fe 06                	inc    BYTE PTR [rsi]
     512:	8a 06                	mov    al,BYTE PTR [rsi]
     514:	84 c0                	test   al,al
     516:	0f 84 6b 00 00 00    	je     0x587
     51c:	fe 0e                	dec    BYTE PTR [rsi]
     51e:	8a 06                	mov    al,BYTE PTR [rsi]
     520:	84 c0                	test   al,al
     522:	0f 84 3f 00 00 00    	je     0x567
     528:	fe 0e                	dec    BYTE PTR [rsi]
     52a:	48 ff c6             	inc    rsi
     52d:	48 ff c6             	inc    rsi
     530:	48 ff c6             	inc    rsi
     533:	48 ff c6             	inc    rsi
     536:	48 ff c6             	inc    rsi
     539:	48 ff c6             	inc    rsi
     53c:	48 ff c6             	inc    rsi
     53f:	48 ff c6             	inc    rsi
     542:	48 ff c6             	inc    rsi
     545:	fe 06                	inc    BYTE PTR [rsi]
     547:	48 ff ce             	dec    rsi
     54a:	48 ff ce             	dec    rsi
     54d:	48 ff ce             	dec    rsi
     550:	48 ff ce             	dec    rsi
     553:	48 ff ce             	dec    rsi
     556:	48 ff ce             	dec    rsi
     559:	48 ff ce             	dec    rsi
     55c:	48 ff ce             	dec    rsi
     55f:	48 ff ce             	dec    rsi
     562:	e9 b7 ff ff ff       	jmp    0x51e
     567:	48 ff c6             	inc    rsi
     56a:	48 ff c6             	inc    rsi
     56d:	48 ff c6             	inc    rsi
     570:	48 ff c6             	inc    rsi
     573:	48 ff c6             	inc    rsi
     576:	48 ff c6             	inc    rsi
     579:	48 ff c6             	inc    rsi
     57c:	48 ff c6             	inc    rsi
     57f:	48 ff c6             	inc    rsi
     582:	e9 8b ff ff ff       	jmp    0x512
     587:	48 ff c6             	inc    rsi
     58a:	48 ff c6             	inc    rsi
     58d:	48 ff c6             	inc    rsi
     590:	48 ff c6             	inc    rsi
     593:	48 ff c6             	inc    rsi
     596:	48 ff c6             	inc    rsi
     599:	fe 06                	inc    BYTE PTR [rsi]
     59b:	48 ff ce             	dec    rsi
     59e:	48 ff ce             	dec    rsi
     5a1:	48 ff ce             	dec    rsi
     5a4:	48 ff ce             	dec    rsi
     5a7:	48 ff ce             	dec    rsi
     5aa:	48 ff ce             	dec    rsi
     5ad:	48 ff ce             	dec    rsi
     5b0:	48 ff ce             	dec    rsi
     5b3:	48 ff ce             	dec    rsi
     5b6:	48 ff ce             	dec    rsi
     5b9:	48 ff ce             	dec    rsi
     5bc:	48 ff ce             	dec    rsi
     5bf:	48 ff ce             	dec    rsi
     5c2:	48 ff ce             	dec    rsi
     5c5:	48 ff ce             	dec    rsi
     5c8:	48 ff ce             	dec    rsi
     5cb:	8a 06                	mov    al,BYTE PTR [rsi]
     5cd:	84 c0                	test   al,al
     5cf:	0f 84 20 00 00 00    	je     0x5f5
     5d5:	48 ff ce             	dec    rsi
     5d8:	48 ff ce             	dec    rsi
     5db:	48 ff ce             	dec    rsi
     5de:	48 ff ce             	dec    rsi
     5e1:	48 ff ce             	dec    rsi
     5e4:	48 ff ce             	dec    rsi
     5e7:	48 ff ce             	dec    rsi
     5ea:	48 ff ce             	dec    rsi
     5ed:	48 ff ce             	dec    rsi
     5f0:	e9 d6 ff ff ff       	jmp    0x5cb
     5f5:	48 ff c6             	inc    rsi
     5f8:	48 ff c6             	inc    rsi
     5fb:	48 ff c6             	inc    rsi
     5fe:	8a 06                	mov    al,BYTE PTR [rsi]
     600:	84 c0                	test   al,al
     602:	0f 84 88 82 00 00    	je     0x8890
     608:	8a 06                	mov    al,BYTE PTR [rsi]
     60a:	84 c0                	test   al,al
     60c:	0f 84 07 00 00 00    	je     0x619
     612:	fe 0e                	dec    BYTE PTR [rsi]
     614:	e9 ef ff ff ff       	jmp    0x608
     619:	48 ff c6             	inc    rsi
     61c:	48 ff c6             	inc    rsi
     61f:	48 ff c6             	inc    rsi
     622:	48 ff c6             	inc    rsi
     625:	48 ff c6             	inc    rsi
     628:	48 ff c6             	inc    rsi
     62b:	8a 06                	mov    al,BYTE PTR [rsi]
     62d:	84 c0                	test   al,al
     62f:	0f 84 b6 00 00 00    	je     0x6eb
     635:	48 ff c6             	inc    rsi
     638:	48 ff c6             	inc    rsi
     63b:	48 ff c6             	inc    rsi
     63e:	48 ff c6             	inc    rsi
     641:	48 ff c6             	inc    rsi
     644:	48 ff c6             	inc    rsi
     647:	48 ff c6             	inc    rsi
     64a:	8a 06                	mov    al,BYTE PTR [rsi]
     64c:	84 c0                	test   al,al
     64e:	0f 84 2d 00 00 00    	je     0x681
     654:	fe 0e                	dec    BYTE PTR [rsi]
     656:	48 ff ce             	dec    rsi
     659:	48 ff ce             	dec    rsi
     65c:	48 ff ce             	dec    rsi
     65f:	48 ff ce             	dec    rsi
     662:	48 ff ce             	dec    rsi
     665:	48 ff ce             	dec    rsi
     668:	fe 06                	inc    BYTE PTR [rsi]
     66a:	48 ff c6             	inc    rsi
     66d:	48 ff c6             	inc    rsi
     670:	48 ff c6             	inc    rsi
     673:	48 ff c6             	inc    rsi
     676:	48 ff c6             	inc    rsi
     679:	48 ff c6             	inc    rsi
     67c:	e9 c9 ff ff ff       	jmp    0x64a
     681:	48 ff ce             	dec    rsi
     684:	48 ff ce             	dec    rsi
     687:	48 ff ce             	dec    rsi
     68a:	48 ff ce             	dec    rsi
     68d:	48 ff ce             	dec    rsi
     690:	48 ff ce             	dec    rsi
     693:	8a 06                	mov    al,BYTE PTR [rsi]
     695:	84 c0                	test   al,al
     697:	0f 84 31 00 00 00    	je     0x6ce
     69d:	fe 0e                	dec    BYTE PTR [rsi]
     69f:	48 ff c6             	inc    rsi
     6a2:	48 ff c6             	inc    rsi
     6a5:	48 ff c6             	inc    rsi
     6a8:	48 ff c6             	inc    rsi
     6ab:	48 ff c6             	inc    rsi
     6ae:	48 ff c6             	inc    rsi
     6b1:	fe 06                	inc    BYTE PTR [rsi]
     6b3:	48 ff ce             	dec    rsi
     6b6:	48 ff ce             	dec    rsi
     6b9:	fe 06                	inc    BYTE PTR [rsi]
     6bb:	48 ff ce             	dec    rsi
     6be:	48 ff ce             	dec    rsi
     6c1:	48 ff ce             	dec    rsi
     6c4:	fe 06                	inc    BYTE PTR [rsi]
     6c6:	48 ff ce             	dec    rsi
     6c9:	e9 c5 ff ff ff       	jmp    0x693
     6ce:	48 ff c6             	inc    rsi
     6d1:	48 ff c6             	inc    rsi
     6d4:	48 ff c6             	inc    rsi
     6d7:	48 ff c6             	inc    rsi
     6da:	48 ff c6             	inc    rsi
     6dd:	48 ff c6             	inc    rsi
     6e0:	48 ff c6             	inc    rsi
     6e3:	48 ff c6             	inc    rsi
     6e6:	e9 40 ff ff ff       	jmp    0x62b
     6eb:	48 ff ce             	dec    rsi
     6ee:	48 ff ce             	dec    rsi
     6f1:	48 ff ce             	dec    rsi
     6f4:	48 ff ce             	dec    rsi
     6f7:	48 ff ce             	dec    rsi
     6fa:	48 ff ce             	dec    rsi
     6fd:	48 ff ce             	dec    rsi
     700:	48 ff ce             	dec    rsi
     703:	48 ff ce             	dec    rsi
     706:	8a 06                	mov    al,BYTE PTR [rsi]
     708:	84 c0                	test   al,al
     70a:	0f 84 20 00 00 00    	je     0x730
     710:	48 ff ce             	dec    rsi
     713:	48 ff ce             	dec    rsi
     716:	48 ff ce             	dec    rsi
     719:	48 ff ce             	dec    rsi
     71c:	48 ff ce             	dec    rsi
     71f:	48 ff ce             	dec    rsi
     722:	48 ff ce             	dec    rsi
     725:	48 ff ce             	dec    rsi
     728:	48 ff ce             	dec    rsi
     72b:	e9 d6 ff ff ff       	jmp    0x706
     730:	48 ff c6             	inc    rsi
     733:	48 ff c6             	inc    rsi
     736:	48 ff c6             	inc    rsi
     739:	48 ff c6             	inc    rsi
     73c:	48 ff c6             	inc    rsi
     73f:	48 ff c6             	inc    rsi
     742:	48 ff c6             	inc    rsi
     745:	48 ff c6             	inc    rsi
     748:	48 ff c6             	inc    rsi
     74b:	8a 06                	mov    al,BYTE PTR [rsi]
     74d:	84 c0                	test   al,al
     74f:	0f 84 c8 00 00 00    	je     0x81d
     755:	48 ff c6             	inc    rsi
     758:	48 ff c6             	inc    rsi
     75b:	48 ff c6             	inc    rsi
     75e:	48 ff c6             	inc    rsi
     761:	48 ff c6             	inc    rsi
     764:	48 ff c6             	inc    rsi
     767:	48 ff c6             	inc    rsi
     76a:	48 ff c6             	inc    rsi
     76d:	8a 06                	mov    al,BYTE PTR [rsi]
     76f:	84 c0                	test   al,al
     771:	0f 84 33 00 00 00    	je     0x7aa
     777:	fe 0e                	dec    BYTE PTR [rsi]
     779:	48 ff ce             	dec    rsi
     77c:	48 ff ce             	dec    rsi
     77f:	48 ff ce             	dec    rsi
     782:	48 ff ce             	dec    rsi
     785:	48 ff ce             	dec    rsi
     788:	48 ff ce             	dec    rsi
     78b:	48 ff ce             	dec    rsi
     78e:	fe 06                	inc    BYTE PTR [rsi]
     790:	48 ff c6             	inc    rsi
     793:	48 ff c6             	inc    rsi
     796:	48 ff c6             	inc    rsi
     799:	48 ff c6             	inc    rsi
     79c:	48 ff c6             	inc    rsi
     79f:	48 ff c6             	inc    rsi
     7a2:	48 ff c6             	inc    rsi
     7a5:	e9 c3 ff ff ff       	jmp    0x76d
     7aa:	48 ff ce             	dec    rsi
     7ad:	48 ff ce             	dec    rsi
     7b0:	48 ff ce             	dec    rsi
     7b3:	48 ff ce             	dec    rsi
     7b6:	48 ff ce             	dec    rsi
     7b9:	48 ff ce             	dec    rsi
     7bc:	48 ff ce             	dec    rsi
     7bf:	8a 06                	mov    al,BYTE PTR [rsi]
     7c1:	84 c0                	test   al,al
     7c3:	0f 84 37 00 00 00    	je     0x800
     7c9:	fe 0e                	dec    BYTE PTR [rsi]
     7cb:	48 ff c6             	inc    rsi
     7ce:	48 ff c6             	inc    rsi
     7d1:	48 ff c6             	inc    rsi
     7d4:	48 ff c6             	inc    rsi
     7d7:	48 ff c6             	inc    rsi
     7da:	48 ff c6             	inc    rsi
     7dd:	48 ff c6             	inc    rsi
     7e0:	fe 06                	inc    BYTE PTR [rsi]
     7e2:	48 ff ce             	dec    rsi
     7e5:	48 ff ce             	dec    rsi
     7e8:	fe 06                	inc    BYTE PTR [rsi]
     7ea:	48 ff ce             	dec    rsi
     7ed:	48 ff ce             	dec    rsi
     7f0:	48 ff ce             	dec    rsi
     7f3:	fe 06                	inc    BYTE PTR [rsi]
     7f5:	48 ff ce             	dec    rsi
     7f8:	48 ff ce             	dec    rsi
     7fb:	e9 bf ff ff ff       	jmp    0x7bf
     800:	48 ff c6             	inc    rsi
     803:	48 ff c6             	inc    rsi
     806:	48 ff c6             	inc    rsi
     809:	48 ff c6             	inc    rsi
     80c:	48 ff c6             	inc    rsi
     80f:	48 ff c6             	inc    rsi
     812:	48 ff c6             	inc    rsi
     815:	48 ff c6             	inc    rsi
     818:	e9 2e ff ff ff       	jmp    0x74b
     81d:	48 ff ce             	dec    rsi
     820:	48 ff ce             	dec    rsi
     823:	48 ff ce             	dec    rsi
     826:	48 ff ce             	dec    rsi
     829:	48 ff ce             	dec    rsi
     82c:	48 ff ce             	dec    rsi
     82f:	48 ff ce             	dec    rsi
     832:	48 ff ce             	dec    rsi
     835:	48 ff ce             	dec    rsi
     838:	8a 06                	mov    al,BYTE PTR [rsi]
     83a:	84 c0                	test   al,al
     83c:	0f 84 20 00 00 00    	je     0x862
     842:	48 ff ce             	dec    rsi
     845:	48 ff ce             	dec    rsi
     848:	48 ff ce             	dec    rsi
     84b:	48 ff ce             	dec    rsi
     84e:	48 ff ce             	dec    rsi
     851:	48 ff ce             	dec    rsi
     854:	48 ff ce             	dec    rsi
     857:	48 ff ce             	dec    rsi
     85a:	48 ff ce             	dec    rsi
     85d:	e9 d6 ff ff ff       	jmp    0x838
     862:	48 ff c6             	inc    rsi
     865:	48 ff c6             	inc    rsi
     868:	48 ff c6             	inc    rsi
     86b:	48 ff c6             	inc    rsi
     86e:	48 ff c6             	inc    rsi
     871:	48 ff c6             	inc    rsi
     874:	48 ff c6             	inc    rsi
     877:	8a 06                	mov    al,BYTE PTR [rsi]
     879:	84 c0                	test   al,al
     87b:	0f 84 33 00 00 00    	je     0x8b4
     881:	fe 0e                	dec    BYTE PTR [rsi]
     883:	48 ff ce             	dec    rsi
     886:	48 ff ce             	dec    rsi
     889:	48 ff ce             	dec    rsi
     88c:	48 ff ce             	dec    rsi
     88f:	48 ff ce             	dec    rsi
     892:	48 ff ce             	dec    rsi
     895:	48 ff ce             	dec    rsi
     898:	fe 06                	inc    BYTE PTR [rsi]
     89a:	48 ff c6             	inc    rsi
     89d:	48 ff c6             	inc    rsi
     8a0:	48 ff c6             	inc    rsi
     8a3:	48 ff c6             	inc    rsi
     8a6:	48 ff c6             	inc    rsi
     8a9:	48 ff c6             	inc    rsi
     8ac:	48 ff c6             	inc    rsi
     8af:	e9 c3 ff ff ff       	jmp    0x877
     8b4:	48 ff ce             	dec    rsi
     8b7:	48 ff ce             	dec    rsi
     8ba:	48 ff ce             	dec    rsi
     8bd:	48 ff ce             	dec    rsi
     8c0:	48 ff ce             	dec    rsi
     8c3:	48 ff ce             	dec    rsi
     8c6:	48 ff ce             	dec    rsi
     8c9:	8a 06                	mov    al,BYTE PTR [rsi]
     8cb:	84 c0                	test   al,al
     8cd:	0f 84 35 00 00 00    	je     0x908
     8d3:	fe 0e                	dec    BYTE PTR [rsi]
     8d5:	48 ff c6             	inc    rsi
     8d8:	48 ff c6             	inc    rsi
     8db:	48 ff c6             	inc    rsi
     8de:	48 ff c6             	inc    rsi
     8e1:	48 ff c6             	inc    rsi
     8e4:	48 ff c6             	inc    rsi
     8e7:	48 ff c6             	inc    rsi
     8ea:	fe 06                	inc    BYTE PTR [rsi]
     8ec:	48 ff ce             	dec    rsi
     8ef:	48 ff ce             	dec    rsi
     8f2:	fe 06                	inc    BYTE PTR [rsi]
     8f4:	48 ff ce             	dec    rsi
     8f7:	48 ff ce             	dec    rsi
     8fa:	48 ff ce             	dec    rsi
     8fd:	48 ff ce             	dec    rsi
     900:	48 ff ce             	dec    rsi
     903:	e9 c1 ff ff ff       	jmp    0x8c9
     908:	48 ff c6             	inc    rsi
     90b:	48 ff c6             	inc    rsi
     90e:	48 ff c6             	inc    rsi
     911:	48 ff c6             	inc    rsi
     914:	48 ff c6             	inc    rsi
     917:	48 ff c6             	inc    rsi
     91a:	48 ff c6             	inc    rsi
     91d:	48 ff c6             	inc    rsi
     920:	48 ff c6             	inc    rsi
     923:	fe 06                	inc    BYTE PTR [rsi]
     925:	fe 06                	inc    BYTE PTR [rsi]
     927:	fe 06                	inc    BYTE PTR [rsi]
     929:	fe 06                	inc    BYTE PTR [rsi]
     92b:	fe 06                	inc    BYTE PTR [rsi]
     92d:	fe 06                	inc    BYTE PTR [rsi]
     92f:	fe 06                	inc    BYTE PTR [rsi]
     931:	fe 06                	inc    BYTE PTR [rsi]
     933:	fe 06                	inc    BYTE PTR [rsi]
     935:	fe 06                	inc    BYTE PTR [rsi]
     937:	fe 06                	inc    BYTE PTR [rsi]
     939:	fe 06                	inc    BYTE PTR [rsi]
     93b:	fe 06                	inc    BYTE PTR [rsi]
     93d:	fe 06                	inc    BYTE PTR [rsi]
     93f:	fe 06                	inc    BYTE PTR [rsi]
     941:	8a 06                	mov    al,BYTE PTR [rsi]
     943:	84 c0                	test   al,al
     945:	0f 84 47 01 00 00    	je     0xa92
     94b:	8a 06                	mov    al,BYTE PTR [rsi]
     94d:	84 c0                	test   al,al
     94f:	0f 84 20 00 00 00    	je     0x975
     955:	48 ff c6             	inc    rsi
     958:	48 ff c6             	inc    rsi
     95b:	48 ff c6             	inc    rsi
     95e:	48 ff c6             	inc    rsi
     961:	48 ff c6             	inc    rsi
     964:	48 ff c6             	inc    rsi
     967:	48 ff c6             	inc    rsi
     96a:	48 ff c6             	inc    rsi
     96d:	48 ff c6             	inc    rsi
     970:	e9 d6 ff ff ff       	jmp    0x94b
     975:	fe 06                	inc    BYTE PTR [rsi]
     977:	48 ff c6             	inc    rsi
     97a:	8a 06                	mov    al,BYTE PTR [rsi]
     97c:	84 c0                	test   al,al
     97e:	0f 84 07 00 00 00    	je     0x98b
     984:	fe 0e                	dec    BYTE PTR [rsi]
     986:	e9 ef ff ff ff       	jmp    0x97a
     98b:	48 ff c6             	inc    rsi
     98e:	8a 06                	mov    al,BYTE PTR [rsi]
     990:	84 c0                	test   al,al
     992:	0f 84 07 00 00 00    	je     0x99f
     998:	fe 0e                	dec    BYTE PTR [rsi]
     99a:	e9 ef ff ff ff       	jmp    0x98e
     99f:	48 ff c6             	inc    rsi
     9a2:	8a 06                	mov    al,BYTE PTR [rsi]
     9a4:	84 c0                	test   al,al
     9a6:	0f 84 07 00 00 00    	je     0x9b3
     9ac:	fe 0e                	dec    BYTE PTR [rsi]
     9ae:	e9 ef ff ff ff       	jmp    0x9a2
     9b3:	48 ff c6             	inc    rsi
     9b6:	8a 06                	mov    al,BYTE PTR [rsi]
     9b8:	84 c0                	test   al,al
     9ba:	0f 84 07 00 00 00    	je     0x9c7
     9c0:	fe 0e                	dec    BYTE PTR [rsi]
     9c2:	e9 ef ff ff ff       	jmp    0x9b6
     9c7:	48 ff c6             	inc    rsi
     9ca:	8a 06                	mov    al,BYTE PTR [rsi]
     9cc:	84 c0                	test   al,al
     9ce:	0f 84 07 00 00 00    	je     0x9db
     9d4:	fe 0e                	dec    BYTE PTR [rsi]
     9d6:	e9 ef ff ff ff       	jmp    0x9ca
     9db:	48 ff c6             	inc    rsi
     9de:	8a 06                	mov    al,BYTE PTR [rsi]
     9e0:	84 c0                	test   al,al
     9e2:	0f 84 07 00 00 00    	je     0x9ef
     9e8:	fe 0e                	dec    BYTE PTR [rsi]
     9ea:	e9 ef ff ff ff       	jmp    0x9de
     9ef:	48 ff c6             	inc    rsi
     9f2:	8a 06                	mov    al,BYTE PTR [rsi]
     9f4:	84 c0                	test   al,al
     9f6:	0f 84 07 00 00 00    	je     0xa03
     9fc:	fe 0e                	dec    BYTE PTR [rsi]
     9fe:	e9 ef ff ff ff       	jmp    0x9f2
     a03:	48 ff c6             	inc    rsi
     a06:	8a 06                	mov    al,BYTE PTR [rsi]
     a08:	84 c0                	test   al,al
     a0a:	0f 84 07 00 00 00    	je     0xa17
     a10:	fe 0e                	dec    BYTE PTR [rsi]
     a12:	e9 ef ff ff ff       	jmp    0xa06
     a17:	48 ff c6             	inc    rsi
     a1a:	8a 06                	mov    al,BYTE PTR [rsi]
     a1c:	84 c0                	test   al,al
     a1e:	0f 84 07 00 00 00    	je     0xa2b
     a24:	fe 0e                	dec    BYTE PTR [rsi]
     a26:	e9 ef ff ff ff       	jmp    0xa1a
     a2b:	48 ff ce             	dec    rsi
     a2e:	48 ff ce             	dec    rsi
     a31:	48 ff ce             	dec    rsi
     a34:	48 ff ce             	dec    rsi
     a37:	48 ff ce             	dec    rsi
     a3a:	48 ff ce             	dec    rsi
     a3d:	48 ff ce             	dec    rsi
     a40:	48 ff ce             	dec    rsi
     a43:	48 ff ce             	dec    rsi
     a46:	8a 06                	mov    al,BYTE PTR [rsi]
     a48:	84 c0                	test   al,al
     a4a:	0f 84 20 00 00 00    	je     0xa70
     a50:	48 ff ce             	dec    rsi
     a53:	48 ff ce             	dec    rsi
     a56:	48 ff ce             	dec    rsi
     a59:	48 ff ce             	dec    rsi
     a5c:	48 ff ce             	dec    rsi
     a5f:	48 ff ce             	dec    rsi
     a62:	48 ff ce             	dec    rsi
     a65:	48 ff ce             	dec    rsi
     a68:	48 ff ce             	dec    rsi
     a6b:	e9 d6 ff ff ff       	jmp    0xa46
     a70:	48 ff c6             	inc    rsi
     a73:	48 ff c6             	inc    rsi
     a76:	48 ff c6             	inc    rsi
     a79:	48 ff c6             	inc    rsi
     a7c:	48 ff c6             	inc    rsi
     a7f:	48 ff c6             	inc    rsi
     a82:	48 ff c6             	inc    rsi
     a85:	48 ff c6             	inc    rsi
     a88:	48 ff c6             	inc    rsi
     a8b:	fe 0e                	dec    BYTE PTR [rsi]
     a8d:	e9 af fe ff ff       	jmp    0x941
     a92:	fe 06                	inc    BYTE PTR [rsi]
     a94:	8a 06                	mov    al,BYTE PTR [rsi]
     a96:	84 c0                	test   al,al
     a98:	0f 84 22 00 00 00    	je     0xac0
     a9e:	48 ff c6             	inc    rsi
     aa1:	fe 06                	inc    BYTE PTR [rsi]
     aa3:	48 ff c6             	inc    rsi
     aa6:	48 ff c6             	inc    rsi
     aa9:	48 ff c6             	inc    rsi
     aac:	48 ff c6             	inc    rsi
     aaf:	48 ff c6             	inc    rsi
     ab2:	48 ff c6             	inc    rsi
     ab5:	48 ff c6             	inc    rsi
     ab8:	48 ff c6             	inc    rsi
     abb:	e9 d4 ff ff ff       	jmp    0xa94
     ac0:	48 ff ce             	dec    rsi
     ac3:	48 ff ce             	dec    rsi
     ac6:	48 ff ce             	dec    rsi
     ac9:	48 ff ce             	dec    rsi
     acc:	48 ff ce             	dec    rsi
     acf:	48 ff ce             	dec    rsi
     ad2:	48 ff ce             	dec    rsi
     ad5:	48 ff ce             	dec    rsi
     ad8:	48 ff ce             	dec    rsi
     adb:	8a 06                	mov    al,BYTE PTR [rsi]
     add:	84 c0                	test   al,al
     adf:	0f 84 20 00 00 00    	je     0xb05
     ae5:	48 ff ce             	dec    rsi
     ae8:	48 ff ce             	dec    rsi
     aeb:	48 ff ce             	dec    rsi
     aee:	48 ff ce             	dec    rsi
     af1:	48 ff ce             	dec    rsi
     af4:	48 ff ce             	dec    rsi
     af7:	48 ff ce             	dec    rsi
     afa:	48 ff ce             	dec    rsi
     afd:	48 ff ce             	dec    rsi
     b00:	e9 d6 ff ff ff       	jmp    0xadb
     b05:	48 ff c6             	inc    rsi
     b08:	48 ff c6             	inc    rsi
     b0b:	48 ff c6             	inc    rsi
     b0e:	48 ff c6             	inc    rsi
     b11:	48 ff c6             	inc    rsi
     b14:	48 ff c6             	inc    rsi
     b17:	48 ff c6             	inc    rsi
     b1a:	48 ff c6             	inc    rsi
     b1d:	48 ff c6             	inc    rsi
     b20:	8a 06                	mov    al,BYTE PTR [rsi]
     b22:	84 c0                	test   al,al
     b24:	0f 84 85 02 00 00    	je     0xdaf
     b2a:	48 ff c6             	inc    rsi
     b2d:	fe 0e                	dec    BYTE PTR [rsi]
     b2f:	48 ff c6             	inc    rsi
     b32:	48 ff c6             	inc    rsi
     b35:	48 ff c6             	inc    rsi
     b38:	48 ff c6             	inc    rsi
     b3b:	8a 06                	mov    al,BYTE PTR [rsi]
     b3d:	84 c0                	test   al,al
     b3f:	0f 84 21 00 00 00    	je     0xb66
     b45:	fe 0e                	dec    BYTE PTR [rsi]
     b47:	48 ff ce             	dec    rsi
     b4a:	48 ff ce             	dec    rsi
     b4d:	48 ff ce             	dec    rsi
     b50:	48 ff ce             	dec    rsi
     b53:	fe 06                	inc    BYTE PTR [rsi]
     b55:	48 ff c6             	inc    rsi
     b58:	48 ff c6             	inc    rsi
     b5b:	48 ff c6             	inc    rsi
     b5e:	48 ff c6             	inc    rsi
     b61:	e9 d5 ff ff ff       	jmp    0xb3b
     b66:	48 ff ce             	dec    rsi
     b69:	48 ff ce             	dec    rsi
     b6c:	48 ff ce             	dec    rsi
     b6f:	48 ff ce             	dec    rsi
     b72:	8a 06                	mov    al,BYTE PTR [rsi]
     b74:	84 c0                	test   al,al
     b76:	0f 84 ec 00 00 00    	je     0xc68
     b7c:	fe 0e                	dec    BYTE PTR [rsi]
     b7e:	48 ff c6             	inc    rsi
     b81:	48 ff c6             	inc    rsi
     b84:	48 ff c6             	inc    rsi
     b87:	48 ff c6             	inc    rsi
     b8a:	fe 06                	inc    BYTE PTR [rsi]
     b8c:	48 ff ce             	dec    rsi
     b8f:	48 ff ce             	dec    rsi
     b92:	48 ff ce             	dec    rsi
     b95:	48 ff ce             	dec    rsi
     b98:	48 ff ce             	dec    rsi
     b9b:	8a 06                	mov    al,BYTE PTR [rsi]
     b9d:	84 c0                	test   al,al
     b9f:	0f 84 7c 00 00 00    	je     0xc21
     ba5:	fe 0e                	dec    BYTE PTR [rsi]
     ba7:	48 ff c6             	inc    rsi
     baa:	48 ff c6             	inc    rsi
     bad:	8a 06                	mov    al,BYTE PTR [rsi]
     baf:	84 c0                	test   al,al
     bb1:	0f 84 15 00 00 00    	je     0xbcc
     bb7:	fe 0e                	dec    BYTE PTR [rsi]
     bb9:	48 ff ce             	dec    rsi
     bbc:	48 ff ce             	dec    rsi
     bbf:	fe 06                	inc    BYTE PTR [rsi]
     bc1:	48 ff c6             	inc    rsi
     bc4:	48 ff c6             	inc    rsi
     bc7:	e9 e1 ff ff ff       	jmp    0xbad
     bcc:	48 ff ce             	dec    rsi
     bcf:	48 ff ce             	dec    rsi
     bd2:	8a 06                	mov    al,BYTE PTR [rsi]
     bd4:	84 c0                	test   al,al
     bd6:	0f 84 23 00 00 00    	je     0xbff
     bdc:	fe 0e                	dec    BYTE PTR [rsi]
     bde:	48 ff c6             	inc    rsi
     be1:	48 ff c6             	inc    rsi
     be4:	fe 06                	inc    BYTE PTR [rsi]
     be6:	48 ff c6             	inc    rsi
     be9:	48 ff c6             	inc    rsi
     bec:	fe 06                	inc    BYTE PTR [rsi]
     bee:	48 ff ce             	dec    rsi
     bf1:	48 ff ce             	dec    rsi
     bf4:	48 ff ce             	dec    rsi
     bf7:	48 ff ce             	dec    rsi
     bfa:	e9 d3 ff ff ff       	jmp    0xbd2
     bff:	fe 06                	inc    BYTE PTR [rsi]
     c01:	48 ff c6             	inc    rsi
     c04:	48 ff c6             	inc    rsi
     c07:	48 ff c6             	inc    rsi
     c0a:	48 ff c6             	inc    rsi
     c0d:	48 ff c6             	inc    rsi
     c10:	48 ff c6             	inc    rsi
     c13:	48 ff c6             	inc    rsi
     c16:	48 ff c6             	inc    rsi
     c19:	48 ff c6             	inc    rsi
     c1c:	e9 7a ff ff ff       	jmp    0xb9b
     c21:	48 ff ce             	dec    rsi
     c24:	48 ff ce             	dec    rsi
     c27:	48 ff ce             	dec    rsi
     c2a:	48 ff ce             	dec    rsi
     c2d:	48 ff ce             	dec    rsi
     c30:	48 ff ce             	dec    rsi
     c33:	48 ff ce             	dec    rsi
     c36:	48 ff ce             	dec    rsi
     c39:	8a 06                	mov    al,BYTE PTR [rsi]
     c3b:	84 c0                	test   al,al
     c3d:	0f 84 20 00 00 00    	je     0xc63
     c43:	48 ff ce             	dec    rsi
     c46:	48 ff ce             	dec    rsi
     c49:	48 ff ce             	dec    rsi
     c4c:	48 ff ce             	dec    rsi
     c4f:	48 ff ce             	dec    rsi
     c52:	48 ff ce             	dec    rsi
     c55:	48 ff ce             	dec    rsi
     c58:	48 ff ce             	dec    rsi
     c5b:	48 ff ce             	dec    rsi
     c5e:	e9 d6 ff ff ff       	jmp    0xc39
     c63:	e9 0a ff ff ff       	jmp    0xb72
     c68:	48 ff c6             	inc    rsi
     c6b:	48 ff c6             	inc    rsi
     c6e:	48 ff c6             	inc    rsi
     c71:	48 ff c6             	inc    rsi
     c74:	48 ff c6             	inc    rsi
     c77:	48 ff c6             	inc    rsi
     c7a:	48 ff c6             	inc    rsi
     c7d:	48 ff c6             	inc    rsi
     c80:	48 ff c6             	inc    rsi
     c83:	8a 06                	mov    al,BYTE PTR [rsi]
     c85:	84 c0                	test   al,al
     c87:	0f 84 20 00 00 00    	je     0xcad
     c8d:	48 ff c6             	inc    rsi
     c90:	48 ff c6             	inc    rsi
     c93:	48 ff c6             	inc    rsi
     c96:	48 ff c6             	inc    rsi
     c99:	48 ff c6             	inc    rsi
     c9c:	48 ff c6             	inc    rsi
     c9f:	48 ff c6             	inc    rsi
     ca2:	48 ff c6             	inc    rsi
     ca5:	48 ff c6             	inc    rsi
     ca8:	e9 d6 ff ff ff       	jmp    0xc83
     cad:	48 ff ce             	dec    rsi
     cb0:	48 ff ce             	dec    rsi
     cb3:	48 ff ce             	dec    rsi
     cb6:	48 ff ce             	dec    rsi
     cb9:	48 ff ce             	dec    rsi
     cbc:	48 ff ce             	dec    rsi
     cbf:	48 ff ce             	dec    rsi
     cc2:	48 ff ce             	dec    rsi
     cc5:	48 ff ce             	dec    rsi
     cc8:	8a 06                	mov    al,BYTE PTR [rsi]
     cca:	84 c0                	test   al,al
     ccc:	0f 84 6f 00 00 00    	je     0xd41
     cd2:	48 ff c6             	inc    rsi
     cd5:	8a 06                	mov    al,BYTE PTR [rsi]
     cd7:	84 c0                	test   al,al
     cd9:	0f 84 3f 00 00 00    	je     0xd1e
     cdf:	fe 0e                	dec    BYTE PTR [rsi]
     ce1:	48 ff c6             	inc    rsi
     ce4:	48 ff c6             	inc    rsi
     ce7:	48 ff c6             	inc    rsi
     cea:	48 ff c6             	inc    rsi
     ced:	48 ff c6             	inc    rsi
     cf0:	48 ff c6             	inc    rsi
     cf3:	48 ff c6             	inc    rsi
     cf6:	48 ff c6             	inc    rsi
     cf9:	48 ff c6             	inc    rsi
     cfc:	fe 06                	inc    BYTE PTR [rsi]
     cfe:	48 ff ce             	dec    rsi
     d01:	48 ff ce             	dec    rsi
     d04:	48 ff ce             	dec    rsi
     d07:	48 ff ce             	dec    rsi
     d0a:	48 ff ce             	dec    rsi
     d0d:	48 ff ce             	dec    rsi
     d10:	48 ff ce             	dec    rsi
     d13:	48 ff ce             	dec    rsi
     d16:	48 ff ce             	dec    rsi
     d19:	e9 b7 ff ff ff       	jmp    0xcd5
     d1e:	48 ff ce             	dec    rsi
     d21:	48 ff ce             	dec    rsi
     d24:	48 ff ce             	dec    rsi
     d27:	48 ff ce             	dec    rsi
     d2a:	48 ff ce             	dec    rsi
     d2d:	48 ff ce             	dec    rsi
     d30:	48 ff ce             	dec    rsi
     d33:	48 ff ce             	dec    rsi
     d36:	48 ff ce             	dec    rsi
     d39:	48 ff ce             	dec    rsi
     d3c:	e9 87 ff ff ff       	jmp    0xcc8
     d41:	48 ff c6             	inc    rsi
     d44:	8a 06                	mov    al,BYTE PTR [rsi]
     d46:	84 c0                	test   al,al
     d48:	0f 84 3f 00 00 00    	je     0xd8d
     d4e:	fe 0e                	dec    BYTE PTR [rsi]
     d50:	48 ff c6             	inc    rsi
     d53:	48 ff c6             	inc    rsi
     d56:	48 ff c6             	inc    rsi
     d59:	48 ff c6             	inc    rsi
     d5c:	48 ff c6             	inc    rsi
     d5f:	48 ff c6             	inc    rsi
     d62:	48 ff c6             	inc    rsi
     d65:	48 ff c6             	inc    rsi
     d68:	48 ff c6             	inc    rsi
     d6b:	fe 06                	inc    BYTE PTR [rsi]
     d6d:	48 ff ce             	dec    rsi
     d70:	48 ff ce             	dec    rsi
     d73:	48 ff ce             	dec    rsi
     d76:	48 ff ce             	dec    rsi
     d79:	48 ff ce             	dec    rsi
     d7c:	48 ff ce             	dec    rsi
     d7f:	48 ff ce             	dec    rsi
     d82:	48 ff ce             	dec    rsi
     d85:	48 ff ce             	dec    rsi
     d88:	e9 b7 ff ff ff       	jmp    0xd44
     d8d:	48 ff ce             	dec    rsi
     d90:	fe 06                	inc    BYTE PTR [rsi]
     d92:	48 ff c6             	inc    rsi
     d95:	48 ff c6             	inc    rsi
     d98:	48 ff c6             	inc    rsi
     d9b:	48 ff c6             	inc    rsi
     d9e:	48 ff c6             	inc    rsi
     da1:	48 ff c6             	inc    rsi
     da4:	48 ff c6             	inc    rsi
     da7:	48 ff c6             	inc    rsi
     daa:	e9 71 fd ff ff       	jmp    0xb20
     daf:	48 ff ce             	dec    rsi
     db2:	48 ff ce             	dec    rsi
     db5:	48 ff ce             	dec    rsi
     db8:	48 ff ce             	dec    rsi
     dbb:	48 ff ce             	dec    rsi
     dbe:	48 ff ce             	dec    rsi
     dc1:	48 ff ce             	dec    rsi
     dc4:	48 ff ce             	dec    rsi
     dc7:	48 ff ce             	dec    rsi
     dca:	8a 06                	mov    al,BYTE PTR [rsi]
     dcc:	84 c0                	test   al,al
     dce:	0f 84 01 01 00 00    	je     0xed5
     dd4:	48 ff c6             	inc    rsi
     dd7:	8a 06                	mov    al,BYTE PTR [rsi]
     dd9:	84 c0                	test   al,al
     ddb:	0f 84 07 00 00 00    	je     0xde8
     de1:	fe 0e                	dec    BYTE PTR [rsi]
     de3:	e9 ef ff ff ff       	jmp    0xdd7
     de8:	48 ff ce             	dec    rsi
     deb:	fe 0e                	dec    BYTE PTR [rsi]
     ded:	48 ff c6             	inc    rsi
     df0:	48 ff c6             	inc    rsi
     df3:	48 ff c6             	inc    rsi
     df6:	48 ff c6             	inc    rsi
     df9:	8a 06                	mov    al,BYTE PTR [rsi]
     dfb:	84 c0                	test   al,al
     dfd:	0f 84 7f 00 00 00    	je     0xe82
     e03:	fe 0e                	dec    BYTE PTR [rsi]
     e05:	48 ff ce             	dec    rsi
     e08:	48 ff ce             	dec    rsi
     e0b:	48 ff ce             	dec    rsi
     e0e:	48 ff ce             	dec    rsi
     e11:	fe 06                	inc    BYTE PTR [rsi]
     e13:	48 ff c6             	inc    rsi
     e16:	8a 06                	mov    al,BYTE PTR [rsi]
     e18:	84 c0                	test   al,al
     e1a:	0f 84 35 00 00 00    	je     0xe55
     e20:	48 ff ce             	dec    rsi
     e23:	fe 0e                	dec    BYTE PTR [rsi]
     e25:	48 ff c6             	inc    rsi
     e28:	fe 0e                	dec    BYTE PTR [rsi]
     e2a:	48 ff ce             	dec    rsi
     e2d:	48 ff ce             	dec    rsi
     e30:	48 ff ce             	dec    rsi
     e33:	48 ff ce             	dec    rsi
     e36:	48 ff ce             	dec    rsi
     e39:	48 ff ce             	dec    rsi
     e3c:	fe 06                	inc    BYTE PTR [rsi]
     e3e:	48 ff c6             	inc    rsi
     e41:	48 ff c6             	inc    rsi
     e44:	48 ff c6             	inc    rsi
     e47:	48 ff c6             	inc    rsi
     e4a:	48 ff c6             	inc    rsi
     e4d:	48 ff c6             	inc    rsi
     e50:	e9 c1 ff ff ff       	jmp    0xe16
     e55:	48 ff ce             	dec    rsi
     e58:	8a 06                	mov    al,BYTE PTR [rsi]
     e5a:	84 c0                	test   al,al
     e5c:	0f 84 0f 00 00 00    	je     0xe71
     e62:	fe 0e                	dec    BYTE PTR [rsi]
     e64:	48 ff c6             	inc    rsi
     e67:	fe 06                	inc    BYTE PTR [rsi]
     e69:	48 ff ce             	dec    rsi
     e6c:	e9 e7 ff ff ff       	jmp    0xe58
     e71:	48 ff c6             	inc    rsi
     e74:	48 ff c6             	inc    rsi
     e77:	48 ff c6             	inc    rsi
     e7a:	48 ff c6             	inc    rsi
     e7d:	e9 77 ff ff ff       	jmp    0xdf9
     e82:	48 ff ce             	dec    rsi
     e85:	48 ff ce             	dec    rsi
     e88:	48 ff ce             	dec    rsi
     e8b:	8a 06                	mov    al,BYTE PTR [rsi]
     e8d:	84 c0                	test   al,al
     e8f:	0f 84 1b 00 00 00    	je     0xeb0
     e95:	fe 0e                	dec    BYTE PTR [rsi]
     e97:	48 ff c6             	inc    rsi
     e9a:	48 ff c6             	inc    rsi
     e9d:	48 ff c6             	inc    rsi
     ea0:	fe 06                	inc    BYTE PTR [rsi]
     ea2:	48 ff ce             	dec    rsi
     ea5:	48 ff ce             	dec    rsi
     ea8:	48 ff ce             	dec    rsi
     eab:	e9 db ff ff ff       	jmp    0xe8b
     eb0:	48 ff ce             	dec    rsi
     eb3:	fe 06                	inc    BYTE PTR [rsi]
     eb5:	48 ff ce             	dec    rsi
     eb8:	48 ff ce             	dec    rsi
     ebb:	48 ff ce             	dec    rsi
     ebe:	48 ff ce             	dec    rsi
     ec1:	48 ff ce             	dec    rsi
     ec4:	48 ff ce             	dec    rsi
     ec7:	48 ff ce             	dec    rsi
     eca:	48 ff ce             	dec    rsi
     ecd:	48 ff ce             	dec    rsi
     ed0:	e9 f5 fe ff ff       	jmp    0xdca
     ed5:	48 ff c6             	inc    rsi
     ed8:	48 ff c6             	inc    rsi
     edb:	48 ff c6             	inc    rsi
     ede:	48 ff c6             	inc    rsi
     ee1:	48 ff c6             	inc    rsi
     ee4:	48 ff c6             	inc    rsi
     ee7:	48 ff c6             	inc    rsi
     eea:	48 ff c6             	inc    rsi
     eed:	48 ff c6             	inc    rsi
     ef0:	8a 06                	mov    al,BYTE PTR [rsi]
     ef2:	84 c0                	test   al,al
     ef4:	0f 84 22 00 00 00    	je     0xf1c
     efa:	48 ff c6             	inc    rsi
     efd:	fe 06                	inc    BYTE PTR [rsi]
     eff:	48 ff c6             	inc    rsi
     f02:	48 ff c6             	inc    rsi
     f05:	48 ff c6             	inc    rsi
     f08:	48 ff c6             	inc    rsi
     f0b:	48 ff c6             	inc    rsi
     f0e:	48 ff c6             	inc    rsi
     f11:	48 ff c6             	inc    rsi
     f14:	48 ff c6             	inc    rsi
     f17:	e9 d4 ff ff ff       	jmp    0xef0
     f1c:	48 ff ce             	dec    rsi
     f1f:	48 ff ce             	dec    rsi
     f22:	48 ff ce             	dec    rsi
     f25:	48 ff ce             	dec    rsi
     f28:	48 ff ce             	dec    rsi
     f2b:	48 ff ce             	dec    rsi
     f2e:	48 ff ce             	dec    rsi
     f31:	48 ff ce             	dec    rsi
     f34:	48 ff ce             	dec    rsi
     f37:	8a 06                	mov    al,BYTE PTR [rsi]
     f39:	84 c0                	test   al,al
     f3b:	0f 84 20 00 00 00    	je     0xf61
     f41:	48 ff ce             	dec    rsi
     f44:	48 ff ce             	dec    rsi
     f47:	48 ff ce             	dec    rsi
     f4a:	48 ff ce             	dec    rsi
     f4d:	48 ff ce             	dec    rsi
     f50:	48 ff ce             	dec    rsi
     f53:	48 ff ce             	dec    rsi
     f56:	48 ff ce             	dec    rsi
     f59:	48 ff ce             	dec    rsi
     f5c:	e9 d6 ff ff ff       	jmp    0xf37
     f61:	48 ff c6             	inc    rsi
     f64:	48 ff c6             	inc    rsi
     f67:	48 ff c6             	inc    rsi
     f6a:	48 ff c6             	inc    rsi
     f6d:	48 ff c6             	inc    rsi
     f70:	48 ff c6             	inc    rsi
     f73:	48 ff c6             	inc    rsi
     f76:	48 ff c6             	inc    rsi
     f79:	48 ff c6             	inc    rsi
     f7c:	8a 06                	mov    al,BYTE PTR [rsi]
     f7e:	84 c0                	test   al,al
     f80:	0f 84 af 02 00 00    	je     0x1235
     f86:	48 ff c6             	inc    rsi
     f89:	fe 0e                	dec    BYTE PTR [rsi]
     f8b:	48 ff c6             	inc    rsi
     f8e:	48 ff c6             	inc    rsi
     f91:	48 ff c6             	inc    rsi
     f94:	48 ff c6             	inc    rsi
     f97:	48 ff c6             	inc    rsi
     f9a:	8a 06                	mov    al,BYTE PTR [rsi]
     f9c:	84 c0                	test   al,al
     f9e:	0f 84 27 00 00 00    	je     0xfcb
     fa4:	fe 0e                	dec    BYTE PTR [rsi]
     fa6:	48 ff ce             	dec    rsi
     fa9:	48 ff ce             	dec    rsi
     fac:	48 ff ce             	dec    rsi
     faf:	48 ff ce             	dec    rsi
     fb2:	48 ff ce             	dec    rsi
     fb5:	fe 06                	inc    BYTE PTR [rsi]
     fb7:	48 ff c6             	inc    rsi
     fba:	48 ff c6             	inc    rsi
     fbd:	48 ff c6             	inc    rsi
     fc0:	48 ff c6             	inc    rsi
     fc3:	48 ff c6             	inc    rsi
     fc6:	e9 cf ff ff ff       	jmp    0xf9a
     fcb:	48 ff ce             	dec    rsi
     fce:	48 ff ce             	dec    rsi
     fd1:	48 ff ce             	dec    rsi
     fd4:	48 ff ce             	dec    rsi
     fd7:	48 ff ce             	dec    rsi
     fda:	8a 06                	mov    al,BYTE PTR [rsi]
     fdc:	84 c0                	test   al,al
     fde:	0f 84 fe 00 00 00    	je     0x10e2
     fe4:	fe 0e                	dec    BYTE PTR [rsi]
     fe6:	48 ff c6             	inc    rsi
     fe9:	48 ff c6             	inc    rsi
     fec:	48 ff c6             	inc    rsi
     fef:	48 ff c6             	inc    rsi
     ff2:	48 ff c6             	inc    rsi
     ff5:	fe 06                	inc    BYTE PTR [rsi]
     ff7:	48 ff ce             	dec    rsi
     ffa:	48 ff ce             	dec    rsi
     ffd:	48 ff ce             	dec    rsi
    1000:	48 ff ce             	dec    rsi
    1003:	48 ff ce             	dec    rsi
    1006:	48 ff ce             	dec    rsi
    1009:	8a 06                	mov    al,BYTE PTR [rsi]
    100b:	84 c0                	test   al,al
    100d:	0f 84 88 00 00 00    	je     0x109b
    1013:	fe 0e                	dec    BYTE PTR [rsi]
    1015:	48 ff c6             	inc    rsi
    1018:	48 ff c6             	inc    rsi
    101b:	48 ff c6             	inc    rsi
    101e:	8a 06                	mov    al,BYTE PTR [rsi]
    1020:	84 c0                	test   al,al
    1022:	0f 84 1b 00 00 00    	je     0x1043
    1028:	fe 0e                	dec    BYTE PTR [rsi]
    102a:	48 ff ce             	dec    rsi
    102d:	48 ff ce             	dec    rsi
    1030:	48 ff ce             	dec    rsi
    1033:	fe 06                	inc    BYTE PTR [rsi]
    1035:	48 ff c6             	inc    rsi
    1038:	48 ff c6             	inc    rsi
    103b:	48 ff c6             	inc    rsi
    103e:	e9 db ff ff ff       	jmp    0x101e
    1043:	48 ff ce             	dec    rsi
    1046:	48 ff ce             	dec    rsi
    1049:	48 ff ce             	dec    rsi
    104c:	8a 06                	mov    al,BYTE PTR [rsi]
    104e:	84 c0                	test   al,al
    1050:	0f 84 23 00 00 00    	je     0x1079
    1056:	fe 0e                	dec    BYTE PTR [rsi]
    1058:	48 ff c6             	inc    rsi
    105b:	48 ff c6             	inc    rsi
    105e:	48 ff c6             	inc    rsi
    1061:	fe 06                	inc    BYTE PTR [rsi]
    1063:	48 ff c6             	inc    rsi
    1066:	fe 06                	inc    BYTE PTR [rsi]
    1068:	48 ff ce             	dec    rsi
    106b:	48 ff ce             	dec    rsi
    106e:	48 ff ce             	dec    rsi
    1071:	48 ff ce             	dec    rsi
    1074:	e9 d3 ff ff ff       	jmp    0x104c
    1079:	fe 06                	inc    BYTE PTR [rsi]
    107b:	48 ff c6             	inc    rsi
    107e:	48 ff c6             	inc    rsi
    1081:	48 ff c6             	inc    rsi
    1084:	48 ff c6             	inc    rsi
    1087:	48 ff c6             	inc    rsi
    108a:	48 ff c6             	inc    rsi
    108d:	48 ff c6             	inc    rsi
    1090:	48 ff c6             	inc    rsi
    1093:	48 ff c6             	inc    rsi
    1096:	e9 6e ff ff ff       	jmp    0x1009
    109b:	48 ff ce             	dec    rsi
    109e:	48 ff ce             	dec    rsi
    10a1:	48 ff ce             	dec    rsi
    10a4:	48 ff ce             	dec    rsi
    10a7:	48 ff ce             	dec    rsi
    10aa:	48 ff ce             	dec    rsi
    10ad:	48 ff ce             	dec    rsi
    10b0:	48 ff ce             	dec    rsi
    10b3:	8a 06                	mov    al,BYTE PTR [rsi]
    10b5:	84 c0                	test   al,al
    10b7:	0f 84 20 00 00 00    	je     0x10dd
    10bd:	48 ff ce             	dec    rsi
    10c0:	48 ff ce             	dec    rsi
    10c3:	48 ff ce             	dec    rsi
    10c6:	48 ff ce             	dec    rsi
    10c9:	48 ff ce             	dec    rsi
    10cc:	48 ff ce             	dec    rsi
    10cf:	48 ff ce             	dec    rsi
    10d2:	48 ff ce             	dec    rsi
    10d5:	48 ff ce             	dec    rsi
    10d8:	e9 d6 ff ff ff       	jmp    0x10b3
    10dd:	e9 f8 fe ff ff       	jmp    0xfda
    10e2:	48 ff c6             	inc    rsi
    10e5:	48 ff c6             	inc    rsi
    10e8:	48 ff c6             	inc    rsi
    10eb:	48 ff c6             	inc    rsi
    10ee:	48 ff c6             	inc    rsi
    10f1:	48 ff c6             	inc    rsi
    10f4:	48 ff c6             	inc    rsi
    10f7:	48 ff c6             	inc    rsi
    10fa:	48 ff c6             	inc    rsi
    10fd:	8a 06                	mov    al,BYTE PTR [rsi]
    10ff:	84 c0                	test   al,al
    1101:	0f 84 20 00 00 00    	je     0x1127
    1107:	48 ff c6             	inc    rsi
    110a:	48 ff c6             	inc    rsi
    110d:	48 ff c6             	inc    rsi
    1110:	48 ff c6             	inc    rsi
    1113:	48 ff c6             	inc    rsi
    1116:	48 ff c6             	inc    rsi
    1119:	48 ff c6             	inc    rsi
    111c:	48 ff c6             	inc    rsi
    111f:	48 ff c6             	inc    rsi
    1122:	e9 d6 ff ff ff       	jmp    0x10fd
    1127:	48 ff ce             	dec    rsi
    112a:	48 ff ce             	dec    rsi
    112d:	48 ff ce             	dec    rsi
    1130:	48 ff ce             	dec    rsi
    1133:	48 ff ce             	dec    rsi
    1136:	48 ff ce             	dec    rsi
    1139:	48 ff ce             	dec    rsi
    113c:	48 ff ce             	dec    rsi
    113f:	48 ff ce             	dec    rsi
    1142:	8a 06                	mov    al,BYTE PTR [rsi]
    1144:	84 c0                	test   al,al
    1146:	0f 84 75 00 00 00    	je     0x11c1
    114c:	48 ff c6             	inc    rsi
    114f:	48 ff c6             	inc    rsi
    1152:	8a 06                	mov    al,BYTE PTR [rsi]
    1154:	84 c0                	test   al,al
    1156:	0f 84 3f 00 00 00    	je     0x119b
    115c:	fe 0e                	dec    BYTE PTR [rsi]
    115e:	48 ff c6             	inc    rsi
    1161:	48 ff c6             	inc    rsi
    1164:	48 ff c6             	inc    rsi
    1167:	48 ff c6             	inc    rsi
    116a:	48 ff c6             	inc    rsi
    116d:	48 ff c6             	inc    rsi
    1170:	48 ff c6             	inc    rsi
    1173:	48 ff c6             	inc    rsi
    1176:	48 ff c6             	inc    rsi
    1179:	fe 06                	inc    BYTE PTR [rsi]
    117b:	48 ff ce             	dec    rsi
    117e:	48 ff ce             	dec    rsi
    1181:	48 ff ce             	dec    rsi
    1184:	48 ff ce             	dec    rsi
    1187:	48 ff ce             	dec    rsi
    118a:	48 ff ce             	dec    rsi
    118d:	48 ff ce             	dec    rsi
    1190:	48 ff ce             	dec    rsi
    1193:	48 ff ce             	dec    rsi
    1196:	e9 b7 ff ff ff       	jmp    0x1152
    119b:	48 ff ce             	dec    rsi
    119e:	48 ff ce             	dec    rsi
    11a1:	48 ff ce             	dec    rsi
    11a4:	48 ff ce             	dec    rsi
    11a7:	48 ff ce             	dec    rsi
    11aa:	48 ff ce             	dec    rsi
    11ad:	48 ff ce             	dec    rsi
    11b0:	48 ff ce             	dec    rsi
    11b3:	48 ff ce             	dec    rsi
    11b6:	48 ff ce             	dec    rsi
    11b9:	48 ff ce             	dec    rsi
    11bc:	e9 81 ff ff ff       	jmp    0x1142
    11c1:	48 ff c6             	inc    rsi
    11c4:	48 ff c6             	inc    rsi
    11c7:	8a 06                	mov    al,BYTE PTR [rsi]
    11c9:	84 c0                	test   al,al
    11cb:	0f 84 3f 00 00 00    	je     0x1210
    11d1:	fe 0e                	dec    BYTE PTR [rsi]
    11d3:	48 ff c6             	inc    rsi
    11d6:	48 ff c6             	inc    rsi
    11d9:	48 ff c6             	inc    rsi
    11dc:	48 ff c6             	inc    rsi
    11df:	48 ff c6             	inc    rsi
    11e2:	48 ff c6             	inc    rsi
    11e5:	48 ff c6             	inc    rsi
    11e8:	48 ff c6             	inc    rsi
    11eb:	48 ff c6             	inc    rsi
    11ee:	fe 06                	inc    BYTE PTR [rsi]
    11f0:	48 ff ce             	dec    rsi
    11f3:	48 ff ce             	dec    rsi
    11f6:	48 ff ce             	dec    rsi
    11f9:	48 ff ce             	dec    rsi
    11fc:	48 ff ce             	dec    rsi
    11ff:	48 ff ce             	dec    rsi
    1202:	48 ff ce             	dec    rsi
    1205:	48 ff ce             	dec    rsi
    1208:	48 ff ce             	dec    rsi
    120b:	e9 b7 ff ff ff       	jmp    0x11c7
    1210:	48 ff ce             	dec    rsi
    1213:	48 ff ce             	dec    rsi
    1216:	fe 06                	inc    BYTE PTR [rsi]
    1218:	48 ff c6             	inc    rsi
    121b:	48 ff c6             	inc    rsi
    121e:	48 ff c6             	inc    rsi
    1221:	48 ff c6             	inc    rsi
    1224:	48 ff c6             	inc    rsi
    1227:	48 ff c6             	inc    rsi
    122a:	48 ff c6             	inc    rsi
    122d:	48 ff c6             	inc    rsi
    1230:	e9 47 fd ff ff       	jmp    0xf7c
    1235:	48 ff ce             	dec    rsi
    1238:	48 ff ce             	dec    rsi
    123b:	48 ff ce             	dec    rsi
    123e:	48 ff ce             	dec    rsi
    1241:	48 ff ce             	dec    rsi
    1244:	48 ff ce             	dec    rsi
    1247:	48 ff ce             	dec    rsi
    124a:	48 ff ce             	dec    rsi
    124d:	48 ff ce             	dec    rsi
    1250:	8a 06                	mov    al,BYTE PTR [rsi]
    1252:	84 c0                	test   al,al
    1254:	0f 84 01 01 00 00    	je     0x135b
    125a:	48 ff c6             	inc    rsi
    125d:	8a 06                	mov    al,BYTE PTR [rsi]
    125f:	84 c0                	test   al,al
    1261:	0f 84 07 00 00 00    	je     0x126e
    1267:	fe 0e                	dec    BYTE PTR [rsi]
    1269:	e9 ef ff ff ff       	jmp    0x125d
    126e:	48 ff ce             	dec    rsi
    1271:	fe 0e                	dec    BYTE PTR [rsi]
    1273:	48 ff c6             	inc    rsi
    1276:	48 ff c6             	inc    rsi
    1279:	48 ff c6             	inc    rsi
    127c:	48 ff c6             	inc    rsi
    127f:	8a 06                	mov    al,BYTE PTR [rsi]
    1281:	84 c0                	test   al,al
    1283:	0f 84 7f 00 00 00    	je     0x1308
    1289:	fe 0e                	dec    BYTE PTR [rsi]
    128b:	48 ff ce             	dec    rsi
    128e:	48 ff ce             	dec    rsi
    1291:	48 ff ce             	dec    rsi
    1294:	48 ff ce             	dec    rsi
    1297:	fe 06                	inc    BYTE PTR [rsi]
    1299:	48 ff c6             	inc    rsi
    129c:	8a 06                	mov    al,BYTE PTR [rsi]
    129e:	84 c0                	test   al,al
    12a0:	0f 84 35 00 00 00    	je     0x12db
    12a6:	48 ff ce             	dec    rsi
    12a9:	fe 0e                	dec    BYTE PTR [rsi]
    12ab:	48 ff c6             	inc    rsi
    12ae:	fe 0e                	dec    BYTE PTR [rsi]
    12b0:	48 ff ce             	dec    rsi
    12b3:	48 ff ce             	dec    rsi
    12b6:	48 ff ce             	dec    rsi
    12b9:	48 ff ce             	dec    rsi
    12bc:	48 ff ce             	dec    rsi
    12bf:	48 ff ce             	dec    rsi
    12c2:	fe 06                	inc    BYTE PTR [rsi]
    12c4:	48 ff c6             	inc    rsi
    12c7:	48 ff c6             	inc    rsi
    12ca:	48 ff c6             	inc    rsi
    12cd:	48 ff c6             	inc    rsi
    12d0:	48 ff c6             	inc    rsi
    12d3:	48 ff c6             	inc    rsi
    12d6:	e9 c1 ff ff ff       	jmp    0x129c
    12db:	48 ff ce             	dec    rsi
    12de:	8a 06                	mov    al,BYTE PTR [rsi]
    12e0:	84 c0                	test   al,al
    12e2:	0f 84 0f 00 00 00    	je     0x12f7
    12e8:	fe 0e                	dec    BYTE PTR [rsi]
    12ea:	48 ff c6             	inc    rsi
    12ed:	fe 06                	inc    BYTE PTR [rsi]
    12ef:	48 ff ce             	dec    rsi
    12f2:	e9 e7 ff ff ff       	jmp    0x12de
    12f7:	48 ff c6             	inc    rsi
    12fa:	48 ff c6             	inc    rsi
    12fd:	48 ff c6             	inc    rsi
    1300:	48 ff c6             	inc    rsi
    1303:	e9 77 ff ff ff       	jmp    0x127f
    1308:	48 ff ce             	dec    rsi
    130b:	48 ff ce             	dec    rsi
    130e:	48 ff ce             	dec    rsi
    1311:	8a 06                	mov    al,BYTE PTR [rsi]
    1313:	84 c0                	test   al,al
    1315:	0f 84 1b 00 00 00    	je     0x1336
    131b:	fe 0e                	dec    BYTE PTR [rsi]
    131d:	48 ff c6             	inc    rsi
    1320:	48 ff c6             	inc    rsi
    1323:	48 ff c6             	inc    rsi
    1326:	fe 06                	inc    BYTE PTR [rsi]
    1328:	48 ff ce             	dec    rsi
    132b:	48 ff ce             	dec    rsi
    132e:	48 ff ce             	dec    rsi
    1331:	e9 db ff ff ff       	jmp    0x1311
    1336:	48 ff ce             	dec    rsi
    1339:	fe 06                	inc    BYTE PTR [rsi]
    133b:	48 ff ce             	dec    rsi
    133e:	48 ff ce             	dec    rsi
    1341:	48 ff ce             	dec    rsi
    1344:	48 ff ce             	dec    rsi
    1347:	48 ff ce             	dec    rsi
    134a:	48 ff ce             	dec    rsi
    134d:	48 ff ce             	dec    rsi
    1350:	48 ff ce             	dec    rsi
    1353:	48 ff ce             	dec    rsi
    1356:	e9 f5 fe ff ff       	jmp    0x1250
    135b:	48 ff c6             	inc    rsi
    135e:	48 ff c6             	inc    rsi
    1361:	48 ff c6             	inc    rsi
    1364:	48 ff c6             	inc    rsi
    1367:	48 ff c6             	inc    rsi
    136a:	48 ff c6             	inc    rsi
    136d:	48 ff c6             	inc    rsi
    1370:	48 ff c6             	inc    rsi
    1373:	48 ff c6             	inc    rsi
    1376:	8a 06                	mov    al,BYTE PTR [rsi]
    1378:	84 c0                	test   al,al
    137a:	0f 84 0b 01 00 00    	je     0x148b
    1380:	48 ff c6             	inc    rsi
    1383:	48 ff c6             	inc    rsi
    1386:	48 ff c6             	inc    rsi
    1389:	48 ff c6             	inc    rsi
    138c:	8a 06                	mov    al,BYTE PTR [rsi]
    138e:	84 c0                	test   al,al
    1390:	0f 84 e1 00 00 00    	je     0x1477
    1396:	fe 0e                	dec    BYTE PTR [rsi]
    1398:	48 ff ce             	dec    rsi
    139b:	48 ff ce             	dec    rsi
    139e:	48 ff ce             	dec    rsi
    13a1:	48 ff ce             	dec    rsi
    13a4:	48 ff ce             	dec    rsi
    13a7:	48 ff ce             	dec    rsi
    13aa:	48 ff ce             	dec    rsi
    13ad:	48 ff ce             	dec    rsi
    13b0:	48 ff ce             	dec    rsi
    13b3:	48 ff ce             	dec    rsi
    13b6:	48 ff ce             	dec    rsi
    13b9:	48 ff ce             	dec    rsi
    13bc:	48 ff ce             	dec    rsi
    13bf:	48 ff ce             	dec    rsi
    13c2:	48 ff ce             	dec    rsi
    13c5:	48 ff ce             	dec    rsi
    13c8:	48 ff ce             	dec    rsi
    13cb:	48 ff ce             	dec    rsi
    13ce:	48 ff ce             	dec    rsi
    13d1:	48 ff ce             	dec    rsi
    13d4:	48 ff ce             	dec    rsi
    13d7:	48 ff ce             	dec    rsi
    13da:	48 ff ce             	dec    rsi
    13dd:	48 ff ce             	dec    rsi
    13e0:	48 ff ce             	dec    rsi
    13e3:	48 ff ce             	dec    rsi
    13e6:	48 ff ce             	dec    rsi
    13e9:	48 ff ce             	dec    rsi
    13ec:	48 ff ce             	dec    rsi
    13ef:	48 ff ce             	dec    rsi
    13f2:	48 ff ce             	dec    rsi
    13f5:	48 ff ce             	dec    rsi
    13f8:	48 ff ce             	dec    rsi
    13fb:	48 ff ce             	dec    rsi
    13fe:	48 ff ce             	dec    rsi
    1401:	48 ff ce             	dec    rsi
    1404:	fe 06                	inc    BYTE PTR [rsi]
    1406:	48 ff c6             	inc    rsi
    1409:	48 ff c6             	inc    rsi
    140c:	48 ff c6             	inc    rsi
    140f:	48 ff c6             	inc    rsi
    1412:	48 ff c6             	inc    rsi
    1415:	48 ff c6             	inc    rsi
    1418:	48 ff c6             	inc    rsi
    141b:	48 ff c6             	inc    rsi
    141e:	48 ff c6             	inc    rsi
    1421:	48 ff c6             	inc    rsi
    1424:	48 ff c6             	inc    rsi
    1427:	48 ff c6             	inc    rsi
    142a:	48 ff c6             	inc    rsi
    142d:	48 ff c6             	inc    rsi
    1430:	48 ff c6             	inc    rsi
    1433:	48 ff c6             	inc    rsi
    1436:	48 ff c6             	inc    rsi
    1439:	48 ff c6             	inc    rsi
    143c:	48 ff c6             	inc    rsi
    143f:	48 ff c6             	inc    rsi
    1442:	48 ff c6             	inc    rsi
    1445:	48 ff c6             	inc    rsi
    1448:	48 ff c6             	inc    rsi
    144b:	48 ff c6             	inc    rsi
    144e:	48 ff c6             	inc    rsi
    1451:	48 ff c6             	inc    rsi
    1454:	48 ff c6             	inc    rsi
    1457:	48 ff c6             	inc    rsi
    145a:	48 ff c6             	inc    rsi
    145d:	48 ff c6             	inc    rsi
    1460:	48 ff c6             	inc    rsi
    1463:	48 ff c6             	inc    rsi
    1466:	48 ff c6             	inc    rsi
    1469:	48 ff c6             	inc    rsi
    146c:	48 ff c6             	inc    rsi
    146f:	48 ff c6             	inc    rsi
    1472:	e9 15 ff ff ff       	jmp    0x138c
    1477:	48 ff c6             	inc    rsi
    147a:	48 ff c6             	inc    rsi
    147d:	48 ff c6             	inc    rsi
    1480:	48 ff c6             	inc    rsi
    1483:	48 ff c6             	inc    rsi
    1486:	e9 eb fe ff ff       	jmp    0x1376
    148b:	48 ff ce             	dec    rsi
    148e:	48 ff ce             	dec    rsi
    1491:	48 ff ce             	dec    rsi
    1494:	48 ff ce             	dec    rsi
    1497:	48 ff ce             	dec    rsi
    149a:	48 ff ce             	dec    rsi
    149d:	48 ff ce             	dec    rsi
    14a0:	48 ff ce             	dec    rsi
    14a3:	48 ff ce             	dec    rsi
    14a6:	8a 06                	mov    al,BYTE PTR [rsi]
    14a8:	84 c0                	test   al,al
    14aa:	0f 84 20 00 00 00    	je     0x14d0
    14b0:	48 ff ce             	dec    rsi
    14b3:	48 ff ce             	dec    rsi
    14b6:	48 ff ce             	dec    rsi
    14b9:	48 ff ce             	dec    rsi
    14bc:	48 ff ce             	dec    rsi
    14bf:	48 ff ce             	dec    rsi
    14c2:	48 ff ce             	dec    rsi
    14c5:	48 ff ce             	dec    rsi
    14c8:	48 ff ce             	dec    rsi
    14cb:	e9 d6 ff ff ff       	jmp    0x14a6
    14d0:	48 ff c6             	inc    rsi
    14d3:	48 ff c6             	inc    rsi
    14d6:	48 ff c6             	inc    rsi
    14d9:	48 ff c6             	inc    rsi
    14dc:	48 ff c6             	inc    rsi
    14df:	48 ff c6             	inc    rsi
    14e2:	48 ff c6             	inc    rsi
    14e5:	48 ff c6             	inc    rsi
    14e8:	48 ff c6             	inc    rsi
    14eb:	fe 06                	inc    BYTE PTR [rsi]
    14ed:	fe 06                	inc    BYTE PTR [rsi]
    14ef:	fe 06                	inc    BYTE PTR [rsi]
    14f1:	fe 06                	inc    BYTE PTR [rsi]
    14f3:	fe 06                	inc    BYTE PTR [rsi]
    14f5:	fe 06                	inc    BYTE PTR [rsi]
    14f7:	fe 06                	inc    BYTE PTR [rsi]
    14f9:	fe 06                	inc    BYTE PTR [rsi]
    14fb:	fe 06                	inc    BYTE PTR [rsi]
    14fd:	fe 06                	inc    BYTE PTR [rsi]
    14ff:	fe 06                	inc    BYTE PTR [rsi]
    1501:	fe 06                	inc    BYTE PTR [rsi]
    1503:	fe 06                	inc    BYTE PTR [rsi]
    1505:	fe 06                	inc    BYTE PTR [rsi]
    1507:	fe 06                	inc    BYTE PTR [rsi]
    1509:	8a 06                	mov    al,BYTE PTR [rsi]
    150b:	84 c0                	test   al,al
    150d:	0f 84 ae 00 00 00    	je     0x15c1
    1513:	8a 06                	mov    al,BYTE PTR [rsi]
    1515:	84 c0                	test   al,al
    1517:	0f 84 20 00 00 00    	je     0x153d
    151d:	48 ff c6             	inc    rsi
    1520:	48 ff c6             	inc    rsi
    1523:	48 ff c6             	inc    rsi
    1526:	48 ff c6             	inc    rsi
    1529:	48 ff c6             	inc    rsi
    152c:	48 ff c6             	inc    rsi
    152f:	48 ff c6             	inc    rsi
    1532:	48 ff c6             	inc    rsi
    1535:	48 ff c6             	inc    rsi
    1538:	e9 d6 ff ff ff       	jmp    0x1513
    153d:	48 ff ce             	dec    rsi
    1540:	48 ff ce             	dec    rsi
    1543:	48 ff ce             	dec    rsi
    1546:	48 ff ce             	dec    rsi
    1549:	48 ff ce             	dec    rsi
    154c:	48 ff ce             	dec    rsi
    154f:	48 ff ce             	dec    rsi
    1552:	48 ff ce             	dec    rsi
    1555:	48 ff ce             	dec    rsi
    1558:	fe 0e                	dec    BYTE PTR [rsi]
    155a:	48 ff ce             	dec    rsi
    155d:	48 ff ce             	dec    rsi
    1560:	48 ff ce             	dec    rsi
    1563:	48 ff ce             	dec    rsi
    1566:	48 ff ce             	dec    rsi
    1569:	48 ff ce             	dec    rsi
    156c:	48 ff ce             	dec    rsi
    156f:	48 ff ce             	dec    rsi
    1572:	48 ff ce             	dec    rsi
    1575:	8a 06                	mov    al,BYTE PTR [rsi]
    1577:	84 c0                	test   al,al
    1579:	0f 84 20 00 00 00    	je     0x159f
    157f:	48 ff ce             	dec    rsi
    1582:	48 ff ce             	dec    rsi
    1585:	48 ff ce             	dec    rsi
    1588:	48 ff ce             	dec    rsi
    158b:	48 ff ce             	dec    rsi
    158e:	48 ff ce             	dec    rsi
    1591:	48 ff ce             	dec    rsi
    1594:	48 ff ce             	dec    rsi
    1597:	48 ff ce             	dec    rsi
    159a:	e9 d6 ff ff ff       	jmp    0x1575
    159f:	48 ff c6             	inc    rsi
    15a2:	48 ff c6             	inc    rsi
    15a5:	48 ff c6             	inc    rsi
    15a8:	48 ff c6             	inc    rsi
    15ab:	48 ff c6             	inc    rsi
    15ae:	48 ff c6             	inc    rsi
    15b1:	48 ff c6             	inc    rsi
    15b4:	48 ff c6             	inc    rsi
    15b7:	48 ff c6             	inc    rsi
    15ba:	fe 0e                	dec    BYTE PTR [rsi]
    15bc:	e9 48 ff ff ff       	jmp    0x1509
    15c1:	fe 06                	inc    BYTE PTR [rsi]
    15c3:	48 ff c6             	inc    rsi
    15c6:	48 ff c6             	inc    rsi
    15c9:	48 ff c6             	inc    rsi
    15cc:	48 ff c6             	inc    rsi
    15cf:	48 ff c6             	inc    rsi
    15d2:	48 ff c6             	inc    rsi
    15d5:	48 ff c6             	inc    rsi
    15d8:	48 ff c6             	inc    rsi
    15db:	48 ff c6             	inc    rsi
    15de:	48 ff c6             	inc    rsi
    15e1:	48 ff c6             	inc    rsi
    15e4:	48 ff c6             	inc    rsi
    15e7:	48 ff c6             	inc    rsi
    15ea:	48 ff c6             	inc    rsi
    15ed:	48 ff c6             	inc    rsi
    15f0:	48 ff c6             	inc    rsi
    15f3:	48 ff c6             	inc    rsi
    15f6:	48 ff c6             	inc    rsi
    15f9:	48 ff c6             	inc    rsi
    15fc:	48 ff c6             	inc    rsi
    15ff:	48 ff c6             	inc    rsi
    1602:	fe 06                	inc    BYTE PTR [rsi]
    1604:	48 ff ce             	dec    rsi
    1607:	48 ff ce             	dec    rsi
    160a:	48 ff ce             	dec    rsi
    160d:	8a 06                	mov    al,BYTE PTR [rsi]
    160f:	84 c0                	test   al,al
    1611:	0f 84 20 00 00 00    	je     0x1637
    1617:	48 ff ce             	dec    rsi
    161a:	48 ff ce             	dec    rsi
    161d:	48 ff ce             	dec    rsi
    1620:	48 ff ce             	dec    rsi
    1623:	48 ff ce             	dec    rsi
    1626:	48 ff ce             	dec    rsi
    1629:	48 ff ce             	dec    rsi
    162c:	48 ff ce             	dec    rsi
    162f:	48 ff ce             	dec    rsi
    1632:	e9 d6 ff ff ff       	jmp    0x160d
    1637:	48 ff c6             	inc    rsi
    163a:	48 ff c6             	inc    rsi
    163d:	48 ff c6             	inc    rsi
    1640:	48 ff c6             	inc    rsi
    1643:	48 ff c6             	inc    rsi
    1646:	48 ff c6             	inc    rsi
    1649:	48 ff c6             	inc    rsi
    164c:	48 ff c6             	inc    rsi
    164f:	48 ff c6             	inc    rsi
    1652:	8a 06                	mov    al,BYTE PTR [rsi]
    1654:	84 c0                	test   al,al
    1656:	0f 84 49 03 00 00    	je     0x19a5
    165c:	48 ff c6             	inc    rsi
    165f:	48 ff c6             	inc    rsi
    1662:	48 ff c6             	inc    rsi
    1665:	8a 06                	mov    al,BYTE PTR [rsi]
    1667:	84 c0                	test   al,al
    1669:	0f 84 1b 00 00 00    	je     0x168a
    166f:	fe 0e                	dec    BYTE PTR [rsi]
    1671:	48 ff ce             	dec    rsi
    1674:	48 ff ce             	dec    rsi
    1677:	48 ff ce             	dec    rsi
    167a:	fe 0e                	dec    BYTE PTR [rsi]
    167c:	48 ff c6             	inc    rsi
    167f:	48 ff c6             	inc    rsi
    1682:	48 ff c6             	inc    rsi
    1685:	e9 db ff ff ff       	jmp    0x1665
    168a:	fe 06                	inc    BYTE PTR [rsi]
    168c:	48 ff ce             	dec    rsi
    168f:	48 ff ce             	dec    rsi
    1692:	48 ff ce             	dec    rsi
    1695:	8a 06                	mov    al,BYTE PTR [rsi]
    1697:	84 c0                	test   al,al
    1699:	0f 84 1c 01 00 00    	je     0x17bb
    169f:	fe 0e                	dec    BYTE PTR [rsi]
    16a1:	48 ff c6             	inc    rsi
    16a4:	48 ff c6             	inc    rsi
    16a7:	48 ff c6             	inc    rsi
    16aa:	fe 0e                	dec    BYTE PTR [rsi]
    16ac:	48 ff c6             	inc    rsi
    16af:	8a 06                	mov    al,BYTE PTR [rsi]
    16b1:	84 c0                	test   al,al
    16b3:	0f 84 21 00 00 00    	je     0x16da
    16b9:	fe 0e                	dec    BYTE PTR [rsi]
    16bb:	48 ff ce             	dec    rsi
    16be:	48 ff ce             	dec    rsi
    16c1:	48 ff ce             	dec    rsi
    16c4:	48 ff ce             	dec    rsi
    16c7:	fe 06                	inc    BYTE PTR [rsi]
    16c9:	48 ff c6             	inc    rsi
    16cc:	48 ff c6             	inc    rsi
    16cf:	48 ff c6             	inc    rsi
    16d2:	48 ff c6             	inc    rsi
    16d5:	e9 d5 ff ff ff       	jmp    0x16af
    16da:	48 ff ce             	dec    rsi
    16dd:	48 ff ce             	dec    rsi
    16e0:	48 ff ce             	dec    rsi
    16e3:	48 ff ce             	dec    rsi
    16e6:	8a 06                	mov    al,BYTE PTR [rsi]
    16e8:	84 c0                	test   al,al
    16ea:	0f 84 c6 00 00 00    	je     0x17b6
    16f0:	fe 0e                	dec    BYTE PTR [rsi]
    16f2:	48 ff c6             	inc    rsi
    16f5:	48 ff c6             	inc    rsi
    16f8:	48 ff c6             	inc    rsi
    16fb:	48 ff c6             	inc    rsi
    16fe:	fe 06                	inc    BYTE PTR [rsi]
    1700:	48 ff ce             	dec    rsi
    1703:	48 ff ce             	dec    rsi
    1706:	48 ff ce             	dec    rsi
    1709:	48 ff ce             	dec    rsi
    170c:	48 ff ce             	dec    rsi
    170f:	48 ff ce             	dec    rsi
    1712:	48 ff ce             	dec    rsi
    1715:	48 ff ce             	dec    rsi
    1718:	48 ff ce             	dec    rsi
    171b:	48 ff ce             	dec    rsi
    171e:	48 ff ce             	dec    rsi
    1721:	48 ff ce             	dec    rsi
    1724:	48 ff ce             	dec    rsi
    1727:	8a 06                	mov    al,BYTE PTR [rsi]
    1729:	84 c0                	test   al,al
    172b:	0f 84 20 00 00 00    	je     0x1751
    1731:	48 ff ce             	dec    rsi
    1734:	48 ff ce             	dec    rsi
    1737:	48 ff ce             	dec    rsi
    173a:	48 ff ce             	dec    rsi
    173d:	48 ff ce             	dec    rsi
    1740:	48 ff ce             	dec    rsi
    1743:	48 ff ce             	dec    rsi
    1746:	48 ff ce             	dec    rsi
    1749:	48 ff ce             	dec    rsi
    174c:	e9 d6 ff ff ff       	jmp    0x1727
    1751:	48 ff c6             	inc    rsi
    1754:	48 ff c6             	inc    rsi
    1757:	48 ff c6             	inc    rsi
    175a:	48 ff c6             	inc    rsi
    175d:	8a 06                	mov    al,BYTE PTR [rsi]
    175f:	84 c0                	test   al,al
    1761:	0f 84 07 00 00 00    	je     0x176e
    1767:	fe 0e                	dec    BYTE PTR [rsi]
    1769:	e9 ef ff ff ff       	jmp    0x175d
    176e:	fe 06                	inc    BYTE PTR [rsi]
    1770:	48 ff c6             	inc    rsi
    1773:	48 ff c6             	inc    rsi
    1776:	48 ff c6             	inc    rsi
    1779:	48 ff c6             	inc    rsi
    177c:	48 ff c6             	inc    rsi
    177f:	8a 06                	mov    al,BYTE PTR [rsi]
    1781:	84 c0                	test   al,al
    1783:	0f 84 20 00 00 00    	je     0x17a9
    1789:	48 ff c6             	inc    rsi
    178c:	48 ff c6             	inc    rsi
    178f:	48 ff c6             	inc    rsi
    1792:	48 ff c6             	inc    rsi
    1795:	48 ff c6             	inc    rsi
    1798:	48 ff c6             	inc    rsi
    179b:	48 ff c6             	inc    rsi
    179e:	48 ff c6             	inc    rsi
    17a1:	48 ff c6             	inc    rsi
    17a4:	e9 d6 ff ff ff       	jmp    0x177f
    17a9:	48 ff c6             	inc    rsi
    17ac:	fe 06                	inc    BYTE PTR [rsi]
    17ae:	48 ff ce             	dec    rsi
    17b1:	e9 30 ff ff ff       	jmp    0x16e6
    17b6:	e9 da fe ff ff       	jmp    0x1695
    17bb:	fe 06                	inc    BYTE PTR [rsi]
    17bd:	48 ff c6             	inc    rsi
    17c0:	48 ff c6             	inc    rsi
    17c3:	48 ff c6             	inc    rsi
    17c6:	48 ff c6             	inc    rsi
    17c9:	8a 06                	mov    al,BYTE PTR [rsi]
    17cb:	84 c0                	test   al,al
    17cd:	0f 84 21 00 00 00    	je     0x17f4
    17d3:	fe 0e                	dec    BYTE PTR [rsi]
    17d5:	48 ff ce             	dec    rsi
    17d8:	48 ff ce             	dec    rsi
    17db:	48 ff ce             	dec    rsi
    17de:	48 ff ce             	dec    rsi
    17e1:	fe 0e                	dec    BYTE PTR [rsi]
    17e3:	48 ff c6             	inc    rsi
    17e6:	48 ff c6             	inc    rsi
    17e9:	48 ff c6             	inc    rsi
    17ec:	48 ff c6             	inc    rsi
    17ef:	e9 d5 ff ff ff       	jmp    0x17c9
    17f4:	fe 06                	inc    BYTE PTR [rsi]
    17f6:	48 ff ce             	dec    rsi
    17f9:	48 ff ce             	dec    rsi
    17fc:	48 ff ce             	dec    rsi
    17ff:	48 ff ce             	dec    rsi
    1802:	8a 06                	mov    al,BYTE PTR [rsi]
    1804:	84 c0                	test   al,al
    1806:	0f 84 21 01 00 00    	je     0x192d
    180c:	fe 0e                	dec    BYTE PTR [rsi]
    180e:	48 ff c6             	inc    rsi
    1811:	48 ff c6             	inc    rsi
    1814:	48 ff c6             	inc    rsi
    1817:	48 ff c6             	inc    rsi
    181a:	fe 0e                	dec    BYTE PTR [rsi]
    181c:	48 ff ce             	dec    rsi
    181f:	8a 06                	mov    al,BYTE PTR [rsi]
    1821:	84 c0                	test   al,al
    1823:	0f 84 1b 00 00 00    	je     0x1844
    1829:	fe 0e                	dec    BYTE PTR [rsi]
    182b:	48 ff ce             	dec    rsi
    182e:	48 ff ce             	dec    rsi
    1831:	48 ff ce             	dec    rsi
    1834:	fe 06                	inc    BYTE PTR [rsi]
    1836:	48 ff c6             	inc    rsi
    1839:	48 ff c6             	inc    rsi
    183c:	48 ff c6             	inc    rsi
    183f:	e9 db ff ff ff       	jmp    0x181f
    1844:	48 ff ce             	dec    rsi
    1847:	48 ff ce             	dec    rsi
    184a:	48 ff ce             	dec    rsi
    184d:	8a 06                	mov    al,BYTE PTR [rsi]
    184f:	84 c0                	test   al,al
    1851:	0f 84 d1 00 00 00    	je     0x1928
    1857:	fe 0e                	dec    BYTE PTR [rsi]
    1859:	48 ff c6             	inc    rsi
    185c:	48 ff c6             	inc    rsi
    185f:	48 ff c6             	inc    rsi
    1862:	fe 06                	inc    BYTE PTR [rsi]
    1864:	48 ff ce             	dec    rsi
    1867:	48 ff ce             	dec    rsi
    186a:	48 ff ce             	dec    rsi
    186d:	48 ff ce             	dec    rsi
    1870:	48 ff ce             	dec    rsi
    1873:	48 ff ce             	dec    rsi
    1876:	48 ff ce             	dec    rsi
    1879:	48 ff ce             	dec    rsi
    187c:	48 ff ce             	dec    rsi
    187f:	48 ff ce             	dec    rsi
    1882:	48 ff ce             	dec    rsi
    1885:	48 ff ce             	dec    rsi
    1888:	8a 06                	mov    al,BYTE PTR [rsi]
    188a:	84 c0                	test   al,al
    188c:	0f 84 20 00 00 00    	je     0x18b2
    1892:	48 ff ce             	dec    rsi
    1895:	48 ff ce             	dec    rsi
    1898:	48 ff ce             	dec    rsi
    189b:	48 ff ce             	dec    rsi
    189e:	48 ff ce             	dec    rsi
    18a1:	48 ff ce             	dec    rsi
    18a4:	48 ff ce             	dec    rsi
    18a7:	48 ff ce             	dec    rsi
    18aa:	48 ff ce             	dec    rsi
    18ad:	e9 d6 ff ff ff       	jmp    0x1888
    18b2:	48 ff c6             	inc    rsi
    18b5:	48 ff c6             	inc    rsi
    18b8:	48 ff c6             	inc    rsi
    18bb:	8a 06                	mov    al,BYTE PTR [rsi]
    18bd:	84 c0                	test   al,al
    18bf:	0f 84 07 00 00 00    	je     0x18cc
    18c5:	fe 0e                	dec    BYTE PTR [rsi]
    18c7:	e9 ef ff ff ff       	jmp    0x18bb
    18cc:	fe 06                	inc    BYTE PTR [rsi]
    18ce:	48 ff c6             	inc    rsi
    18d1:	48 ff c6             	inc    rsi
    18d4:	48 ff c6             	inc    rsi
    18d7:	48 ff c6             	inc    rsi
    18da:	48 ff c6             	inc    rsi
    18dd:	48 ff c6             	inc    rsi
    18e0:	8a 06                	mov    al,BYTE PTR [rsi]
    18e2:	84 c0                	test   al,al
    18e4:	0f 84 20 00 00 00    	je     0x190a
    18ea:	48 ff c6             	inc    rsi
    18ed:	48 ff c6             	inc    rsi
    18f0:	48 ff c6             	inc    rsi
    18f3:	48 ff c6             	inc    rsi
    18f6:	48 ff c6             	inc    rsi
    18f9:	48 ff c6             	inc    rsi
    18fc:	48 ff c6             	inc    rsi
    18ff:	48 ff c6             	inc    rsi
    1902:	48 ff c6             	inc    rsi
    1905:	e9 d6 ff ff ff       	jmp    0x18e0
    190a:	48 ff c6             	inc    rsi
    190d:	8a 06                	mov    al,BYTE PTR [rsi]
    190f:	84 c0                	test   al,al
    1911:	0f 84 07 00 00 00    	je     0x191e
    1917:	fe 0e                	dec    BYTE PTR [rsi]
    1919:	e9 ef ff ff ff       	jmp    0x190d
    191e:	fe 06                	inc    BYTE PTR [rsi]
    1920:	48 ff ce             	dec    rsi
    1923:	e9 25 ff ff ff       	jmp    0x184d
    1928:	e9 d5 fe ff ff       	jmp    0x1802
    192d:	fe 06                	inc    BYTE PTR [rsi]
    192f:	48 ff c6             	inc    rsi
    1932:	8a 06                	mov    al,BYTE PTR [rsi]
    1934:	84 c0                	test   al,al
    1936:	0f 84 4c 00 00 00    	je     0x1988
    193c:	fe 0e                	dec    BYTE PTR [rsi]
    193e:	48 ff ce             	dec    rsi
    1941:	8a 06                	mov    al,BYTE PTR [rsi]
    1943:	84 c0                	test   al,al
    1945:	0f 84 20 00 00 00    	je     0x196b
    194b:	48 ff c6             	inc    rsi
    194e:	48 ff c6             	inc    rsi
    1951:	48 ff c6             	inc    rsi
    1954:	48 ff c6             	inc    rsi
    1957:	48 ff c6             	inc    rsi
    195a:	48 ff c6             	inc    rsi
    195d:	48 ff c6             	inc    rsi
    1960:	48 ff c6             	inc    rsi
    1963:	48 ff c6             	inc    rsi
    1966:	e9 d6 ff ff ff       	jmp    0x1941
    196b:	48 ff ce             	dec    rsi
    196e:	48 ff ce             	dec    rsi
    1971:	48 ff ce             	dec    rsi
    1974:	48 ff ce             	dec    rsi
    1977:	48 ff ce             	dec    rsi
    197a:	48 ff ce             	dec    rsi
    197d:	48 ff ce             	dec    rsi
    1980:	48 ff ce             	dec    rsi
    1983:	e9 aa ff ff ff       	jmp    0x1932
    1988:	48 ff c6             	inc    rsi
    198b:	48 ff c6             	inc    rsi
    198e:	48 ff c6             	inc    rsi
    1991:	48 ff c6             	inc    rsi
    1994:	48 ff c6             	inc    rsi
    1997:	48 ff c6             	inc    rsi
    199a:	48 ff c6             	inc    rsi
    199d:	48 ff c6             	inc    rsi
    19a0:	e9 ad fc ff ff       	jmp    0x1652
    19a5:	48 ff ce             	dec    rsi
    19a8:	48 ff ce             	dec    rsi
    19ab:	48 ff ce             	dec    rsi
    19ae:	48 ff ce             	dec    rsi
    19b1:	48 ff ce             	dec    rsi
    19b4:	48 ff ce             	dec    rsi
    19b7:	48 ff ce             	dec    rsi
    19ba:	48 ff ce             	dec    rsi
    19bd:	48 ff ce             	dec    rsi
    19c0:	8a 06                	mov    al,BYTE PTR [rsi]
    19c2:	84 c0                	test   al,al
    19c4:	0f 84 20 00 00 00    	je     0x19ea
    19ca:	48 ff ce             	dec    rsi
    19cd:	48 ff ce             	dec    rsi
    19d0:	48 ff ce             	dec    rsi
    19d3:	48 ff ce             	dec    rsi
    19d6:	48 ff ce             	dec    rsi
    19d9:	48 ff ce             	dec    rsi
    19dc:	48 ff ce             	dec    rsi
    19df:	48 ff ce             	dec    rsi
    19e2:	48 ff ce             	dec    rsi
    19e5:	e9 d6 ff ff ff       	jmp    0x19c0
    19ea:	48 ff ce             	dec    rsi
    19ed:	48 ff ce             	dec    rsi
    19f0:	48 ff ce             	dec    rsi
    19f3:	48 ff ce             	dec    rsi
    19f6:	48 ff ce             	dec    rsi
    19f9:	48 ff ce             	dec    rsi
    19fc:	48 ff ce             	dec    rsi
    19ff:	8a 06                	mov    al,BYTE PTR [rsi]
    1a01:	84 c0                	test   al,al
    1a03:	0f 84 23 00 00 00    	je     0x1a2c
    1a09:	fe 0e                	dec    BYTE PTR [rsi]
    1a0b:	48 ff c6             	inc    rsi
    1a0e:	fe 06                	inc    BYTE PTR [rsi]
    1a10:	48 ff c6             	inc    rsi
    1a13:	48 ff c6             	inc    rsi
    1a16:	48 ff c6             	inc    rsi
    1a19:	fe 0e                	dec    BYTE PTR [rsi]
    1a1b:	48 ff ce             	dec    rsi
    1a1e:	48 ff ce             	dec    rsi
    1a21:	48 ff ce             	dec    rsi
    1a24:	48 ff ce             	dec    rsi
    1a27:	e9 d3 ff ff ff       	jmp    0x19ff
    1a2c:	48 ff c6             	inc    rsi
    1a2f:	48 ff c6             	inc    rsi
    1a32:	48 ff c6             	inc    rsi
    1a35:	48 ff c6             	inc    rsi
    1a38:	48 ff c6             	inc    rsi
    1a3b:	48 ff c6             	inc    rsi
    1a3e:	48 ff c6             	inc    rsi
    1a41:	48 ff c6             	inc    rsi
    1a44:	48 ff c6             	inc    rsi
    1a47:	fe 06                	inc    BYTE PTR [rsi]
    1a49:	fe 06                	inc    BYTE PTR [rsi]
    1a4b:	fe 06                	inc    BYTE PTR [rsi]
    1a4d:	fe 06                	inc    BYTE PTR [rsi]
    1a4f:	fe 06                	inc    BYTE PTR [rsi]
    1a51:	fe 06                	inc    BYTE PTR [rsi]
    1a53:	fe 06                	inc    BYTE PTR [rsi]
    1a55:	fe 06                	inc    BYTE PTR [rsi]
    1a57:	fe 06                	inc    BYTE PTR [rsi]
    1a59:	fe 06                	inc    BYTE PTR [rsi]
    1a5b:	fe 06                	inc    BYTE PTR [rsi]
    1a5d:	fe 06                	inc    BYTE PTR [rsi]
    1a5f:	fe 06                	inc    BYTE PTR [rsi]
    1a61:	fe 06                	inc    BYTE PTR [rsi]
    1a63:	fe 06                	inc    BYTE PTR [rsi]
    1a65:	fe 06                	inc    BYTE PTR [rsi]
    1a67:	fe 06                	inc    BYTE PTR [rsi]
    1a69:	fe 06                	inc    BYTE PTR [rsi]
    1a6b:	fe 06                	inc    BYTE PTR [rsi]
    1a6d:	fe 06                	inc    BYTE PTR [rsi]
    1a6f:	fe 06                	inc    BYTE PTR [rsi]
    1a71:	fe 06                	inc    BYTE PTR [rsi]
    1a73:	fe 06                	inc    BYTE PTR [rsi]
    1a75:	fe 06                	inc    BYTE PTR [rsi]
    1a77:	fe 06                	inc    BYTE PTR [rsi]
    1a79:	fe 06                	inc    BYTE PTR [rsi]
    1a7b:	48 ff c6             	inc    rsi
    1a7e:	48 ff c6             	inc    rsi
    1a81:	8a 06                	mov    al,BYTE PTR [rsi]
    1a83:	84 c0                	test   al,al
    1a85:	0f 84 21 00 00 00    	je     0x1aac
    1a8b:	fe 0e                	dec    BYTE PTR [rsi]
    1a8d:	48 ff ce             	dec    rsi
    1a90:	48 ff ce             	dec    rsi
    1a93:	48 ff ce             	dec    rsi
    1a96:	48 ff ce             	dec    rsi
    1a99:	fe 06                	inc    BYTE PTR [rsi]
    1a9b:	48 ff c6             	inc    rsi
    1a9e:	48 ff c6             	inc    rsi
    1aa1:	48 ff c6             	inc    rsi
    1aa4:	48 ff c6             	inc    rsi
    1aa7:	e9 d5 ff ff ff       	jmp    0x1a81
    1aac:	48 ff ce             	dec    rsi
    1aaf:	48 ff ce             	dec    rsi
    1ab2:	48 ff ce             	dec    rsi
    1ab5:	48 ff ce             	dec    rsi
    1ab8:	8a 06                	mov    al,BYTE PTR [rsi]
    1aba:	84 c0                	test   al,al
    1abc:	0f 84 32 00 00 00    	je     0x1af4
    1ac2:	fe 0e                	dec    BYTE PTR [rsi]
    1ac4:	48 ff c6             	inc    rsi
    1ac7:	48 ff c6             	inc    rsi
    1aca:	48 ff c6             	inc    rsi
    1acd:	48 ff c6             	inc    rsi
    1ad0:	fe 06                	inc    BYTE PTR [rsi]
    1ad2:	48 ff ce             	dec    rsi
    1ad5:	48 ff ce             	dec    rsi
    1ad8:	8a 06                	mov    al,BYTE PTR [rsi]
    1ada:	84 c0                	test   al,al
    1adc:	0f 84 07 00 00 00    	je     0x1ae9
    1ae2:	fe 0e                	dec    BYTE PTR [rsi]
    1ae4:	e9 ef ff ff ff       	jmp    0x1ad8
    1ae9:	48 ff ce             	dec    rsi
    1aec:	48 ff ce             	dec    rsi
    1aef:	e9 c4 ff ff ff       	jmp    0x1ab8
    1af4:	48 ff c6             	inc    rsi
    1af7:	48 ff c6             	inc    rsi
    1afa:	8a 06                	mov    al,BYTE PTR [rsi]
    1afc:	84 c0                	test   al,al
    1afe:	0f 84 e7 5b 00 00    	je     0x76eb
    1b04:	48 ff ce             	dec    rsi
    1b07:	48 ff ce             	dec    rsi
    1b0a:	48 ff ce             	dec    rsi
    1b0d:	48 ff ce             	dec    rsi
    1b10:	48 ff ce             	dec    rsi
    1b13:	48 ff ce             	dec    rsi
    1b16:	48 ff ce             	dec    rsi
    1b19:	fe 06                	inc    BYTE PTR [rsi]
    1b1b:	48 ff ce             	dec    rsi
    1b1e:	8a 06                	mov    al,BYTE PTR [rsi]
    1b20:	84 c0                	test   al,al
    1b22:	0f 84 31 00 00 00    	je     0x1b59
    1b28:	fe 0e                	dec    BYTE PTR [rsi]
    1b2a:	48 ff ce             	dec    rsi
    1b2d:	fe 06                	inc    BYTE PTR [rsi]
    1b2f:	48 ff c6             	inc    rsi
    1b32:	48 ff c6             	inc    rsi
    1b35:	48 ff c6             	inc    rsi
    1b38:	48 ff c6             	inc    rsi
    1b3b:	fe 06                	inc    BYTE PTR [rsi]
    1b3d:	48 ff ce             	dec    rsi
    1b40:	48 ff ce             	dec    rsi
    1b43:	8a 06                	mov    al,BYTE PTR [rsi]
    1b45:	84 c0                	test   al,al
    1b47:	0f 84 07 00 00 00    	je     0x1b54
    1b4d:	fe 0e                	dec    BYTE PTR [rsi]
    1b4f:	e9 ef ff ff ff       	jmp    0x1b43
    1b54:	e9 c5 ff ff ff       	jmp    0x1b1e
    1b59:	48 ff c6             	inc    rsi
    1b5c:	8a 06                	mov    al,BYTE PTR [rsi]
    1b5e:	84 c0                	test   al,al
    1b60:	0f 84 43 00 00 00    	je     0x1ba9
    1b66:	fe 0e                	dec    BYTE PTR [rsi]
    1b68:	48 ff ce             	dec    rsi
    1b6b:	48 ff ce             	dec    rsi
    1b6e:	8a 06                	mov    al,BYTE PTR [rsi]
    1b70:	84 c0                	test   al,al
    1b72:	0f 84 23 00 00 00    	je     0x1b9b
    1b78:	fe 0e                	dec    BYTE PTR [rsi]
    1b7a:	48 ff c6             	inc    rsi
    1b7d:	fe 06                	inc    BYTE PTR [rsi]
    1b7f:	48 ff c6             	inc    rsi
    1b82:	48 ff c6             	inc    rsi
    1b85:	48 ff c6             	inc    rsi
    1b88:	fe 0e                	dec    BYTE PTR [rsi]
    1b8a:	48 ff ce             	dec    rsi
    1b8d:	48 ff ce             	dec    rsi
    1b90:	48 ff ce             	dec    rsi
    1b93:	48 ff ce             	dec    rsi
    1b96:	e9 d3 ff ff ff       	jmp    0x1b6e
    1b9b:	48 ff c6             	inc    rsi
    1b9e:	48 ff c6             	inc    rsi
    1ba1:	48 ff c6             	inc    rsi
    1ba4:	e9 b3 ff ff ff       	jmp    0x1b5c
    1ba9:	48 ff c6             	inc    rsi
    1bac:	48 ff c6             	inc    rsi
    1baf:	48 ff c6             	inc    rsi
    1bb2:	48 ff c6             	inc    rsi
    1bb5:	48 ff c6             	inc    rsi
    1bb8:	48 ff c6             	inc    rsi
    1bbb:	48 ff c6             	inc    rsi
    1bbe:	48 ff c6             	inc    rsi
    1bc1:	48 ff c6             	inc    rsi
    1bc4:	48 ff c6             	inc    rsi
    1bc7:	48 ff c6             	inc    rsi
    1bca:	48 ff c6             	inc    rsi
    1bcd:	48 ff c6             	inc    rsi
    1bd0:	8a 06                	mov    al,BYTE PTR [rsi]
    1bd2:	84 c0                	test   al,al
    1bd4:	0f 84 53 00 00 00    	je     0x1c2d
    1bda:	48 ff c6             	inc    rsi
    1bdd:	48 ff c6             	inc    rsi
    1be0:	8a 06                	mov    al,BYTE PTR [rsi]
    1be2:	84 c0                	test   al,al
    1be4:	0f 84 07 00 00 00    	je     0x1bf1
    1bea:	fe 0e                	dec    BYTE PTR [rsi]
    1bec:	e9 ef ff ff ff       	jmp    0x1be0
    1bf1:	48 ff c6             	inc    rsi
    1bf4:	8a 06                	mov    al,BYTE PTR [rsi]
    1bf6:	84 c0                	test   al,al
    1bf8:	0f 84 07 00 00 00    	je     0x1c05
    1bfe:	fe 0e                	dec    BYTE PTR [rsi]
    1c00:	e9 ef ff ff ff       	jmp    0x1bf4
    1c05:	48 ff c6             	inc    rsi
    1c08:	8a 06                	mov    al,BYTE PTR [rsi]
    1c0a:	84 c0                	test   al,al
    1c0c:	0f 84 07 00 00 00    	je     0x1c19
    1c12:	fe 0e                	dec    BYTE PTR [rsi]
    1c14:	e9 ef ff ff ff       	jmp    0x1c08
    1c19:	48 ff c6             	inc    rsi
    1c1c:	48 ff c6             	inc    rsi
    1c1f:	48 ff c6             	inc    rsi
    1c22:	48 ff c6             	inc    rsi
    1c25:	48 ff c6             	inc    rsi
    1c28:	e9 a3 ff ff ff       	jmp    0x1bd0
    1c2d:	48 ff ce             	dec    rsi
    1c30:	48 ff ce             	dec    rsi
    1c33:	48 ff ce             	dec    rsi
    1c36:	48 ff ce             	dec    rsi
    1c39:	48 ff ce             	dec    rsi
    1c3c:	48 ff ce             	dec    rsi
    1c3f:	48 ff ce             	dec    rsi
    1c42:	48 ff ce             	dec    rsi
    1c45:	48 ff ce             	dec    rsi
    1c48:	8a 06                	mov    al,BYTE PTR [rsi]
    1c4a:	84 c0                	test   al,al
    1c4c:	0f 84 20 00 00 00    	je     0x1c72
    1c52:	48 ff ce             	dec    rsi
    1c55:	48 ff ce             	dec    rsi
    1c58:	48 ff ce             	dec    rsi
    1c5b:	48 ff ce             	dec    rsi
    1c5e:	48 ff ce             	dec    rsi
    1c61:	48 ff ce             	dec    rsi
    1c64:	48 ff ce             	dec    rsi
    1c67:	48 ff ce             	dec    rsi
    1c6a:	48 ff ce             	dec    rsi
    1c6d:	e9 d6 ff ff ff       	jmp    0x1c48
    1c72:	48 ff c6             	inc    rsi
    1c75:	48 ff c6             	inc    rsi
    1c78:	48 ff c6             	inc    rsi
    1c7b:	8a 06                	mov    al,BYTE PTR [rsi]
    1c7d:	84 c0                	test   al,al
    1c7f:	0f 84 07 00 00 00    	je     0x1c8c
    1c85:	fe 0e                	dec    BYTE PTR [rsi]
    1c87:	e9 ef ff ff ff       	jmp    0x1c7b
    1c8c:	48 ff c6             	inc    rsi
    1c8f:	48 ff c6             	inc    rsi
    1c92:	48 ff c6             	inc    rsi
    1c95:	48 ff c6             	inc    rsi
    1c98:	48 ff c6             	inc    rsi
    1c9b:	48 ff c6             	inc    rsi
    1c9e:	8a 06                	mov    al,BYTE PTR [rsi]
    1ca0:	84 c0                	test   al,al
    1ca2:	0f 84 90 00 00 00    	je     0x1d38
    1ca8:	48 ff c6             	inc    rsi
    1cab:	48 ff c6             	inc    rsi
    1cae:	48 ff c6             	inc    rsi
    1cb1:	48 ff c6             	inc    rsi
    1cb4:	48 ff c6             	inc    rsi
    1cb7:	8a 06                	mov    al,BYTE PTR [rsi]
    1cb9:	84 c0                	test   al,al
    1cbb:	0f 84 21 00 00 00    	je     0x1ce2
    1cc1:	fe 0e                	dec    BYTE PTR [rsi]
    1cc3:	48 ff ce             	dec    rsi
    1cc6:	48 ff ce             	dec    rsi
    1cc9:	48 ff ce             	dec    rsi
    1ccc:	48 ff ce             	dec    rsi
    1ccf:	fe 06                	inc    BYTE PTR [rsi]
    1cd1:	48 ff c6             	inc    rsi
    1cd4:	48 ff c6             	inc    rsi
    1cd7:	48 ff c6             	inc    rsi
    1cda:	48 ff c6             	inc    rsi
    1cdd:	e9 d5 ff ff ff       	jmp    0x1cb7
    1ce2:	48 ff ce             	dec    rsi
    1ce5:	48 ff ce             	dec    rsi
    1ce8:	48 ff ce             	dec    rsi
    1ceb:	48 ff ce             	dec    rsi
    1cee:	8a 06                	mov    al,BYTE PTR [rsi]
    1cf0:	84 c0                	test   al,al
    1cf2:	0f 84 23 00 00 00    	je     0x1d1b
    1cf8:	fe 0e                	dec    BYTE PTR [rsi]
    1cfa:	48 ff c6             	inc    rsi
    1cfd:	48 ff c6             	inc    rsi
    1d00:	48 ff c6             	inc    rsi
    1d03:	48 ff c6             	inc    rsi
    1d06:	fe 06                	inc    BYTE PTR [rsi]
    1d08:	48 ff ce             	dec    rsi
    1d0b:	48 ff ce             	dec    rsi
    1d0e:	48 ff ce             	dec    rsi
    1d11:	fe 06                	inc    BYTE PTR [rsi]
    1d13:	48 ff ce             	dec    rsi
    1d16:	e9 d3 ff ff ff       	jmp    0x1cee
    1d1b:	48 ff c6             	inc    rsi
    1d1e:	48 ff c6             	inc    rsi
    1d21:	48 ff c6             	inc    rsi
    1d24:	48 ff c6             	inc    rsi
    1d27:	48 ff c6             	inc    rsi
    1d2a:	48 ff c6             	inc    rsi
    1d2d:	48 ff c6             	inc    rsi
    1d30:	48 ff c6             	inc    rsi
    1d33:	e9 66 ff ff ff       	jmp    0x1c9e
    1d38:	48 ff ce             	dec    rsi
    1d3b:	48 ff ce             	dec    rsi
    1d3e:	48 ff ce             	dec    rsi
    1d41:	48 ff ce             	dec    rsi
    1d44:	48 ff ce             	dec    rsi
    1d47:	48 ff ce             	dec    rsi
    1d4a:	48 ff ce             	dec    rsi
    1d4d:	48 ff ce             	dec    rsi
    1d50:	48 ff ce             	dec    rsi
    1d53:	8a 06                	mov    al,BYTE PTR [rsi]
    1d55:	84 c0                	test   al,al
    1d57:	0f 84 20 00 00 00    	je     0x1d7d
    1d5d:	48 ff ce             	dec    rsi
    1d60:	48 ff ce             	dec    rsi
    1d63:	48 ff ce             	dec    rsi
    1d66:	48 ff ce             	dec    rsi
    1d69:	48 ff ce             	dec    rsi
    1d6c:	48 ff ce             	dec    rsi
    1d6f:	48 ff ce             	dec    rsi
    1d72:	48 ff ce             	dec    rsi
    1d75:	48 ff ce             	dec    rsi
    1d78:	e9 d6 ff ff ff       	jmp    0x1d53
    1d7d:	48 ff c6             	inc    rsi
    1d80:	48 ff c6             	inc    rsi
    1d83:	48 ff c6             	inc    rsi
    1d86:	48 ff c6             	inc    rsi
    1d89:	48 ff c6             	inc    rsi
    1d8c:	48 ff c6             	inc    rsi
    1d8f:	48 ff c6             	inc    rsi
    1d92:	48 ff c6             	inc    rsi
    1d95:	48 ff c6             	inc    rsi
    1d98:	8a 06                	mov    al,BYTE PTR [rsi]
    1d9a:	84 c0                	test   al,al
    1d9c:	0f 84 69 00 00 00    	je     0x1e0b
    1da2:	48 ff c6             	inc    rsi
    1da5:	48 ff c6             	inc    rsi
    1da8:	8a 06                	mov    al,BYTE PTR [rsi]
    1daa:	84 c0                	test   al,al
    1dac:	0f 84 3f 00 00 00    	je     0x1df1
    1db2:	fe 0e                	dec    BYTE PTR [rsi]
    1db4:	48 ff ce             	dec    rsi
    1db7:	48 ff ce             	dec    rsi
    1dba:	48 ff ce             	dec    rsi
    1dbd:	48 ff ce             	dec    rsi
    1dc0:	48 ff ce             	dec    rsi
    1dc3:	48 ff ce             	dec    rsi
    1dc6:	48 ff ce             	dec    rsi
    1dc9:	48 ff ce             	dec    rsi
    1dcc:	48 ff ce             	dec    rsi
    1dcf:	fe 06                	inc    BYTE PTR [rsi]
    1dd1:	48 ff c6             	inc    rsi
    1dd4:	48 ff c6             	inc    rsi
    1dd7:	48 ff c6             	inc    rsi
    1dda:	48 ff c6             	inc    rsi
    1ddd:	48 ff c6             	inc    rsi
    1de0:	48 ff c6             	inc    rsi
    1de3:	48 ff c6             	inc    rsi
    1de6:	48 ff c6             	inc    rsi
    1de9:	48 ff c6             	inc    rsi
    1dec:	e9 b7 ff ff ff       	jmp    0x1da8
    1df1:	48 ff c6             	inc    rsi
    1df4:	48 ff c6             	inc    rsi
    1df7:	48 ff c6             	inc    rsi
    1dfa:	48 ff c6             	inc    rsi
    1dfd:	48 ff c6             	inc    rsi
    1e00:	48 ff c6             	inc    rsi
    1e03:	48 ff c6             	inc    rsi
    1e06:	e9 8d ff ff ff       	jmp    0x1d98
    1e0b:	48 ff ce             	dec    rsi
    1e0e:	48 ff ce             	dec    rsi
    1e11:	48 ff ce             	dec    rsi
    1e14:	48 ff ce             	dec    rsi
    1e17:	48 ff ce             	dec    rsi
    1e1a:	48 ff ce             	dec    rsi
    1e1d:	48 ff ce             	dec    rsi
    1e20:	48 ff ce             	dec    rsi
    1e23:	48 ff ce             	dec    rsi
    1e26:	8a 06                	mov    al,BYTE PTR [rsi]
    1e28:	84 c0                	test   al,al
    1e2a:	0f 84 20 00 00 00    	je     0x1e50
    1e30:	48 ff ce             	dec    rsi
    1e33:	48 ff ce             	dec    rsi
    1e36:	48 ff ce             	dec    rsi
    1e39:	48 ff ce             	dec    rsi
    1e3c:	48 ff ce             	dec    rsi
    1e3f:	48 ff ce             	dec    rsi
    1e42:	48 ff ce             	dec    rsi
    1e45:	48 ff ce             	dec    rsi
    1e48:	48 ff ce             	dec    rsi
    1e4b:	e9 d6 ff ff ff       	jmp    0x1e26
    1e50:	48 ff c6             	inc    rsi
    1e53:	48 ff c6             	inc    rsi
    1e56:	48 ff c6             	inc    rsi
    1e59:	48 ff c6             	inc    rsi
    1e5c:	48 ff c6             	inc    rsi
    1e5f:	48 ff c6             	inc    rsi
    1e62:	48 ff c6             	inc    rsi
    1e65:	48 ff c6             	inc    rsi
    1e68:	48 ff c6             	inc    rsi
    1e6b:	fe 06                	inc    BYTE PTR [rsi]
    1e6d:	fe 06                	inc    BYTE PTR [rsi]
    1e6f:	fe 06                	inc    BYTE PTR [rsi]
    1e71:	fe 06                	inc    BYTE PTR [rsi]
    1e73:	fe 06                	inc    BYTE PTR [rsi]
    1e75:	fe 06                	inc    BYTE PTR [rsi]
    1e77:	fe 06                	inc    BYTE PTR [rsi]
    1e79:	fe 06                	inc    BYTE PTR [rsi]
    1e7b:	fe 06                	inc    BYTE PTR [rsi]
    1e7d:	fe 06                	inc    BYTE PTR [rsi]
    1e7f:	fe 06                	inc    BYTE PTR [rsi]
    1e81:	fe 06                	inc    BYTE PTR [rsi]
    1e83:	fe 06                	inc    BYTE PTR [rsi]
    1e85:	fe 06                	inc    BYTE PTR [rsi]
    1e87:	fe 06                	inc    BYTE PTR [rsi]
    1e89:	8a 06                	mov    al,BYTE PTR [rsi]
    1e8b:	84 c0                	test   al,al
    1e8d:	0f 84 47 01 00 00    	je     0x1fda
    1e93:	8a 06                	mov    al,BYTE PTR [rsi]
    1e95:	84 c0                	test   al,al
    1e97:	0f 84 20 00 00 00    	je     0x1ebd
    1e9d:	48 ff c6             	inc    rsi
    1ea0:	48 ff c6             	inc    rsi
    1ea3:	48 ff c6             	inc    rsi
    1ea6:	48 ff c6             	inc    rsi
    1ea9:	48 ff c6             	inc    rsi
    1eac:	48 ff c6             	inc    rsi
    1eaf:	48 ff c6             	inc    rsi
    1eb2:	48 ff c6             	inc    rsi
    1eb5:	48 ff c6             	inc    rsi
    1eb8:	e9 d6 ff ff ff       	jmp    0x1e93
    1ebd:	fe 06                	inc    BYTE PTR [rsi]
    1ebf:	48 ff c6             	inc    rsi
    1ec2:	8a 06                	mov    al,BYTE PTR [rsi]
    1ec4:	84 c0                	test   al,al
    1ec6:	0f 84 07 00 00 00    	je     0x1ed3
    1ecc:	fe 0e                	dec    BYTE PTR [rsi]
    1ece:	e9 ef ff ff ff       	jmp    0x1ec2
    1ed3:	48 ff c6             	inc    rsi
    1ed6:	8a 06                	mov    al,BYTE PTR [rsi]
    1ed8:	84 c0                	test   al,al
    1eda:	0f 84 07 00 00 00    	je     0x1ee7
    1ee0:	fe 0e                	dec    BYTE PTR [rsi]
    1ee2:	e9 ef ff ff ff       	jmp    0x1ed6
    1ee7:	48 ff c6             	inc    rsi
    1eea:	8a 06                	mov    al,BYTE PTR [rsi]
    1eec:	84 c0                	test   al,al
    1eee:	0f 84 07 00 00 00    	je     0x1efb
    1ef4:	fe 0e                	dec    BYTE PTR [rsi]
    1ef6:	e9 ef ff ff ff       	jmp    0x1eea
    1efb:	48 ff c6             	inc    rsi
    1efe:	8a 06                	mov    al,BYTE PTR [rsi]
    1f00:	84 c0                	test   al,al
    1f02:	0f 84 07 00 00 00    	je     0x1f0f
    1f08:	fe 0e                	dec    BYTE PTR [rsi]
    1f0a:	e9 ef ff ff ff       	jmp    0x1efe
    1f0f:	48 ff c6             	inc    rsi
    1f12:	8a 06                	mov    al,BYTE PTR [rsi]
    1f14:	84 c0                	test   al,al
    1f16:	0f 84 07 00 00 00    	je     0x1f23
    1f1c:	fe 0e                	dec    BYTE PTR [rsi]
    1f1e:	e9 ef ff ff ff       	jmp    0x1f12
    1f23:	48 ff c6             	inc    rsi
    1f26:	8a 06                	mov    al,BYTE PTR [rsi]
    1f28:	84 c0                	test   al,al
    1f2a:	0f 84 07 00 00 00    	je     0x1f37
    1f30:	fe 0e                	dec    BYTE PTR [rsi]
    1f32:	e9 ef ff ff ff       	jmp    0x1f26
    1f37:	48 ff c6             	inc    rsi
    1f3a:	8a 06                	mov    al,BYTE PTR [rsi]
    1f3c:	84 c0                	test   al,al
    1f3e:	0f 84 07 00 00 00    	je     0x1f4b
    1f44:	fe 0e                	dec    BYTE PTR [rsi]
    1f46:	e9 ef ff ff ff       	jmp    0x1f3a
    1f4b:	48 ff c6             	inc    rsi
    1f4e:	8a 06                	mov    al,BYTE PTR [rsi]
    1f50:	84 c0                	test   al,al
    1f52:	0f 84 07 00 00 00    	je     0x1f5f
    1f58:	fe 0e                	dec    BYTE PTR [rsi]
    1f5a:	e9 ef ff ff ff       	jmp    0x1f4e
    1f5f:	48 ff c6             	inc    rsi
    1f62:	8a 06                	mov    al,BYTE PTR [rsi]
    1f64:	84 c0                	test   al,al
    1f66:	0f 84 07 00 00 00    	je     0x1f73
    1f6c:	fe 0e                	dec    BYTE PTR [rsi]
    1f6e:	e9 ef ff ff ff       	jmp    0x1f62
    1f73:	48 ff ce             	dec    rsi
    1f76:	48 ff ce             	dec    rsi
    1f79:	48 ff ce             	dec    rsi
    1f7c:	48 ff ce             	dec    rsi
    1f7f:	48 ff ce             	dec    rsi
    1f82:	48 ff ce             	dec    rsi
    1f85:	48 ff ce             	dec    rsi
    1f88:	48 ff ce             	dec    rsi
    1f8b:	48 ff ce             	dec    rsi
    1f8e:	8a 06                	mov    al,BYTE PTR [rsi]
    1f90:	84 c0                	test   al,al
    1f92:	0f 84 20 00 00 00    	je     0x1fb8
    1f98:	48 ff ce             	dec    rsi
    1f9b:	48 ff ce             	dec    rsi
    1f9e:	48 ff ce             	dec    rsi
    1fa1:	48 ff ce             	dec    rsi
    1fa4:	48 ff ce             	dec    rsi
    1fa7:	48 ff ce             	dec    rsi
    1faa:	48 ff ce             	dec    rsi
    1fad:	48 ff ce             	dec    rsi
    1fb0:	48 ff ce             	dec    rsi
    1fb3:	e9 d6 ff ff ff       	jmp    0x1f8e
    1fb8:	48 ff c6             	inc    rsi
    1fbb:	48 ff c6             	inc    rsi
    1fbe:	48 ff c6             	inc    rsi
    1fc1:	48 ff c6             	inc    rsi
    1fc4:	48 ff c6             	inc    rsi
    1fc7:	48 ff c6             	inc    rsi
    1fca:	48 ff c6             	inc    rsi
    1fcd:	48 ff c6             	inc    rsi
    1fd0:	48 ff c6             	inc    rsi
    1fd3:	fe 0e                	dec    BYTE PTR [rsi]
    1fd5:	e9 af fe ff ff       	jmp    0x1e89
    1fda:	fe 06                	inc    BYTE PTR [rsi]
    1fdc:	8a 06                	mov    al,BYTE PTR [rsi]
    1fde:	84 c0                	test   al,al
    1fe0:	0f 84 22 00 00 00    	je     0x2008
    1fe6:	48 ff c6             	inc    rsi
    1fe9:	fe 06                	inc    BYTE PTR [rsi]
    1feb:	48 ff c6             	inc    rsi
    1fee:	48 ff c6             	inc    rsi
    1ff1:	48 ff c6             	inc    rsi
    1ff4:	48 ff c6             	inc    rsi
    1ff7:	48 ff c6             	inc    rsi
    1ffa:	48 ff c6             	inc    rsi
    1ffd:	48 ff c6             	inc    rsi
    2000:	48 ff c6             	inc    rsi
    2003:	e9 d4 ff ff ff       	jmp    0x1fdc
    2008:	48 ff ce             	dec    rsi
    200b:	48 ff ce             	dec    rsi
    200e:	48 ff ce             	dec    rsi
    2011:	48 ff ce             	dec    rsi
    2014:	48 ff ce             	dec    rsi
    2017:	48 ff ce             	dec    rsi
    201a:	48 ff ce             	dec    rsi
    201d:	48 ff ce             	dec    rsi
    2020:	48 ff ce             	dec    rsi
    2023:	8a 06                	mov    al,BYTE PTR [rsi]
    2025:	84 c0                	test   al,al
    2027:	0f 84 20 00 00 00    	je     0x204d
    202d:	48 ff ce             	dec    rsi
    2030:	48 ff ce             	dec    rsi
    2033:	48 ff ce             	dec    rsi
    2036:	48 ff ce             	dec    rsi
    2039:	48 ff ce             	dec    rsi
    203c:	48 ff ce             	dec    rsi
    203f:	48 ff ce             	dec    rsi
    2042:	48 ff ce             	dec    rsi
    2045:	48 ff ce             	dec    rsi
    2048:	e9 d6 ff ff ff       	jmp    0x2023
    204d:	48 ff c6             	inc    rsi
    2050:	48 ff c6             	inc    rsi
    2053:	48 ff c6             	inc    rsi
    2056:	48 ff c6             	inc    rsi
    2059:	48 ff c6             	inc    rsi
    205c:	48 ff c6             	inc    rsi
    205f:	48 ff c6             	inc    rsi
    2062:	48 ff c6             	inc    rsi
    2065:	48 ff c6             	inc    rsi
    2068:	8a 06                	mov    al,BYTE PTR [rsi]
    206a:	84 c0                	test   al,al
    206c:	0f 84 91 02 00 00    	je     0x2303
    2072:	48 ff c6             	inc    rsi
    2075:	fe 0e                	dec    BYTE PTR [rsi]
    2077:	48 ff c6             	inc    rsi
    207a:	48 ff c6             	inc    rsi
    207d:	48 ff c6             	inc    rsi
    2080:	48 ff c6             	inc    rsi
    2083:	48 ff c6             	inc    rsi
    2086:	8a 06                	mov    al,BYTE PTR [rsi]
    2088:	84 c0                	test   al,al
    208a:	0f 84 27 00 00 00    	je     0x20b7
    2090:	fe 0e                	dec    BYTE PTR [rsi]
    2092:	48 ff ce             	dec    rsi
    2095:	48 ff ce             	dec    rsi
    2098:	48 ff ce             	dec    rsi
    209b:	48 ff ce             	dec    rsi
    209e:	48 ff ce             	dec    rsi
    20a1:	fe 06                	inc    BYTE PTR [rsi]
    20a3:	48 ff c6             	inc    rsi
    20a6:	48 ff c6             	inc    rsi
    20a9:	48 ff c6             	inc    rsi
    20ac:	48 ff c6             	inc    rsi
    20af:	48 ff c6             	inc    rsi
    20b2:	e9 cf ff ff ff       	jmp    0x2086
    20b7:	48 ff ce             	dec    rsi
    20ba:	48 ff ce             	dec    rsi
    20bd:	48 ff ce             	dec    rsi
    20c0:	48 ff ce             	dec    rsi
    20c3:	48 ff ce             	dec    rsi
    20c6:	8a 06                	mov    al,BYTE PTR [rsi]
    20c8:	84 c0                	test   al,al
    20ca:	0f 84 ec 00 00 00    	je     0x21bc
    20d0:	fe 0e                	dec    BYTE PTR [rsi]
    20d2:	48 ff c6             	inc    rsi
    20d5:	48 ff c6             	inc    rsi
    20d8:	48 ff c6             	inc    rsi
    20db:	48 ff c6             	inc    rsi
    20de:	48 ff c6             	inc    rsi
    20e1:	fe 06                	inc    BYTE PTR [rsi]
    20e3:	48 ff ce             	dec    rsi
    20e6:	48 ff ce             	dec    rsi
    20e9:	48 ff ce             	dec    rsi
    20ec:	48 ff ce             	dec    rsi
    20ef:	48 ff ce             	dec    rsi
    20f2:	48 ff ce             	dec    rsi
    20f5:	8a 06                	mov    al,BYTE PTR [rsi]
    20f7:	84 c0                	test   al,al
    20f9:	0f 84 76 00 00 00    	je     0x2175
    20ff:	fe 0e                	dec    BYTE PTR [rsi]
    2101:	48 ff c6             	inc    rsi
    2104:	48 ff c6             	inc    rsi
    2107:	8a 06                	mov    al,BYTE PTR [rsi]
    2109:	84 c0                	test   al,al
    210b:	0f 84 15 00 00 00    	je     0x2126
    2111:	fe 0e                	dec    BYTE PTR [rsi]
    2113:	48 ff ce             	dec    rsi
    2116:	48 ff ce             	dec    rsi
    2119:	fe 06                	inc    BYTE PTR [rsi]
    211b:	48 ff c6             	inc    rsi
    211e:	48 ff c6             	inc    rsi
    2121:	e9 e1 ff ff ff       	jmp    0x2107
    2126:	48 ff ce             	dec    rsi
    2129:	48 ff ce             	dec    rsi
    212c:	8a 06                	mov    al,BYTE PTR [rsi]
    212e:	84 c0                	test   al,al
    2130:	0f 84 1d 00 00 00    	je     0x2153
    2136:	fe 0e                	dec    BYTE PTR [rsi]
    2138:	48 ff c6             	inc    rsi
    213b:	48 ff c6             	inc    rsi
    213e:	fe 06                	inc    BYTE PTR [rsi]
    2140:	48 ff c6             	inc    rsi
    2143:	fe 06                	inc    BYTE PTR [rsi]
    2145:	48 ff ce             	dec    rsi
    2148:	48 ff ce             	dec    rsi
    214b:	48 ff ce             	dec    rsi
    214e:	e9 d9 ff ff ff       	jmp    0x212c
    2153:	fe 06                	inc    BYTE PTR [rsi]
    2155:	48 ff c6             	inc    rsi
    2158:	48 ff c6             	inc    rsi
    215b:	48 ff c6             	inc    rsi
    215e:	48 ff c6             	inc    rsi
    2161:	48 ff c6             	inc    rsi
    2164:	48 ff c6             	inc    rsi
    2167:	48 ff c6             	inc    rsi
    216a:	48 ff c6             	inc    rsi
    216d:	48 ff c6             	inc    rsi
    2170:	e9 80 ff ff ff       	jmp    0x20f5
    2175:	48 ff ce             	dec    rsi
    2178:	48 ff ce             	dec    rsi
    217b:	48 ff ce             	dec    rsi
    217e:	48 ff ce             	dec    rsi
    2181:	48 ff ce             	dec    rsi
    2184:	48 ff ce             	dec    rsi
    2187:	48 ff ce             	dec    rsi
    218a:	48 ff ce             	dec    rsi
    218d:	8a 06                	mov    al,BYTE PTR [rsi]
    218f:	84 c0                	test   al,al
    2191:	0f 84 20 00 00 00    	je     0x21b7
    2197:	48 ff ce             	dec    rsi
    219a:	48 ff ce             	dec    rsi
    219d:	48 ff ce             	dec    rsi
    21a0:	48 ff ce             	dec    rsi
    21a3:	48 ff ce             	dec    rsi
    21a6:	48 ff ce             	dec    rsi
    21a9:	48 ff ce             	dec    rsi
    21ac:	48 ff ce             	dec    rsi
    21af:	48 ff ce             	dec    rsi
    21b2:	e9 d6 ff ff ff       	jmp    0x218d
    21b7:	e9 0a ff ff ff       	jmp    0x20c6
    21bc:	48 ff c6             	inc    rsi
    21bf:	48 ff c6             	inc    rsi
    21c2:	48 ff c6             	inc    rsi
    21c5:	48 ff c6             	inc    rsi
    21c8:	48 ff c6             	inc    rsi
    21cb:	48 ff c6             	inc    rsi
    21ce:	48 ff c6             	inc    rsi
    21d1:	48 ff c6             	inc    rsi
    21d4:	48 ff c6             	inc    rsi
    21d7:	8a 06                	mov    al,BYTE PTR [rsi]
    21d9:	84 c0                	test   al,al
    21db:	0f 84 20 00 00 00    	je     0x2201
    21e1:	48 ff c6             	inc    rsi
    21e4:	48 ff c6             	inc    rsi
    21e7:	48 ff c6             	inc    rsi
    21ea:	48 ff c6             	inc    rsi
    21ed:	48 ff c6             	inc    rsi
    21f0:	48 ff c6             	inc    rsi
    21f3:	48 ff c6             	inc    rsi
    21f6:	48 ff c6             	inc    rsi
    21f9:	48 ff c6             	inc    rsi
    21fc:	e9 d6 ff ff ff       	jmp    0x21d7
    2201:	48 ff ce             	dec    rsi
    2204:	48 ff ce             	dec    rsi
    2207:	48 ff ce             	dec    rsi
    220a:	48 ff ce             	dec    rsi
    220d:	48 ff ce             	dec    rsi
    2210:	48 ff ce             	dec    rsi
    2213:	48 ff ce             	dec    rsi
    2216:	48 ff ce             	dec    rsi
    2219:	48 ff ce             	dec    rsi
    221c:	8a 06                	mov    al,BYTE PTR [rsi]
    221e:	84 c0                	test   al,al
    2220:	0f 84 6f 00 00 00    	je     0x2295
    2226:	48 ff c6             	inc    rsi
    2229:	8a 06                	mov    al,BYTE PTR [rsi]
    222b:	84 c0                	test   al,al
    222d:	0f 84 3f 00 00 00    	je     0x2272
    2233:	fe 0e                	dec    BYTE PTR [rsi]
    2235:	48 ff c6             	inc    rsi
    2238:	48 ff c6             	inc    rsi
    223b:	48 ff c6             	inc    rsi
    223e:	48 ff c6             	inc    rsi
    2241:	48 ff c6             	inc    rsi
    2244:	48 ff c6             	inc    rsi
    2247:	48 ff c6             	inc    rsi
    224a:	48 ff c6             	inc    rsi
    224d:	48 ff c6             	inc    rsi
    2250:	fe 06                	inc    BYTE PTR [rsi]
    2252:	48 ff ce             	dec    rsi
    2255:	48 ff ce             	dec    rsi
    2258:	48 ff ce             	dec    rsi
    225b:	48 ff ce             	dec    rsi
    225e:	48 ff ce             	dec    rsi
    2261:	48 ff ce             	dec    rsi
    2264:	48 ff ce             	dec    rsi
    2267:	48 ff ce             	dec    rsi
    226a:	48 ff ce             	dec    rsi
    226d:	e9 b7 ff ff ff       	jmp    0x2229
    2272:	48 ff ce             	dec    rsi
    2275:	48 ff ce             	dec    rsi
    2278:	48 ff ce             	dec    rsi
    227b:	48 ff ce             	dec    rsi
    227e:	48 ff ce             	dec    rsi
    2281:	48 ff ce             	dec    rsi
    2284:	48 ff ce             	dec    rsi
    2287:	48 ff ce             	dec    rsi
    228a:	48 ff ce             	dec    rsi
    228d:	48 ff ce             	dec    rsi
    2290:	e9 87 ff ff ff       	jmp    0x221c
    2295:	48 ff c6             	inc    rsi
    2298:	8a 06                	mov    al,BYTE PTR [rsi]
    229a:	84 c0                	test   al,al
    229c:	0f 84 3f 00 00 00    	je     0x22e1
    22a2:	fe 0e                	dec    BYTE PTR [rsi]
    22a4:	48 ff c6             	inc    rsi
    22a7:	48 ff c6             	inc    rsi
    22aa:	48 ff c6             	inc    rsi
    22ad:	48 ff c6             	inc    rsi
    22b0:	48 ff c6             	inc    rsi
    22b3:	48 ff c6             	inc    rsi
    22b6:	48 ff c6             	inc    rsi
    22b9:	48 ff c6             	inc    rsi
    22bc:	48 ff c6             	inc    rsi
    22bf:	fe 06                	inc    BYTE PTR [rsi]
    22c1:	48 ff ce             	dec    rsi
    22c4:	48 ff ce             	dec    rsi
    22c7:	48 ff ce             	dec    rsi
    22ca:	48 ff ce             	dec    rsi
    22cd:	48 ff ce             	dec    rsi
    22d0:	48 ff ce             	dec    rsi
    22d3:	48 ff ce             	dec    rsi
    22d6:	48 ff ce             	dec    rsi
    22d9:	48 ff ce             	dec    rsi
    22dc:	e9 b7 ff ff ff       	jmp    0x2298
    22e1:	48 ff ce             	dec    rsi
    22e4:	fe 06                	inc    BYTE PTR [rsi]
    22e6:	48 ff c6             	inc    rsi
    22e9:	48 ff c6             	inc    rsi
    22ec:	48 ff c6             	inc    rsi
    22ef:	48 ff c6             	inc    rsi
    22f2:	48 ff c6             	inc    rsi
    22f5:	48 ff c6             	inc    rsi
    22f8:	48 ff c6             	inc    rsi
    22fb:	48 ff c6             	inc    rsi
    22fe:	e9 65 fd ff ff       	jmp    0x2068
    2303:	48 ff ce             	dec    rsi
    2306:	48 ff ce             	dec    rsi
    2309:	48 ff ce             	dec    rsi
    230c:	48 ff ce             	dec    rsi
    230f:	48 ff ce             	dec    rsi
    2312:	48 ff ce             	dec    rsi
    2315:	48 ff ce             	dec    rsi
    2318:	48 ff ce             	dec    rsi
    231b:	48 ff ce             	dec    rsi
    231e:	8a 06                	mov    al,BYTE PTR [rsi]
    2320:	84 c0                	test   al,al
    2322:	0f 84 f5 00 00 00    	je     0x241d
    2328:	48 ff c6             	inc    rsi
    232b:	8a 06                	mov    al,BYTE PTR [rsi]
    232d:	84 c0                	test   al,al
    232f:	0f 84 07 00 00 00    	je     0x233c
    2335:	fe 0e                	dec    BYTE PTR [rsi]
    2337:	e9 ef ff ff ff       	jmp    0x232b
    233c:	48 ff ce             	dec    rsi
    233f:	fe 0e                	dec    BYTE PTR [rsi]
    2341:	48 ff c6             	inc    rsi
    2344:	48 ff c6             	inc    rsi
    2347:	48 ff c6             	inc    rsi
    234a:	8a 06                	mov    al,BYTE PTR [rsi]
    234c:	84 c0                	test   al,al
    234e:	0f 84 7f 00 00 00    	je     0x23d3
    2354:	fe 0e                	dec    BYTE PTR [rsi]
    2356:	48 ff ce             	dec    rsi
    2359:	48 ff ce             	dec    rsi
    235c:	48 ff ce             	dec    rsi
    235f:	fe 06                	inc    BYTE PTR [rsi]
    2361:	48 ff c6             	inc    rsi
    2364:	8a 06                	mov    al,BYTE PTR [rsi]
    2366:	84 c0                	test   al,al
    2368:	0f 84 3b 00 00 00    	je     0x23a9
    236e:	48 ff ce             	dec    rsi
    2371:	fe 0e                	dec    BYTE PTR [rsi]
    2373:	48 ff c6             	inc    rsi
    2376:	fe 0e                	dec    BYTE PTR [rsi]
    2378:	48 ff ce             	dec    rsi
    237b:	48 ff ce             	dec    rsi
    237e:	48 ff ce             	dec    rsi
    2381:	48 ff ce             	dec    rsi
    2384:	48 ff ce             	dec    rsi
    2387:	48 ff ce             	dec    rsi
    238a:	48 ff ce             	dec    rsi
    238d:	fe 06                	inc    BYTE PTR [rsi]
    238f:	48 ff c6             	inc    rsi
    2392:	48 ff c6             	inc    rsi
    2395:	48 ff c6             	inc    rsi
    2398:	48 ff c6             	inc    rsi
    239b:	48 ff c6             	inc    rsi
    239e:	48 ff c6             	inc    rsi
    23a1:	48 ff c6             	inc    rsi
    23a4:	e9 bb ff ff ff       	jmp    0x2364
    23a9:	48 ff ce             	dec    rsi
    23ac:	8a 06                	mov    al,BYTE PTR [rsi]
    23ae:	84 c0                	test   al,al
    23b0:	0f 84 0f 00 00 00    	je     0x23c5
    23b6:	fe 0e                	dec    BYTE PTR [rsi]
    23b8:	48 ff c6             	inc    rsi
    23bb:	fe 06                	inc    BYTE PTR [rsi]
    23bd:	48 ff ce             	dec    rsi
    23c0:	e9 e7 ff ff ff       	jmp    0x23ac
    23c5:	48 ff c6             	inc    rsi
    23c8:	48 ff c6             	inc    rsi
    23cb:	48 ff c6             	inc    rsi
    23ce:	e9 77 ff ff ff       	jmp    0x234a
    23d3:	48 ff ce             	dec    rsi
    23d6:	48 ff ce             	dec    rsi
    23d9:	8a 06                	mov    al,BYTE PTR [rsi]
    23db:	84 c0                	test   al,al
    23dd:	0f 84 15 00 00 00    	je     0x23f8
    23e3:	fe 0e                	dec    BYTE PTR [rsi]
    23e5:	48 ff c6             	inc    rsi
    23e8:	48 ff c6             	inc    rsi
    23eb:	fe 06                	inc    BYTE PTR [rsi]
    23ed:	48 ff ce             	dec    rsi
    23f0:	48 ff ce             	dec    rsi
    23f3:	e9 e1 ff ff ff       	jmp    0x23d9
    23f8:	48 ff ce             	dec    rsi
    23fb:	fe 06                	inc    BYTE PTR [rsi]
    23fd:	48 ff ce             	dec    rsi
    2400:	48 ff ce             	dec    rsi
    2403:	48 ff ce             	dec    rsi
    2406:	48 ff ce             	dec    rsi
    2409:	48 ff ce             	dec    rsi
    240c:	48 ff ce             	dec    rsi
    240f:	48 ff ce             	dec    rsi
    2412:	48 ff ce             	dec    rsi
    2415:	48 ff ce             	dec    rsi
    2418:	e9 01 ff ff ff       	jmp    0x231e
    241d:	48 ff c6             	inc    rsi
    2420:	48 ff c6             	inc    rsi
    2423:	48 ff c6             	inc    rsi
    2426:	48 ff c6             	inc    rsi
    2429:	48 ff c6             	inc    rsi
    242c:	48 ff c6             	inc    rsi
    242f:	48 ff c6             	inc    rsi
    2432:	48 ff c6             	inc    rsi
    2435:	48 ff c6             	inc    rsi
    2438:	8a 06                	mov    al,BYTE PTR [rsi]
    243a:	84 c0                	test   al,al
    243c:	0f 84 a2 00 00 00    	je     0x24e4
    2442:	48 ff c6             	inc    rsi
    2445:	48 ff c6             	inc    rsi
    2448:	48 ff c6             	inc    rsi
    244b:	48 ff c6             	inc    rsi
    244e:	48 ff c6             	inc    rsi
    2451:	48 ff c6             	inc    rsi
    2454:	8a 06                	mov    al,BYTE PTR [rsi]
    2456:	84 c0                	test   al,al
    2458:	0f 84 27 00 00 00    	je     0x2485
    245e:	fe 0e                	dec    BYTE PTR [rsi]
    2460:	48 ff ce             	dec    rsi
    2463:	48 ff ce             	dec    rsi
    2466:	48 ff ce             	dec    rsi
    2469:	48 ff ce             	dec    rsi
    246c:	48 ff ce             	dec    rsi
    246f:	fe 06                	inc    BYTE PTR [rsi]
    2471:	48 ff c6             	inc    rsi
    2474:	48 ff c6             	inc    rsi
    2477:	48 ff c6             	inc    rsi
    247a:	48 ff c6             	inc    rsi
    247d:	48 ff c6             	inc    rsi
    2480:	e9 cf ff ff ff       	jmp    0x2454
    2485:	48 ff ce             	dec    rsi
    2488:	48 ff ce             	dec    rsi
    248b:	48 ff ce             	dec    rsi
    248e:	48 ff ce             	dec    rsi
    2491:	48 ff ce             	dec    rsi
    2494:	8a 06                	mov    al,BYTE PTR [rsi]
    2496:	84 c0                	test   al,al
    2498:	0f 84 29 00 00 00    	je     0x24c7
    249e:	fe 0e                	dec    BYTE PTR [rsi]
    24a0:	48 ff c6             	inc    rsi
    24a3:	48 ff c6             	inc    rsi
    24a6:	48 ff c6             	inc    rsi
    24a9:	48 ff c6             	inc    rsi
    24ac:	48 ff c6             	inc    rsi
    24af:	fe 06                	inc    BYTE PTR [rsi]
    24b1:	48 ff ce             	dec    rsi
    24b4:	48 ff ce             	dec    rsi
    24b7:	48 ff ce             	dec    rsi
    24ba:	48 ff ce             	dec    rsi
    24bd:	fe 06                	inc    BYTE PTR [rsi]
    24bf:	48 ff ce             	dec    rsi
    24c2:	e9 cd ff ff ff       	jmp    0x2494
    24c7:	48 ff c6             	inc    rsi
    24ca:	48 ff c6             	inc    rsi
    24cd:	48 ff c6             	inc    rsi
    24d0:	48 ff c6             	inc    rsi
    24d3:	48 ff c6             	inc    rsi
    24d6:	48 ff c6             	inc    rsi
    24d9:	48 ff c6             	inc    rsi
    24dc:	48 ff c6             	inc    rsi
    24df:	e9 54 ff ff ff       	jmp    0x2438
    24e4:	48 ff ce             	dec    rsi
    24e7:	48 ff ce             	dec    rsi
    24ea:	48 ff ce             	dec    rsi
    24ed:	48 ff ce             	dec    rsi
    24f0:	48 ff ce             	dec    rsi
    24f3:	48 ff ce             	dec    rsi
    24f6:	48 ff ce             	dec    rsi
    24f9:	48 ff ce             	dec    rsi
    24fc:	48 ff ce             	dec    rsi
    24ff:	8a 06                	mov    al,BYTE PTR [rsi]
    2501:	84 c0                	test   al,al
    2503:	0f 84 20 00 00 00    	je     0x2529
    2509:	48 ff ce             	dec    rsi
    250c:	48 ff ce             	dec    rsi
    250f:	48 ff ce             	dec    rsi
    2512:	48 ff ce             	dec    rsi
    2515:	48 ff ce             	dec    rsi
    2518:	48 ff ce             	dec    rsi
    251b:	48 ff ce             	dec    rsi
    251e:	48 ff ce             	dec    rsi
    2521:	48 ff ce             	dec    rsi
    2524:	e9 d6 ff ff ff       	jmp    0x24ff
    2529:	48 ff c6             	inc    rsi
    252c:	48 ff c6             	inc    rsi
    252f:	48 ff c6             	inc    rsi
    2532:	48 ff c6             	inc    rsi
    2535:	48 ff c6             	inc    rsi
    2538:	48 ff c6             	inc    rsi
    253b:	48 ff c6             	inc    rsi
    253e:	48 ff c6             	inc    rsi
    2541:	48 ff c6             	inc    rsi
    2544:	8a 06                	mov    al,BYTE PTR [rsi]
    2546:	84 c0                	test   al,al
    2548:	0f 84 22 00 00 00    	je     0x2570
    254e:	48 ff c6             	inc    rsi
    2551:	fe 06                	inc    BYTE PTR [rsi]
    2553:	48 ff c6             	inc    rsi
    2556:	48 ff c6             	inc    rsi
    2559:	48 ff c6             	inc    rsi
    255c:	48 ff c6             	inc    rsi
    255f:	48 ff c6             	inc    rsi
    2562:	48 ff c6             	inc    rsi
    2565:	48 ff c6             	inc    rsi
    2568:	48 ff c6             	inc    rsi
    256b:	e9 d4 ff ff ff       	jmp    0x2544
    2570:	48 ff ce             	dec    rsi
    2573:	48 ff ce             	dec    rsi
    2576:	48 ff ce             	dec    rsi
    2579:	48 ff ce             	dec    rsi
    257c:	48 ff ce             	dec    rsi
    257f:	48 ff ce             	dec    rsi
    2582:	48 ff ce             	dec    rsi
    2585:	48 ff ce             	dec    rsi
    2588:	48 ff ce             	dec    rsi
    258b:	8a 06                	mov    al,BYTE PTR [rsi]
    258d:	84 c0                	test   al,al
    258f:	0f 84 20 00 00 00    	je     0x25b5
    2595:	48 ff ce             	dec    rsi
    2598:	48 ff ce             	dec    rsi
    259b:	48 ff ce             	dec    rsi
    259e:	48 ff ce             	dec    rsi
    25a1:	48 ff ce             	dec    rsi
    25a4:	48 ff ce             	dec    rsi
    25a7:	48 ff ce             	dec    rsi
    25aa:	48 ff ce             	dec    rsi
    25ad:	48 ff ce             	dec    rsi
    25b0:	e9 d6 ff ff ff       	jmp    0x258b
    25b5:	48 ff c6             	inc    rsi
    25b8:	48 ff c6             	inc    rsi
    25bb:	48 ff c6             	inc    rsi
    25be:	48 ff c6             	inc    rsi
    25c1:	48 ff c6             	inc    rsi
    25c4:	48 ff c6             	inc    rsi
    25c7:	48 ff c6             	inc    rsi
    25ca:	48 ff c6             	inc    rsi
    25cd:	48 ff c6             	inc    rsi
    25d0:	8a 06                	mov    al,BYTE PTR [rsi]
    25d2:	84 c0                	test   al,al
    25d4:	0f 84 97 02 00 00    	je     0x2871
    25da:	48 ff c6             	inc    rsi
    25dd:	fe 0e                	dec    BYTE PTR [rsi]
    25df:	48 ff c6             	inc    rsi
    25e2:	48 ff c6             	inc    rsi
    25e5:	48 ff c6             	inc    rsi
    25e8:	48 ff c6             	inc    rsi
    25eb:	48 ff c6             	inc    rsi
    25ee:	8a 06                	mov    al,BYTE PTR [rsi]
    25f0:	84 c0                	test   al,al
    25f2:	0f 84 27 00 00 00    	je     0x261f
    25f8:	fe 0e                	dec    BYTE PTR [rsi]
    25fa:	48 ff ce             	dec    rsi
    25fd:	48 ff ce             	dec    rsi
    2600:	48 ff ce             	dec    rsi
    2603:	48 ff ce             	dec    rsi
    2606:	48 ff ce             	dec    rsi
    2609:	fe 06                	inc    BYTE PTR [rsi]
    260b:	48 ff c6             	inc    rsi
    260e:	48 ff c6             	inc    rsi
    2611:	48 ff c6             	inc    rsi
    2614:	48 ff c6             	inc    rsi
    2617:	48 ff c6             	inc    rsi
    261a:	e9 cf ff ff ff       	jmp    0x25ee
    261f:	48 ff ce             	dec    rsi
    2622:	48 ff ce             	dec    rsi
    2625:	48 ff ce             	dec    rsi
    2628:	48 ff ce             	dec    rsi
    262b:	48 ff ce             	dec    rsi
    262e:	8a 06                	mov    al,BYTE PTR [rsi]
    2630:	84 c0                	test   al,al
    2632:	0f 84 f2 00 00 00    	je     0x272a
    2638:	fe 0e                	dec    BYTE PTR [rsi]
    263a:	48 ff c6             	inc    rsi
    263d:	48 ff c6             	inc    rsi
    2640:	48 ff c6             	inc    rsi
    2643:	48 ff c6             	inc    rsi
    2646:	48 ff c6             	inc    rsi
    2649:	fe 06                	inc    BYTE PTR [rsi]
    264b:	48 ff ce             	dec    rsi
    264e:	48 ff ce             	dec    rsi
    2651:	48 ff ce             	dec    rsi
    2654:	48 ff ce             	dec    rsi
    2657:	48 ff ce             	dec    rsi
    265a:	48 ff ce             	dec    rsi
    265d:	8a 06                	mov    al,BYTE PTR [rsi]
    265f:	84 c0                	test   al,al
    2661:	0f 84 7c 00 00 00    	je     0x26e3
    2667:	fe 0e                	dec    BYTE PTR [rsi]
    2669:	48 ff c6             	inc    rsi
    266c:	48 ff c6             	inc    rsi
    266f:	8a 06                	mov    al,BYTE PTR [rsi]
    2671:	84 c0                	test   al,al
    2673:	0f 84 15 00 00 00    	je     0x268e
    2679:	fe 0e                	dec    BYTE PTR [rsi]
    267b:	48 ff ce             	dec    rsi
    267e:	48 ff ce             	dec    rsi
    2681:	fe 06                	inc    BYTE PTR [rsi]
    2683:	48 ff c6             	inc    rsi
    2686:	48 ff c6             	inc    rsi
    2689:	e9 e1 ff ff ff       	jmp    0x266f
    268e:	48 ff ce             	dec    rsi
    2691:	48 ff ce             	dec    rsi
    2694:	8a 06                	mov    al,BYTE PTR [rsi]
    2696:	84 c0                	test   al,al
    2698:	0f 84 23 00 00 00    	je     0x26c1
    269e:	fe 0e                	dec    BYTE PTR [rsi]
    26a0:	48 ff c6             	inc    rsi
    26a3:	48 ff c6             	inc    rsi
    26a6:	fe 06                	inc    BYTE PTR [rsi]
    26a8:	48 ff c6             	inc    rsi
    26ab:	48 ff c6             	inc    rsi
    26ae:	fe 06                	inc    BYTE PTR [rsi]
    26b0:	48 ff ce             	dec    rsi
    26b3:	48 ff ce             	dec    rsi
    26b6:	48 ff ce             	dec    rsi
    26b9:	48 ff ce             	dec    rsi
    26bc:	e9 d3 ff ff ff       	jmp    0x2694
    26c1:	fe 06                	inc    BYTE PTR [rsi]
    26c3:	48 ff c6             	inc    rsi
    26c6:	48 ff c6             	inc    rsi
    26c9:	48 ff c6             	inc    rsi
    26cc:	48 ff c6             	inc    rsi
    26cf:	48 ff c6             	inc    rsi
    26d2:	48 ff c6             	inc    rsi
    26d5:	48 ff c6             	inc    rsi
    26d8:	48 ff c6             	inc    rsi
    26db:	48 ff c6             	inc    rsi
    26de:	e9 7a ff ff ff       	jmp    0x265d
    26e3:	48 ff ce             	dec    rsi
    26e6:	48 ff ce             	dec    rsi
    26e9:	48 ff ce             	dec    rsi
    26ec:	48 ff ce             	dec    rsi
    26ef:	48 ff ce             	dec    rsi
    26f2:	48 ff ce             	dec    rsi
    26f5:	48 ff ce             	dec    rsi
    26f8:	48 ff ce             	dec    rsi
    26fb:	8a 06                	mov    al,BYTE PTR [rsi]
    26fd:	84 c0                	test   al,al
    26ff:	0f 84 20 00 00 00    	je     0x2725
    2705:	48 ff ce             	dec    rsi
    2708:	48 ff ce             	dec    rsi
    270b:	48 ff ce             	dec    rsi
    270e:	48 ff ce             	dec    rsi
    2711:	48 ff ce             	dec    rsi
    2714:	48 ff ce             	dec    rsi
    2717:	48 ff ce             	dec    rsi
    271a:	48 ff ce             	dec    rsi
    271d:	48 ff ce             	dec    rsi
    2720:	e9 d6 ff ff ff       	jmp    0x26fb
    2725:	e9 04 ff ff ff       	jmp    0x262e
    272a:	48 ff c6             	inc    rsi
    272d:	48 ff c6             	inc    rsi
    2730:	48 ff c6             	inc    rsi
    2733:	48 ff c6             	inc    rsi
    2736:	48 ff c6             	inc    rsi
    2739:	48 ff c6             	inc    rsi
    273c:	48 ff c6             	inc    rsi
    273f:	48 ff c6             	inc    rsi
    2742:	48 ff c6             	inc    rsi
    2745:	8a 06                	mov    al,BYTE PTR [rsi]
    2747:	84 c0                	test   al,al
    2749:	0f 84 20 00 00 00    	je     0x276f
    274f:	48 ff c6             	inc    rsi
    2752:	48 ff c6             	inc    rsi
    2755:	48 ff c6             	inc    rsi
    2758:	48 ff c6             	inc    rsi
    275b:	48 ff c6             	inc    rsi
    275e:	48 ff c6             	inc    rsi
    2761:	48 ff c6             	inc    rsi
    2764:	48 ff c6             	inc    rsi
    2767:	48 ff c6             	inc    rsi
    276a:	e9 d6 ff ff ff       	jmp    0x2745
    276f:	48 ff ce             	dec    rsi
    2772:	48 ff ce             	dec    rsi
    2775:	48 ff ce             	dec    rsi
    2778:	48 ff ce             	dec    rsi
    277b:	48 ff ce             	dec    rsi
    277e:	48 ff ce             	dec    rsi
    2781:	48 ff ce             	dec    rsi
    2784:	48 ff ce             	dec    rsi
    2787:	48 ff ce             	dec    rsi
    278a:	8a 06                	mov    al,BYTE PTR [rsi]
    278c:	84 c0                	test   al,al
    278e:	0f 84 6f 00 00 00    	je     0x2803
    2794:	48 ff c6             	inc    rsi
    2797:	8a 06                	mov    al,BYTE PTR [rsi]
    2799:	84 c0                	test   al,al
    279b:	0f 84 3f 00 00 00    	je     0x27e0
    27a1:	fe 0e                	dec    BYTE PTR [rsi]
    27a3:	48 ff c6             	inc    rsi
    27a6:	48 ff c6             	inc    rsi
    27a9:	48 ff c6             	inc    rsi
    27ac:	48 ff c6             	inc    rsi
    27af:	48 ff c6             	inc    rsi
    27b2:	48 ff c6             	inc    rsi
    27b5:	48 ff c6             	inc    rsi
    27b8:	48 ff c6             	inc    rsi
    27bb:	48 ff c6             	inc    rsi
    27be:	fe 06                	inc    BYTE PTR [rsi]
    27c0:	48 ff ce             	dec    rsi
    27c3:	48 ff ce             	dec    rsi
    27c6:	48 ff ce             	dec    rsi
    27c9:	48 ff ce             	dec    rsi
    27cc:	48 ff ce             	dec    rsi
    27cf:	48 ff ce             	dec    rsi
    27d2:	48 ff ce             	dec    rsi
    27d5:	48 ff ce             	dec    rsi
    27d8:	48 ff ce             	dec    rsi
    27db:	e9 b7 ff ff ff       	jmp    0x2797
    27e0:	48 ff ce             	dec    rsi
    27e3:	48 ff ce             	dec    rsi
    27e6:	48 ff ce             	dec    rsi
    27e9:	48 ff ce             	dec    rsi
    27ec:	48 ff ce             	dec    rsi
    27ef:	48 ff ce             	dec    rsi
    27f2:	48 ff ce             	dec    rsi
    27f5:	48 ff ce             	dec    rsi
    27f8:	48 ff ce             	dec    rsi
    27fb:	48 ff ce             	dec    rsi
    27fe:	e9 87 ff ff ff       	jmp    0x278a
    2803:	48 ff c6             	inc    rsi
    2806:	8a 06                	mov    al,BYTE PTR [rsi]
    2808:	84 c0                	test   al,al
    280a:	0f 84 3f 00 00 00    	je     0x284f
    2810:	fe 0e                	dec    BYTE PTR [rsi]
    2812:	48 ff c6             	inc    rsi
    2815:	48 ff c6             	inc    rsi
    2818:	48 ff c6             	inc    rsi
    281b:	48 ff c6             	inc    rsi
    281e:	48 ff c6             	inc    rsi
    2821:	48 ff c6             	inc    rsi
    2824:	48 ff c6             	inc    rsi
    2827:	48 ff c6             	inc    rsi
    282a:	48 ff c6             	inc    rsi
    282d:	fe 06                	inc    BYTE PTR [rsi]
    282f:	48 ff ce             	dec    rsi
    2832:	48 ff ce             	dec    rsi
    2835:	48 ff ce             	dec    rsi
    2838:	48 ff ce             	dec    rsi
    283b:	48 ff ce             	dec    rsi
    283e:	48 ff ce             	dec    rsi
    2841:	48 ff ce             	dec    rsi
    2844:	48 ff ce             	dec    rsi
    2847:	48 ff ce             	dec    rsi
    284a:	e9 b7 ff ff ff       	jmp    0x2806
    284f:	48 ff ce             	dec    rsi
    2852:	fe 06                	inc    BYTE PTR [rsi]
    2854:	48 ff c6             	inc    rsi
    2857:	48 ff c6             	inc    rsi
    285a:	48 ff c6             	inc    rsi
    285d:	48 ff c6             	inc    rsi
    2860:	48 ff c6             	inc    rsi
    2863:	48 ff c6             	inc    rsi
    2866:	48 ff c6             	inc    rsi
    2869:	48 ff c6             	inc    rsi
    286c:	e9 5f fd ff ff       	jmp    0x25d0
    2871:	48 ff ce             	dec    rsi
    2874:	48 ff ce             	dec    rsi
    2877:	48 ff ce             	dec    rsi
    287a:	48 ff ce             	dec    rsi
    287d:	48 ff ce             	dec    rsi
    2880:	48 ff ce             	dec    rsi
    2883:	48 ff ce             	dec    rsi
    2886:	48 ff ce             	dec    rsi
    2889:	48 ff ce             	dec    rsi
    288c:	8a 06                	mov    al,BYTE PTR [rsi]
    288e:	84 c0                	test   al,al
    2890:	0f 84 01 01 00 00    	je     0x2997
    2896:	48 ff c6             	inc    rsi
    2899:	8a 06                	mov    al,BYTE PTR [rsi]
    289b:	84 c0                	test   al,al
    289d:	0f 84 07 00 00 00    	je     0x28aa
    28a3:	fe 0e                	dec    BYTE PTR [rsi]
    28a5:	e9 ef ff ff ff       	jmp    0x2899
    28aa:	48 ff ce             	dec    rsi
    28ad:	fe 0e                	dec    BYTE PTR [rsi]
    28af:	48 ff c6             	inc    rsi
    28b2:	48 ff c6             	inc    rsi
    28b5:	48 ff c6             	inc    rsi
    28b8:	48 ff c6             	inc    rsi
    28bb:	8a 06                	mov    al,BYTE PTR [rsi]
    28bd:	84 c0                	test   al,al
    28bf:	0f 84 7f 00 00 00    	je     0x2944
    28c5:	fe 0e                	dec    BYTE PTR [rsi]
    28c7:	48 ff ce             	dec    rsi
    28ca:	48 ff ce             	dec    rsi
    28cd:	48 ff ce             	dec    rsi
    28d0:	48 ff ce             	dec    rsi
    28d3:	fe 06                	inc    BYTE PTR [rsi]
    28d5:	48 ff c6             	inc    rsi
    28d8:	8a 06                	mov    al,BYTE PTR [rsi]
    28da:	84 c0                	test   al,al
    28dc:	0f 84 35 00 00 00    	je     0x2917
    28e2:	48 ff ce             	dec    rsi
    28e5:	fe 0e                	dec    BYTE PTR [rsi]
    28e7:	48 ff c6             	inc    rsi
    28ea:	fe 0e                	dec    BYTE PTR [rsi]
    28ec:	48 ff ce             	dec    rsi
    28ef:	48 ff ce             	dec    rsi
    28f2:	48 ff ce             	dec    rsi
    28f5:	48 ff ce             	dec    rsi
    28f8:	48 ff ce             	dec    rsi
    28fb:	48 ff ce             	dec    rsi
    28fe:	fe 06                	inc    BYTE PTR [rsi]
    2900:	48 ff c6             	inc    rsi
    2903:	48 ff c6             	inc    rsi
    2906:	48 ff c6             	inc    rsi
    2909:	48 ff c6             	inc    rsi
    290c:	48 ff c6             	inc    rsi
    290f:	48 ff c6             	inc    rsi
    2912:	e9 c1 ff ff ff       	jmp    0x28d8
    2917:	48 ff ce             	dec    rsi
    291a:	8a 06                	mov    al,BYTE PTR [rsi]
    291c:	84 c0                	test   al,al
    291e:	0f 84 0f 00 00 00    	je     0x2933
    2924:	fe 0e                	dec    BYTE PTR [rsi]
    2926:	48 ff c6             	inc    rsi
    2929:	fe 06                	inc    BYTE PTR [rsi]
    292b:	48 ff ce             	dec    rsi
    292e:	e9 e7 ff ff ff       	jmp    0x291a
    2933:	48 ff c6             	inc    rsi
    2936:	48 ff c6             	inc    rsi
    2939:	48 ff c6             	inc    rsi
    293c:	48 ff c6             	inc    rsi
    293f:	e9 77 ff ff ff       	jmp    0x28bb
    2944:	48 ff ce             	dec    rsi
    2947:	48 ff ce             	dec    rsi
    294a:	48 ff ce             	dec    rsi
    294d:	8a 06                	mov    al,BYTE PTR [rsi]
    294f:	84 c0                	test   al,al
    2951:	0f 84 1b 00 00 00    	je     0x2972
    2957:	fe 0e                	dec    BYTE PTR [rsi]
    2959:	48 ff c6             	inc    rsi
    295c:	48 ff c6             	inc    rsi
    295f:	48 ff c6             	inc    rsi
    2962:	fe 06                	inc    BYTE PTR [rsi]
    2964:	48 ff ce             	dec    rsi
    2967:	48 ff ce             	dec    rsi
    296a:	48 ff ce             	dec    rsi
    296d:	e9 db ff ff ff       	jmp    0x294d
    2972:	48 ff ce             	dec    rsi
    2975:	fe 06                	inc    BYTE PTR [rsi]
    2977:	48 ff ce             	dec    rsi
    297a:	48 ff ce             	dec    rsi
    297d:	48 ff ce             	dec    rsi
    2980:	48 ff ce             	dec    rsi
    2983:	48 ff ce             	dec    rsi
    2986:	48 ff ce             	dec    rsi
    2989:	48 ff ce             	dec    rsi
    298c:	48 ff ce             	dec    rsi
    298f:	48 ff ce             	dec    rsi
    2992:	e9 f5 fe ff ff       	jmp    0x288c
    2997:	48 ff c6             	inc    rsi
    299a:	48 ff c6             	inc    rsi
    299d:	48 ff c6             	inc    rsi
    29a0:	48 ff c6             	inc    rsi
    29a3:	48 ff c6             	inc    rsi
    29a6:	48 ff c6             	inc    rsi
    29a9:	48 ff c6             	inc    rsi
    29ac:	48 ff c6             	inc    rsi
    29af:	48 ff c6             	inc    rsi
    29b2:	8a 06                	mov    al,BYTE PTR [rsi]
    29b4:	84 c0                	test   al,al
    29b6:	0f 84 0b 01 00 00    	je     0x2ac7
    29bc:	48 ff c6             	inc    rsi
    29bf:	48 ff c6             	inc    rsi
    29c2:	48 ff c6             	inc    rsi
    29c5:	48 ff c6             	inc    rsi
    29c8:	8a 06                	mov    al,BYTE PTR [rsi]
    29ca:	84 c0                	test   al,al
    29cc:	0f 84 e1 00 00 00    	je     0x2ab3
    29d2:	fe 0e                	dec    BYTE PTR [rsi]
    29d4:	48 ff ce             	dec    rsi
    29d7:	48 ff ce             	dec    rsi
    29da:	48 ff ce             	dec    rsi
    29dd:	48 ff ce             	dec    rsi
    29e0:	48 ff ce             	dec    rsi
    29e3:	48 ff ce             	dec    rsi
    29e6:	48 ff ce             	dec    rsi
    29e9:	48 ff ce             	dec    rsi
    29ec:	48 ff ce             	dec    rsi
    29ef:	48 ff ce             	dec    rsi
    29f2:	48 ff ce             	dec    rsi
    29f5:	48 ff ce             	dec    rsi
    29f8:	48 ff ce             	dec    rsi
    29fb:	48 ff ce             	dec    rsi
    29fe:	48 ff ce             	dec    rsi
    2a01:	48 ff ce             	dec    rsi
    2a04:	48 ff ce             	dec    rsi
    2a07:	48 ff ce             	dec    rsi
    2a0a:	48 ff ce             	dec    rsi
    2a0d:	48 ff ce             	dec    rsi
    2a10:	48 ff ce             	dec    rsi
    2a13:	48 ff ce             	dec    rsi
    2a16:	48 ff ce             	dec    rsi
    2a19:	48 ff ce             	dec    rsi
    2a1c:	48 ff ce             	dec    rsi
    2a1f:	48 ff ce             	dec    rsi
    2a22:	48 ff ce             	dec    rsi
    2a25:	48 ff ce             	dec    rsi
    2a28:	48 ff ce             	dec    rsi
    2a2b:	48 ff ce             	dec    rsi
    2a2e:	48 ff ce             	dec    rsi
    2a31:	48 ff ce             	dec    rsi
    2a34:	48 ff ce             	dec    rsi
    2a37:	48 ff ce             	dec    rsi
    2a3a:	48 ff ce             	dec    rsi
    2a3d:	48 ff ce             	dec    rsi
    2a40:	fe 06                	inc    BYTE PTR [rsi]
    2a42:	48 ff c6             	inc    rsi
    2a45:	48 ff c6             	inc    rsi
    2a48:	48 ff c6             	inc    rsi
    2a4b:	48 ff c6             	inc    rsi
    2a4e:	48 ff c6             	inc    rsi
    2a51:	48 ff c6             	inc    rsi
    2a54:	48 ff c6             	inc    rsi
    2a57:	48 ff c6             	inc    rsi
    2a5a:	48 ff c6             	inc    rsi
    2a5d:	48 ff c6             	inc    rsi
    2a60:	48 ff c6             	inc    rsi
    2a63:	48 ff c6             	inc    rsi
    2a66:	48 ff c6             	inc    rsi
    2a69:	48 ff c6             	inc    rsi
    2a6c:	48 ff c6             	inc    rsi
    2a6f:	48 ff c6             	inc    rsi
    2a72:	48 ff c6             	inc    rsi
    2a75:	48 ff c6             	inc    rsi
    2a78:	48 ff c6             	inc    rsi
    2a7b:	48 ff c6             	inc    rsi
    2a7e:	48 ff c6             	inc    rsi
    2a81:	48 ff c6             	inc    rsi
    2a84:	48 ff c6             	inc    rsi
    2a87:	48 ff c6             	inc    rsi
    2a8a:	48 ff c6             	inc    rsi
    2a8d:	48 ff c6             	inc    rsi
    2a90:	48 ff c6             	inc    rsi
    2a93:	48 ff c6             	inc    rsi
    2a96:	48 ff c6             	inc    rsi
    2a99:	48 ff c6             	inc    rsi
    2a9c:	48 ff c6             	inc    rsi
    2a9f:	48 ff c6             	inc    rsi
    2aa2:	48 ff c6             	inc    rsi
    2aa5:	48 ff c6             	inc    rsi
    2aa8:	48 ff c6             	inc    rsi
    2aab:	48 ff c6             	inc    rsi
    2aae:	e9 15 ff ff ff       	jmp    0x29c8
    2ab3:	48 ff c6             	inc    rsi
    2ab6:	48 ff c6             	inc    rsi
    2ab9:	48 ff c6             	inc    rsi
    2abc:	48 ff c6             	inc    rsi
    2abf:	48 ff c6             	inc    rsi
    2ac2:	e9 eb fe ff ff       	jmp    0x29b2
    2ac7:	48 ff ce             	dec    rsi
    2aca:	48 ff ce             	dec    rsi
    2acd:	48 ff ce             	dec    rsi
    2ad0:	48 ff ce             	dec    rsi
    2ad3:	48 ff ce             	dec    rsi
    2ad6:	48 ff ce             	dec    rsi
    2ad9:	48 ff ce             	dec    rsi
    2adc:	48 ff ce             	dec    rsi
    2adf:	48 ff ce             	dec    rsi
    2ae2:	8a 06                	mov    al,BYTE PTR [rsi]
    2ae4:	84 c0                	test   al,al
    2ae6:	0f 84 20 00 00 00    	je     0x2b0c
    2aec:	48 ff ce             	dec    rsi
    2aef:	48 ff ce             	dec    rsi
    2af2:	48 ff ce             	dec    rsi
    2af5:	48 ff ce             	dec    rsi
    2af8:	48 ff ce             	dec    rsi
    2afb:	48 ff ce             	dec    rsi
    2afe:	48 ff ce             	dec    rsi
    2b01:	48 ff ce             	dec    rsi
    2b04:	48 ff ce             	dec    rsi
    2b07:	e9 d6 ff ff ff       	jmp    0x2ae2
    2b0c:	48 ff c6             	inc    rsi
    2b0f:	48 ff c6             	inc    rsi
    2b12:	48 ff c6             	inc    rsi
    2b15:	48 ff c6             	inc    rsi
    2b18:	48 ff c6             	inc    rsi
    2b1b:	48 ff c6             	inc    rsi
    2b1e:	48 ff c6             	inc    rsi
    2b21:	48 ff c6             	inc    rsi
    2b24:	48 ff c6             	inc    rsi
    2b27:	8a 06                	mov    al,BYTE PTR [rsi]
    2b29:	84 c0                	test   al,al
    2b2b:	0f 84 0b 01 00 00    	je     0x2c3c
    2b31:	48 ff c6             	inc    rsi
    2b34:	48 ff c6             	inc    rsi
    2b37:	48 ff c6             	inc    rsi
    2b3a:	8a 06                	mov    al,BYTE PTR [rsi]
    2b3c:	84 c0                	test   al,al
    2b3e:	0f 84 e1 00 00 00    	je     0x2c25
    2b44:	fe 0e                	dec    BYTE PTR [rsi]
    2b46:	48 ff ce             	dec    rsi
    2b49:	48 ff ce             	dec    rsi
    2b4c:	48 ff ce             	dec    rsi
    2b4f:	48 ff ce             	dec    rsi
    2b52:	48 ff ce             	dec    rsi
    2b55:	48 ff ce             	dec    rsi
    2b58:	48 ff ce             	dec    rsi
    2b5b:	48 ff ce             	dec    rsi
    2b5e:	48 ff ce             	dec    rsi
    2b61:	48 ff ce             	dec    rsi
    2b64:	48 ff ce             	dec    rsi
    2b67:	48 ff ce             	dec    rsi
    2b6a:	48 ff ce             	dec    rsi
    2b6d:	48 ff ce             	dec    rsi
    2b70:	48 ff ce             	dec    rsi
    2b73:	48 ff ce             	dec    rsi
    2b76:	48 ff ce             	dec    rsi
    2b79:	48 ff ce             	dec    rsi
    2b7c:	48 ff ce             	dec    rsi
    2b7f:	48 ff ce             	dec    rsi
    2b82:	48 ff ce             	dec    rsi
    2b85:	48 ff ce             	dec    rsi
    2b88:	48 ff ce             	dec    rsi
    2b8b:	48 ff ce             	dec    rsi
    2b8e:	48 ff ce             	dec    rsi
    2b91:	48 ff ce             	dec    rsi
    2b94:	48 ff ce             	dec    rsi
    2b97:	48 ff ce             	dec    rsi
    2b9a:	48 ff ce             	dec    rsi
    2b9d:	48 ff ce             	dec    rsi
    2ba0:	48 ff ce             	dec    rsi
    2ba3:	48 ff ce             	dec    rsi
    2ba6:	48 ff ce             	dec    rsi
    2ba9:	48 ff ce             	dec    rsi
    2bac:	48 ff ce             	dec    rsi
    2baf:	48 ff ce             	dec    rsi
    2bb2:	fe 06                	inc    BYTE PTR [rsi]
    2bb4:	48 ff c6             	inc    rsi
    2bb7:	48 ff c6             	inc    rsi
    2bba:	48 ff c6             	inc    rsi
    2bbd:	48 ff c6             	inc    rsi
    2bc0:	48 ff c6             	inc    rsi
    2bc3:	48 ff c6             	inc    rsi
    2bc6:	48 ff c6             	inc    rsi
    2bc9:	48 ff c6             	inc    rsi
    2bcc:	48 ff c6             	inc    rsi
    2bcf:	48 ff c6             	inc    rsi
    2bd2:	48 ff c6             	inc    rsi
    2bd5:	48 ff c6             	inc    rsi
    2bd8:	48 ff c6             	inc    rsi
    2bdb:	48 ff c6             	inc    rsi
    2bde:	48 ff c6             	inc    rsi
    2be1:	48 ff c6             	inc    rsi
    2be4:	48 ff c6             	inc    rsi
    2be7:	48 ff c6             	inc    rsi
    2bea:	48 ff c6             	inc    rsi
    2bed:	48 ff c6             	inc    rsi
    2bf0:	48 ff c6             	inc    rsi
    2bf3:	48 ff c6             	inc    rsi
    2bf6:	48 ff c6             	inc    rsi
    2bf9:	48 ff c6             	inc    rsi
    2bfc:	48 ff c6             	inc    rsi
    2bff:	48 ff c6             	inc    rsi
    2c02:	48 ff c6             	inc    rsi
    2c05:	48 ff c6             	inc    rsi
    2c08:	48 ff c6             	inc    rsi
    2c0b:	48 ff c6             	inc    rsi
    2c0e:	48 ff c6             	inc    rsi
    2c11:	48 ff c6             	inc    rsi
    2c14:	48 ff c6             	inc    rsi
    2c17:	48 ff c6             	inc    rsi
    2c1a:	48 ff c6             	inc    rsi
    2c1d:	48 ff c6             	inc    rsi
    2c20:	e9 15 ff ff ff       	jmp    0x2b3a
    2c25:	48 ff c6             	inc    rsi
    2c28:	48 ff c6             	inc    rsi
    2c2b:	48 ff c6             	inc    rsi
    2c2e:	48 ff c6             	inc    rsi
    2c31:	48 ff c6             	inc    rsi
    2c34:	48 ff c6             	inc    rsi
    2c37:	e9 eb fe ff ff       	jmp    0x2b27
    2c3c:	48 ff ce             	dec    rsi
    2c3f:	48 ff ce             	dec    rsi
    2c42:	48 ff ce             	dec    rsi
    2c45:	48 ff ce             	dec    rsi
    2c48:	48 ff ce             	dec    rsi
    2c4b:	48 ff ce             	dec    rsi
    2c4e:	48 ff ce             	dec    rsi
    2c51:	48 ff ce             	dec    rsi
    2c54:	48 ff ce             	dec    rsi
    2c57:	8a 06                	mov    al,BYTE PTR [rsi]
    2c59:	84 c0                	test   al,al
    2c5b:	0f 84 20 00 00 00    	je     0x2c81
    2c61:	48 ff ce             	dec    rsi
    2c64:	48 ff ce             	dec    rsi
    2c67:	48 ff ce             	dec    rsi
    2c6a:	48 ff ce             	dec    rsi
    2c6d:	48 ff ce             	dec    rsi
    2c70:	48 ff ce             	dec    rsi
    2c73:	48 ff ce             	dec    rsi
    2c76:	48 ff ce             	dec    rsi
    2c79:	48 ff ce             	dec    rsi
    2c7c:	e9 d6 ff ff ff       	jmp    0x2c57
    2c81:	48 ff c6             	inc    rsi
    2c84:	48 ff c6             	inc    rsi
    2c87:	48 ff c6             	inc    rsi
    2c8a:	48 ff c6             	inc    rsi
    2c8d:	48 ff c6             	inc    rsi
    2c90:	48 ff c6             	inc    rsi
    2c93:	48 ff c6             	inc    rsi
    2c96:	48 ff c6             	inc    rsi
    2c99:	48 ff c6             	inc    rsi
    2c9c:	fe 06                	inc    BYTE PTR [rsi]
    2c9e:	fe 06                	inc    BYTE PTR [rsi]
    2ca0:	fe 06                	inc    BYTE PTR [rsi]
    2ca2:	fe 06                	inc    BYTE PTR [rsi]
    2ca4:	fe 06                	inc    BYTE PTR [rsi]
    2ca6:	fe 06                	inc    BYTE PTR [rsi]
    2ca8:	fe 06                	inc    BYTE PTR [rsi]
    2caa:	fe 06                	inc    BYTE PTR [rsi]
    2cac:	fe 06                	inc    BYTE PTR [rsi]
    2cae:	fe 06                	inc    BYTE PTR [rsi]
    2cb0:	fe 06                	inc    BYTE PTR [rsi]
    2cb2:	fe 06                	inc    BYTE PTR [rsi]
    2cb4:	fe 06                	inc    BYTE PTR [rsi]
    2cb6:	fe 06                	inc    BYTE PTR [rsi]
    2cb8:	fe 06                	inc    BYTE PTR [rsi]
    2cba:	8a 06                	mov    al,BYTE PTR [rsi]
    2cbc:	84 c0                	test   al,al
    2cbe:	0f 84 ae 00 00 00    	je     0x2d72
    2cc4:	8a 06                	mov    al,BYTE PTR [rsi]
    2cc6:	84 c0                	test   al,al
    2cc8:	0f 84 20 00 00 00    	je     0x2cee
    2cce:	48 ff c6             	inc    rsi
    2cd1:	48 ff c6             	inc    rsi
    2cd4:	48 ff c6             	inc    rsi
    2cd7:	48 ff c6             	inc    rsi
    2cda:	48 ff c6             	inc    rsi
    2cdd:	48 ff c6             	inc    rsi
    2ce0:	48 ff c6             	inc    rsi
    2ce3:	48 ff c6             	inc    rsi
    2ce6:	48 ff c6             	inc    rsi
    2ce9:	e9 d6 ff ff ff       	jmp    0x2cc4
    2cee:	48 ff ce             	dec    rsi
    2cf1:	48 ff ce             	dec    rsi
    2cf4:	48 ff ce             	dec    rsi
    2cf7:	48 ff ce             	dec    rsi
    2cfa:	48 ff ce             	dec    rsi
    2cfd:	48 ff ce             	dec    rsi
    2d00:	48 ff ce             	dec    rsi
    2d03:	48 ff ce             	dec    rsi
    2d06:	48 ff ce             	dec    rsi
    2d09:	fe 0e                	dec    BYTE PTR [rsi]
    2d0b:	48 ff ce             	dec    rsi
    2d0e:	48 ff ce             	dec    rsi
    2d11:	48 ff ce             	dec    rsi
    2d14:	48 ff ce             	dec    rsi
    2d17:	48 ff ce             	dec    rsi
    2d1a:	48 ff ce             	dec    rsi
    2d1d:	48 ff ce             	dec    rsi
    2d20:	48 ff ce             	dec    rsi
    2d23:	48 ff ce             	dec    rsi
    2d26:	8a 06                	mov    al,BYTE PTR [rsi]
    2d28:	84 c0                	test   al,al
    2d2a:	0f 84 20 00 00 00    	je     0x2d50
    2d30:	48 ff ce             	dec    rsi
    2d33:	48 ff ce             	dec    rsi
    2d36:	48 ff ce             	dec    rsi
    2d39:	48 ff ce             	dec    rsi
    2d3c:	48 ff ce             	dec    rsi
    2d3f:	48 ff ce             	dec    rsi
    2d42:	48 ff ce             	dec    rsi
    2d45:	48 ff ce             	dec    rsi
    2d48:	48 ff ce             	dec    rsi
    2d4b:	e9 d6 ff ff ff       	jmp    0x2d26
    2d50:	48 ff c6             	inc    rsi
    2d53:	48 ff c6             	inc    rsi
    2d56:	48 ff c6             	inc    rsi
    2d59:	48 ff c6             	inc    rsi
    2d5c:	48 ff c6             	inc    rsi
    2d5f:	48 ff c6             	inc    rsi
    2d62:	48 ff c6             	inc    rsi
    2d65:	48 ff c6             	inc    rsi
    2d68:	48 ff c6             	inc    rsi
    2d6b:	fe 0e                	dec    BYTE PTR [rsi]
    2d6d:	e9 48 ff ff ff       	jmp    0x2cba
    2d72:	fe 06                	inc    BYTE PTR [rsi]
    2d74:	8a 06                	mov    al,BYTE PTR [rsi]
    2d76:	84 c0                	test   al,al
    2d78:	0f 84 c6 00 00 00    	je     0x2e44
    2d7e:	48 ff c6             	inc    rsi
    2d81:	48 ff c6             	inc    rsi
    2d84:	48 ff c6             	inc    rsi
    2d87:	48 ff c6             	inc    rsi
    2d8a:	48 ff c6             	inc    rsi
    2d8d:	48 ff c6             	inc    rsi
    2d90:	48 ff c6             	inc    rsi
    2d93:	48 ff c6             	inc    rsi
    2d96:	8a 06                	mov    al,BYTE PTR [rsi]
    2d98:	84 c0                	test   al,al
    2d9a:	0f 84 33 00 00 00    	je     0x2dd3
    2da0:	fe 0e                	dec    BYTE PTR [rsi]
    2da2:	48 ff ce             	dec    rsi
    2da5:	48 ff ce             	dec    rsi
    2da8:	48 ff ce             	dec    rsi
    2dab:	48 ff ce             	dec    rsi
    2dae:	48 ff ce             	dec    rsi
    2db1:	48 ff ce             	dec    rsi
    2db4:	48 ff ce             	dec    rsi
    2db7:	fe 06                	inc    BYTE PTR [rsi]
    2db9:	48 ff c6             	inc    rsi
    2dbc:	48 ff c6             	inc    rsi
    2dbf:	48 ff c6             	inc    rsi
    2dc2:	48 ff c6             	inc    rsi
    2dc5:	48 ff c6             	inc    rsi
    2dc8:	48 ff c6             	inc    rsi
    2dcb:	48 ff c6             	inc    rsi
    2dce:	e9 c3 ff ff ff       	jmp    0x2d96
    2dd3:	48 ff ce             	dec    rsi
    2dd6:	48 ff ce             	dec    rsi
    2dd9:	48 ff ce             	dec    rsi
    2ddc:	48 ff ce             	dec    rsi
    2ddf:	48 ff ce             	dec    rsi
    2de2:	48 ff ce             	dec    rsi
    2de5:	48 ff ce             	dec    rsi
    2de8:	8a 06                	mov    al,BYTE PTR [rsi]
    2dea:	84 c0                	test   al,al
    2dec:	0f 84 35 00 00 00    	je     0x2e27
    2df2:	fe 0e                	dec    BYTE PTR [rsi]
    2df4:	48 ff c6             	inc    rsi
    2df7:	48 ff c6             	inc    rsi
    2dfa:	48 ff c6             	inc    rsi
    2dfd:	48 ff c6             	inc    rsi
    2e00:	48 ff c6             	inc    rsi
    2e03:	48 ff c6             	inc    rsi
    2e06:	48 ff c6             	inc    rsi
    2e09:	fe 06                	inc    BYTE PTR [rsi]
    2e0b:	48 ff ce             	dec    rsi
    2e0e:	48 ff ce             	dec    rsi
    2e11:	48 ff ce             	dec    rsi
    2e14:	48 ff ce             	dec    rsi
    2e17:	48 ff ce             	dec    rsi
    2e1a:	48 ff ce             	dec    rsi
    2e1d:	fe 06                	inc    BYTE PTR [rsi]
    2e1f:	48 ff ce             	dec    rsi
    2e22:	e9 c1 ff ff ff       	jmp    0x2de8
    2e27:	48 ff c6             	inc    rsi
    2e2a:	48 ff c6             	inc    rsi
    2e2d:	48 ff c6             	inc    rsi
    2e30:	48 ff c6             	inc    rsi
    2e33:	48 ff c6             	inc    rsi
    2e36:	48 ff c6             	inc    rsi
    2e39:	48 ff c6             	inc    rsi
    2e3c:	48 ff c6             	inc    rsi
    2e3f:	e9 30 ff ff ff       	jmp    0x2d74
    2e44:	48 ff ce             	dec    rsi
    2e47:	48 ff ce             	dec    rsi
    2e4a:	48 ff ce             	dec    rsi
    2e4d:	48 ff ce             	dec    rsi
    2e50:	48 ff ce             	dec    rsi
    2e53:	48 ff ce             	dec    rsi
    2e56:	48 ff ce             	dec    rsi
    2e59:	48 ff ce             	dec    rsi
    2e5c:	48 ff ce             	dec    rsi
    2e5f:	8a 06                	mov    al,BYTE PTR [rsi]
    2e61:	84 c0                	test   al,al
    2e63:	0f 84 20 00 00 00    	je     0x2e89
    2e69:	48 ff ce             	dec    rsi
    2e6c:	48 ff ce             	dec    rsi
    2e6f:	48 ff ce             	dec    rsi
    2e72:	48 ff ce             	dec    rsi
    2e75:	48 ff ce             	dec    rsi
    2e78:	48 ff ce             	dec    rsi
    2e7b:	48 ff ce             	dec    rsi
    2e7e:	48 ff ce             	dec    rsi
    2e81:	48 ff ce             	dec    rsi
    2e84:	e9 d6 ff ff ff       	jmp    0x2e5f
    2e89:	48 ff c6             	inc    rsi
    2e8c:	48 ff c6             	inc    rsi
    2e8f:	48 ff c6             	inc    rsi
    2e92:	48 ff c6             	inc    rsi
    2e95:	48 ff c6             	inc    rsi
    2e98:	48 ff c6             	inc    rsi
    2e9b:	48 ff c6             	inc    rsi
    2e9e:	48 ff c6             	inc    rsi
    2ea1:	48 ff c6             	inc    rsi
    2ea4:	8a 06                	mov    al,BYTE PTR [rsi]
    2ea6:	84 c0                	test   al,al
    2ea8:	0f 84 31 00 00 00    	je     0x2edf
    2eae:	48 ff c6             	inc    rsi
    2eb1:	48 ff c6             	inc    rsi
    2eb4:	48 ff c6             	inc    rsi
    2eb7:	48 ff c6             	inc    rsi
    2eba:	48 ff c6             	inc    rsi
    2ebd:	48 ff c6             	inc    rsi
    2ec0:	8a 06                	mov    al,BYTE PTR [rsi]
    2ec2:	84 c0                	test   al,al
    2ec4:	0f 84 07 00 00 00    	je     0x2ed1
    2eca:	fe 0e                	dec    BYTE PTR [rsi]
    2ecc:	e9 ef ff ff ff       	jmp    0x2ec0
    2ed1:	48 ff c6             	inc    rsi
    2ed4:	48 ff c6             	inc    rsi
    2ed7:	48 ff c6             	inc    rsi
    2eda:	e9 c5 ff ff ff       	jmp    0x2ea4
    2edf:	48 ff ce             	dec    rsi
    2ee2:	48 ff ce             	dec    rsi
    2ee5:	48 ff ce             	dec    rsi
    2ee8:	48 ff ce             	dec    rsi
    2eeb:	48 ff ce             	dec    rsi
    2eee:	48 ff ce             	dec    rsi
    2ef1:	48 ff ce             	dec    rsi
    2ef4:	48 ff ce             	dec    rsi
    2ef7:	48 ff ce             	dec    rsi
    2efa:	8a 06                	mov    al,BYTE PTR [rsi]
    2efc:	84 c0                	test   al,al
    2efe:	0f 84 20 00 00 00    	je     0x2f24
    2f04:	48 ff ce             	dec    rsi
    2f07:	48 ff ce             	dec    rsi
    2f0a:	48 ff ce             	dec    rsi
    2f0d:	48 ff ce             	dec    rsi
    2f10:	48 ff ce             	dec    rsi
    2f13:	48 ff ce             	dec    rsi
    2f16:	48 ff ce             	dec    rsi
    2f19:	48 ff ce             	dec    rsi
    2f1c:	48 ff ce             	dec    rsi
    2f1f:	e9 d6 ff ff ff       	jmp    0x2efa
    2f24:	48 ff c6             	inc    rsi
    2f27:	48 ff c6             	inc    rsi
    2f2a:	48 ff c6             	inc    rsi
    2f2d:	48 ff c6             	inc    rsi
    2f30:	fe 06                	inc    BYTE PTR [rsi]
    2f32:	48 ff c6             	inc    rsi
    2f35:	8a 06                	mov    al,BYTE PTR [rsi]
    2f37:	84 c0                	test   al,al
    2f39:	0f 84 29 00 00 00    	je     0x2f68
    2f3f:	fe 0e                	dec    BYTE PTR [rsi]
    2f41:	48 ff ce             	dec    rsi
    2f44:	fe 0e                	dec    BYTE PTR [rsi]
    2f46:	48 ff ce             	dec    rsi
    2f49:	48 ff ce             	dec    rsi
    2f4c:	48 ff ce             	dec    rsi
    2f4f:	48 ff ce             	dec    rsi
    2f52:	fe 06                	inc    BYTE PTR [rsi]
    2f54:	48 ff c6             	inc    rsi
    2f57:	48 ff c6             	inc    rsi
    2f5a:	48 ff c6             	inc    rsi
    2f5d:	48 ff c6             	inc    rsi
    2f60:	48 ff c6             	inc    rsi
    2f63:	e9 cd ff ff ff       	jmp    0x2f35
    2f68:	48 ff c6             	inc    rsi
    2f6b:	8a 06                	mov    al,BYTE PTR [rsi]
    2f6d:	84 c0                	test   al,al
    2f6f:	0f 84 9b 00 00 00    	je     0x3010
    2f75:	fe 0e                	dec    BYTE PTR [rsi]
    2f77:	48 ff ce             	dec    rsi
    2f7a:	48 ff ce             	dec    rsi
    2f7d:	48 ff ce             	dec    rsi
    2f80:	48 ff ce             	dec    rsi
    2f83:	48 ff ce             	dec    rsi
    2f86:	48 ff ce             	dec    rsi
    2f89:	8a 06                	mov    al,BYTE PTR [rsi]
    2f8b:	84 c0                	test   al,al
    2f8d:	0f 84 2b 00 00 00    	je     0x2fbe
    2f93:	fe 0e                	dec    BYTE PTR [rsi]
    2f95:	48 ff c6             	inc    rsi
    2f98:	48 ff c6             	inc    rsi
    2f9b:	48 ff c6             	inc    rsi
    2f9e:	48 ff c6             	inc    rsi
    2fa1:	48 ff c6             	inc    rsi
    2fa4:	fe 06                	inc    BYTE PTR [rsi]
    2fa6:	48 ff ce             	dec    rsi
    2fa9:	fe 06                	inc    BYTE PTR [rsi]
    2fab:	fe 06                	inc    BYTE PTR [rsi]
    2fad:	48 ff ce             	dec    rsi
    2fb0:	48 ff ce             	dec    rsi
    2fb3:	48 ff ce             	dec    rsi
    2fb6:	48 ff ce             	dec    rsi
    2fb9:	e9 cb ff ff ff       	jmp    0x2f89
    2fbe:	48 ff c6             	inc    rsi
    2fc1:	48 ff c6             	inc    rsi
    2fc4:	48 ff c6             	inc    rsi
    2fc7:	48 ff c6             	inc    rsi
    2fca:	48 ff c6             	inc    rsi
    2fcd:	8a 06                	mov    al,BYTE PTR [rsi]
    2fcf:	84 c0                	test   al,al
    2fd1:	0f 84 27 00 00 00    	je     0x2ffe
    2fd7:	fe 0e                	dec    BYTE PTR [rsi]
    2fd9:	48 ff ce             	dec    rsi
    2fdc:	48 ff ce             	dec    rsi
    2fdf:	48 ff ce             	dec    rsi
    2fe2:	48 ff ce             	dec    rsi
    2fe5:	48 ff ce             	dec    rsi
    2fe8:	fe 06                	inc    BYTE PTR [rsi]
    2fea:	48 ff c6             	inc    rsi
    2fed:	48 ff c6             	inc    rsi
    2ff0:	48 ff c6             	inc    rsi
    2ff3:	48 ff c6             	inc    rsi
    2ff6:	48 ff c6             	inc    rsi
    2ff9:	e9 cf ff ff ff       	jmp    0x2fcd
    2ffe:	48 ff ce             	dec    rsi
    3001:	fe 0e                	dec    BYTE PTR [rsi]
    3003:	48 ff c6             	inc    rsi
    3006:	fe 06                	inc    BYTE PTR [rsi]
    3008:	48 ff c6             	inc    rsi
    300b:	e9 5b ff ff ff       	jmp    0x2f6b
    3010:	48 ff ce             	dec    rsi
    3013:	8a 06                	mov    al,BYTE PTR [rsi]
    3015:	84 c0                	test   al,al
    3017:	0f 84 0f 00 00 00    	je     0x302c
    301d:	fe 0e                	dec    BYTE PTR [rsi]
    301f:	48 ff c6             	inc    rsi
    3022:	fe 06                	inc    BYTE PTR [rsi]
    3024:	48 ff ce             	dec    rsi
    3027:	e9 e7 ff ff ff       	jmp    0x3013
    302c:	48 ff ce             	dec    rsi
    302f:	48 ff ce             	dec    rsi
    3032:	48 ff ce             	dec    rsi
    3035:	48 ff ce             	dec    rsi
    3038:	48 ff ce             	dec    rsi
    303b:	8a 06                	mov    al,BYTE PTR [rsi]
    303d:	84 c0                	test   al,al
    303f:	0f 84 27 00 00 00    	je     0x306c
    3045:	fe 0e                	dec    BYTE PTR [rsi]
    3047:	48 ff c6             	inc    rsi
    304a:	48 ff c6             	inc    rsi
    304d:	48 ff c6             	inc    rsi
    3050:	48 ff c6             	inc    rsi
    3053:	48 ff c6             	inc    rsi
    3056:	fe 06                	inc    BYTE PTR [rsi]
    3058:	48 ff ce             	dec    rsi
    305b:	48 ff ce             	dec    rsi
    305e:	48 ff ce             	dec    rsi
    3061:	48 ff ce             	dec    rsi
    3064:	48 ff ce             	dec    rsi
    3067:	e9 cf ff ff ff       	jmp    0x303b
    306c:	48 ff c6             	inc    rsi
    306f:	48 ff c6             	inc    rsi
    3072:	48 ff c6             	inc    rsi
    3075:	48 ff c6             	inc    rsi
    3078:	48 ff c6             	inc    rsi
    307b:	48 ff c6             	inc    rsi
    307e:	8a 06                	mov    al,BYTE PTR [rsi]
    3080:	84 c0                	test   al,al
    3082:	0f 84 07 00 00 00    	je     0x308f
    3088:	fe 0e                	dec    BYTE PTR [rsi]
    308a:	e9 ef ff ff ff       	jmp    0x307e
    308f:	48 ff ce             	dec    rsi
    3092:	48 ff ce             	dec    rsi
    3095:	48 ff ce             	dec    rsi
    3098:	48 ff ce             	dec    rsi
    309b:	48 ff ce             	dec    rsi
    309e:	48 ff ce             	dec    rsi
    30a1:	fe 06                	inc    BYTE PTR [rsi]
    30a3:	48 ff c6             	inc    rsi
    30a6:	48 ff c6             	inc    rsi
    30a9:	48 ff c6             	inc    rsi
    30ac:	48 ff c6             	inc    rsi
    30af:	8a 06                	mov    al,BYTE PTR [rsi]
    30b1:	84 c0                	test   al,al
    30b3:	0f 84 21 00 00 00    	je     0x30da
    30b9:	fe 0e                	dec    BYTE PTR [rsi]
    30bb:	48 ff ce             	dec    rsi
    30be:	48 ff ce             	dec    rsi
    30c1:	48 ff ce             	dec    rsi
    30c4:	48 ff ce             	dec    rsi
    30c7:	fe 0e                	dec    BYTE PTR [rsi]
    30c9:	48 ff c6             	inc    rsi
    30cc:	48 ff c6             	inc    rsi
    30cf:	48 ff c6             	inc    rsi
    30d2:	48 ff c6             	inc    rsi
    30d5:	e9 d5 ff ff ff       	jmp    0x30af
    30da:	fe 06                	inc    BYTE PTR [rsi]
    30dc:	48 ff ce             	dec    rsi
    30df:	48 ff ce             	dec    rsi
    30e2:	48 ff ce             	dec    rsi
    30e5:	48 ff ce             	dec    rsi
    30e8:	8a 06                	mov    al,BYTE PTR [rsi]
    30ea:	84 c0                	test   al,al
    30ec:	0f 84 0b 0a 00 00    	je     0x3afd
    30f2:	fe 0e                	dec    BYTE PTR [rsi]
    30f4:	48 ff c6             	inc    rsi
    30f7:	48 ff c6             	inc    rsi
    30fa:	48 ff c6             	inc    rsi
    30fd:	48 ff c6             	inc    rsi
    3100:	fe 0e                	dec    BYTE PTR [rsi]
    3102:	48 ff c6             	inc    rsi
    3105:	48 ff c6             	inc    rsi
    3108:	48 ff c6             	inc    rsi
    310b:	48 ff c6             	inc    rsi
    310e:	48 ff c6             	inc    rsi
    3111:	8a 06                	mov    al,BYTE PTR [rsi]
    3113:	84 c0                	test   al,al
    3115:	0f 84 0d 03 00 00    	je     0x3428
    311b:	48 ff c6             	inc    rsi
    311e:	48 ff c6             	inc    rsi
    3121:	8a 06                	mov    al,BYTE PTR [rsi]
    3123:	84 c0                	test   al,al
    3125:	0f 84 15 00 00 00    	je     0x3140
    312b:	fe 0e                	dec    BYTE PTR [rsi]
    312d:	48 ff ce             	dec    rsi
    3130:	48 ff ce             	dec    rsi
    3133:	fe 0e                	dec    BYTE PTR [rsi]
    3135:	48 ff c6             	inc    rsi
    3138:	48 ff c6             	inc    rsi
    313b:	e9 e1 ff ff ff       	jmp    0x3121
    3140:	fe 06                	inc    BYTE PTR [rsi]
    3142:	48 ff ce             	dec    rsi
    3145:	48 ff ce             	dec    rsi
    3148:	8a 06                	mov    al,BYTE PTR [rsi]
    314a:	84 c0                	test   al,al
    314c:	0f 84 0a 01 00 00    	je     0x325c
    3152:	fe 0e                	dec    BYTE PTR [rsi]
    3154:	48 ff c6             	inc    rsi
    3157:	48 ff c6             	inc    rsi
    315a:	fe 0e                	dec    BYTE PTR [rsi]
    315c:	48 ff c6             	inc    rsi
    315f:	8a 06                	mov    al,BYTE PTR [rsi]
    3161:	84 c0                	test   al,al
    3163:	0f 84 1b 00 00 00    	je     0x3184
    3169:	fe 0e                	dec    BYTE PTR [rsi]
    316b:	48 ff ce             	dec    rsi
    316e:	48 ff ce             	dec    rsi
    3171:	48 ff ce             	dec    rsi
    3174:	fe 06                	inc    BYTE PTR [rsi]
    3176:	48 ff c6             	inc    rsi
    3179:	48 ff c6             	inc    rsi
    317c:	48 ff c6             	inc    rsi
    317f:	e9 db ff ff ff       	jmp    0x315f
    3184:	48 ff ce             	dec    rsi
    3187:	48 ff ce             	dec    rsi
    318a:	48 ff ce             	dec    rsi
    318d:	8a 06                	mov    al,BYTE PTR [rsi]
    318f:	84 c0                	test   al,al
    3191:	0f 84 c0 00 00 00    	je     0x3257
    3197:	fe 0e                	dec    BYTE PTR [rsi]
    3199:	48 ff c6             	inc    rsi
    319c:	48 ff c6             	inc    rsi
    319f:	48 ff c6             	inc    rsi
    31a2:	fe 06                	inc    BYTE PTR [rsi]
    31a4:	48 ff ce             	dec    rsi
    31a7:	48 ff ce             	dec    rsi
    31aa:	48 ff ce             	dec    rsi
    31ad:	48 ff ce             	dec    rsi
    31b0:	48 ff ce             	dec    rsi
    31b3:	48 ff ce             	dec    rsi
    31b6:	48 ff ce             	dec    rsi
    31b9:	48 ff ce             	dec    rsi
    31bc:	48 ff ce             	dec    rsi
    31bf:	48 ff ce             	dec    rsi
    31c2:	48 ff ce             	dec    rsi
    31c5:	48 ff ce             	dec    rsi
    31c8:	8a 06                	mov    al,BYTE PTR [rsi]
    31ca:	84 c0                	test   al,al
    31cc:	0f 84 20 00 00 00    	je     0x31f2
    31d2:	48 ff ce             	dec    rsi
    31d5:	48 ff ce             	dec    rsi
    31d8:	48 ff ce             	dec    rsi
    31db:	48 ff ce             	dec    rsi
    31de:	48 ff ce             	dec    rsi
    31e1:	48 ff ce             	dec    rsi
    31e4:	48 ff ce             	dec    rsi
    31e7:	48 ff ce             	dec    rsi
    31ea:	48 ff ce             	dec    rsi
    31ed:	e9 d6 ff ff ff       	jmp    0x31c8
    31f2:	48 ff c6             	inc    rsi
    31f5:	48 ff c6             	inc    rsi
    31f8:	48 ff c6             	inc    rsi
    31fb:	8a 06                	mov    al,BYTE PTR [rsi]
    31fd:	84 c0                	test   al,al
    31ff:	0f 84 07 00 00 00    	je     0x320c
    3205:	fe 0e                	dec    BYTE PTR [rsi]
    3207:	e9 ef ff ff ff       	jmp    0x31fb
    320c:	fe 06                	inc    BYTE PTR [rsi]
    320e:	48 ff c6             	inc    rsi
    3211:	48 ff c6             	inc    rsi
    3214:	48 ff c6             	inc    rsi
    3217:	48 ff c6             	inc    rsi
    321a:	48 ff c6             	inc    rsi
    321d:	48 ff c6             	inc    rsi
    3220:	8a 06                	mov    al,BYTE PTR [rsi]
    3222:	84 c0                	test   al,al
    3224:	0f 84 20 00 00 00    	je     0x324a
    322a:	48 ff c6             	inc    rsi
    322d:	48 ff c6             	inc    rsi
    3230:	48 ff c6             	inc    rsi
    3233:	48 ff c6             	inc    rsi
    3236:	48 ff c6             	inc    rsi
    3239:	48 ff c6             	inc    rsi
    323c:	48 ff c6             	inc    rsi
    323f:	48 ff c6             	inc    rsi
    3242:	48 ff c6             	inc    rsi
    3245:	e9 d6 ff ff ff       	jmp    0x3220
    324a:	48 ff c6             	inc    rsi
    324d:	fe 06                	inc    BYTE PTR [rsi]
    324f:	48 ff ce             	dec    rsi
    3252:	e9 36 ff ff ff       	jmp    0x318d
    3257:	e9 ec fe ff ff       	jmp    0x3148
    325c:	fe 06                	inc    BYTE PTR [rsi]
    325e:	48 ff c6             	inc    rsi
    3261:	48 ff c6             	inc    rsi
    3264:	48 ff c6             	inc    rsi
    3267:	8a 06                	mov    al,BYTE PTR [rsi]
    3269:	84 c0                	test   al,al
    326b:	0f 84 1b 00 00 00    	je     0x328c
    3271:	fe 0e                	dec    BYTE PTR [rsi]
    3273:	48 ff ce             	dec    rsi
    3276:	48 ff ce             	dec    rsi
    3279:	48 ff ce             	dec    rsi
    327c:	fe 0e                	dec    BYTE PTR [rsi]
    327e:	48 ff c6             	inc    rsi
    3281:	48 ff c6             	inc    rsi
    3284:	48 ff c6             	inc    rsi
    3287:	e9 db ff ff ff       	jmp    0x3267
    328c:	fe 06                	inc    BYTE PTR [rsi]
    328e:	48 ff ce             	dec    rsi
    3291:	48 ff ce             	dec    rsi
    3294:	48 ff ce             	dec    rsi
    3297:	8a 06                	mov    al,BYTE PTR [rsi]
    3299:	84 c0                	test   al,al
    329b:	0f 84 0f 01 00 00    	je     0x33b0
    32a1:	fe 0e                	dec    BYTE PTR [rsi]
    32a3:	48 ff c6             	inc    rsi
    32a6:	48 ff c6             	inc    rsi
    32a9:	48 ff c6             	inc    rsi
    32ac:	fe 0e                	dec    BYTE PTR [rsi]
    32ae:	48 ff ce             	dec    rsi
    32b1:	8a 06                	mov    al,BYTE PTR [rsi]
    32b3:	84 c0                	test   al,al
    32b5:	0f 84 15 00 00 00    	je     0x32d0
    32bb:	fe 0e                	dec    BYTE PTR [rsi]
    32bd:	48 ff ce             	dec    rsi
    32c0:	48 ff ce             	dec    rsi
    32c3:	fe 06                	inc    BYTE PTR [rsi]
    32c5:	48 ff c6             	inc    rsi
    32c8:	48 ff c6             	inc    rsi
    32cb:	e9 e1 ff ff ff       	jmp    0x32b1
    32d0:	48 ff ce             	dec    rsi
    32d3:	48 ff ce             	dec    rsi
    32d6:	8a 06                	mov    al,BYTE PTR [rsi]
    32d8:	84 c0                	test   al,al
    32da:	0f 84 cb 00 00 00    	je     0x33ab
    32e0:	fe 0e                	dec    BYTE PTR [rsi]
    32e2:	48 ff c6             	inc    rsi
    32e5:	48 ff c6             	inc    rsi
    32e8:	fe 06                	inc    BYTE PTR [rsi]
    32ea:	48 ff ce             	dec    rsi
    32ed:	48 ff ce             	dec    rsi
    32f0:	48 ff ce             	dec    rsi
    32f3:	48 ff ce             	dec    rsi
    32f6:	48 ff ce             	dec    rsi
    32f9:	48 ff ce             	dec    rsi
    32fc:	48 ff ce             	dec    rsi
    32ff:	48 ff ce             	dec    rsi
    3302:	48 ff ce             	dec    rsi
    3305:	48 ff ce             	dec    rsi
    3308:	48 ff ce             	dec    rsi
    330b:	8a 06                	mov    al,BYTE PTR [rsi]
    330d:	84 c0                	test   al,al
    330f:	0f 84 20 00 00 00    	je     0x3335
    3315:	48 ff ce             	dec    rsi
    3318:	48 ff ce             	dec    rsi
    331b:	48 ff ce             	dec    rsi
    331e:	48 ff ce             	dec    rsi
    3321:	48 ff ce             	dec    rsi
    3324:	48 ff ce             	dec    rsi
    3327:	48 ff ce             	dec    rsi
    332a:	48 ff ce             	dec    rsi
    332d:	48 ff ce             	dec    rsi
    3330:	e9 d6 ff ff ff       	jmp    0x330b
    3335:	48 ff c6             	inc    rsi
    3338:	48 ff c6             	inc    rsi
    333b:	48 ff c6             	inc    rsi
    333e:	48 ff c6             	inc    rsi
    3341:	8a 06                	mov    al,BYTE PTR [rsi]
    3343:	84 c0                	test   al,al
    3345:	0f 84 07 00 00 00    	je     0x3352
    334b:	fe 0e                	dec    BYTE PTR [rsi]
    334d:	e9 ef ff ff ff       	jmp    0x3341
    3352:	fe 06                	inc    BYTE PTR [rsi]
    3354:	48 ff c6             	inc    rsi
    3357:	48 ff c6             	inc    rsi
    335a:	48 ff c6             	inc    rsi
    335d:	48 ff c6             	inc    rsi
    3360:	48 ff c6             	inc    rsi
    3363:	8a 06                	mov    al,BYTE PTR [rsi]
    3365:	84 c0                	test   al,al
    3367:	0f 84 20 00 00 00    	je     0x338d
    336d:	48 ff c6             	inc    rsi
    3370:	48 ff c6             	inc    rsi
    3373:	48 ff c6             	inc    rsi
    3376:	48 ff c6             	inc    rsi
    3379:	48 ff c6             	inc    rsi
    337c:	48 ff c6             	inc    rsi
    337f:	48 ff c6             	inc    rsi
    3382:	48 ff c6             	inc    rsi
    3385:	48 ff c6             	inc    rsi
    3388:	e9 d6 ff ff ff       	jmp    0x3363
    338d:	48 ff c6             	inc    rsi
    3390:	8a 06                	mov    al,BYTE PTR [rsi]
    3392:	84 c0                	test   al,al
    3394:	0f 84 07 00 00 00    	je     0x33a1
    339a:	fe 0e                	dec    BYTE PTR [rsi]
    339c:	e9 ef ff ff ff       	jmp    0x3390
    33a1:	fe 06                	inc    BYTE PTR [rsi]
    33a3:	48 ff ce             	dec    rsi
    33a6:	e9 2b ff ff ff       	jmp    0x32d6
    33ab:	e9 e7 fe ff ff       	jmp    0x3297
    33b0:	fe 06                	inc    BYTE PTR [rsi]
    33b2:	48 ff c6             	inc    rsi
    33b5:	8a 06                	mov    al,BYTE PTR [rsi]
    33b7:	84 c0                	test   al,al
    33b9:	0f 84 4c 00 00 00    	je     0x340b
    33bf:	fe 0e                	dec    BYTE PTR [rsi]
    33c1:	48 ff ce             	dec    rsi
    33c4:	8a 06                	mov    al,BYTE PTR [rsi]
    33c6:	84 c0                	test   al,al
    33c8:	0f 84 20 00 00 00    	je     0x33ee
    33ce:	48 ff c6             	inc    rsi
    33d1:	48 ff c6             	inc    rsi
    33d4:	48 ff c6             	inc    rsi
    33d7:	48 ff c6             	inc    rsi
    33da:	48 ff c6             	inc    rsi
    33dd:	48 ff c6             	inc    rsi
    33e0:	48 ff c6             	inc    rsi
    33e3:	48 ff c6             	inc    rsi
    33e6:	48 ff c6             	inc    rsi
    33e9:	e9 d6 ff ff ff       	jmp    0x33c4
    33ee:	48 ff ce             	dec    rsi
    33f1:	48 ff ce             	dec    rsi
    33f4:	48 ff ce             	dec    rsi
    33f7:	48 ff ce             	dec    rsi
    33fa:	48 ff ce             	dec    rsi
    33fd:	48 ff ce             	dec    rsi
    3400:	48 ff ce             	dec    rsi
    3403:	48 ff ce             	dec    rsi
    3406:	e9 aa ff ff ff       	jmp    0x33b5
    340b:	48 ff c6             	inc    rsi
    340e:	48 ff c6             	inc    rsi
    3411:	48 ff c6             	inc    rsi
    3414:	48 ff c6             	inc    rsi
    3417:	48 ff c6             	inc    rsi
    341a:	48 ff c6             	inc    rsi
    341d:	48 ff c6             	inc    rsi
    3420:	48 ff c6             	inc    rsi
    3423:	e9 e9 fc ff ff       	jmp    0x3111
    3428:	48 ff ce             	dec    rsi
    342b:	48 ff ce             	dec    rsi
    342e:	48 ff ce             	dec    rsi
    3431:	48 ff ce             	dec    rsi
    3434:	48 ff ce             	dec    rsi
    3437:	48 ff ce             	dec    rsi
    343a:	48 ff ce             	dec    rsi
    343d:	48 ff ce             	dec    rsi
    3440:	48 ff ce             	dec    rsi
    3443:	8a 06                	mov    al,BYTE PTR [rsi]
    3445:	84 c0                	test   al,al
    3447:	0f 84 20 00 00 00    	je     0x346d
    344d:	48 ff ce             	dec    rsi
    3450:	48 ff ce             	dec    rsi
    3453:	48 ff ce             	dec    rsi
    3456:	48 ff ce             	dec    rsi
    3459:	48 ff ce             	dec    rsi
    345c:	48 ff ce             	dec    rsi
    345f:	48 ff ce             	dec    rsi
    3462:	48 ff ce             	dec    rsi
    3465:	48 ff ce             	dec    rsi
    3468:	e9 d6 ff ff ff       	jmp    0x3443
    346d:	48 ff c6             	inc    rsi
    3470:	48 ff c6             	inc    rsi
    3473:	48 ff c6             	inc    rsi
    3476:	48 ff c6             	inc    rsi
    3479:	8a 06                	mov    al,BYTE PTR [rsi]
    347b:	84 c0                	test   al,al
    347d:	0f 84 21 00 00 00    	je     0x34a4
    3483:	fe 0e                	dec    BYTE PTR [rsi]
    3485:	48 ff ce             	dec    rsi
    3488:	48 ff ce             	dec    rsi
    348b:	48 ff ce             	dec    rsi
    348e:	48 ff ce             	dec    rsi
    3491:	fe 06                	inc    BYTE PTR [rsi]
    3493:	48 ff c6             	inc    rsi
    3496:	48 ff c6             	inc    rsi
    3499:	48 ff c6             	inc    rsi
    349c:	48 ff c6             	inc    rsi
    349f:	e9 d5 ff ff ff       	jmp    0x3479
    34a4:	48 ff ce             	dec    rsi
    34a7:	48 ff ce             	dec    rsi
    34aa:	48 ff ce             	dec    rsi
    34ad:	48 ff ce             	dec    rsi
    34b0:	8a 06                	mov    al,BYTE PTR [rsi]
    34b2:	84 c0                	test   al,al
    34b4:	0f 84 09 03 00 00    	je     0x37c3
    34ba:	fe 0e                	dec    BYTE PTR [rsi]
    34bc:	48 ff c6             	inc    rsi
    34bf:	48 ff c6             	inc    rsi
    34c2:	48 ff c6             	inc    rsi
    34c5:	48 ff c6             	inc    rsi
    34c8:	fe 06                	inc    BYTE PTR [rsi]
    34ca:	48 ff c6             	inc    rsi
    34cd:	48 ff c6             	inc    rsi
    34d0:	48 ff c6             	inc    rsi
    34d3:	48 ff c6             	inc    rsi
    34d6:	48 ff c6             	inc    rsi
    34d9:	8a 06                	mov    al,BYTE PTR [rsi]
    34db:	84 c0                	test   al,al
    34dd:	0f 84 6c 00 00 00    	je     0x354f
    34e3:	48 ff c6             	inc    rsi
    34e6:	fe 06                	inc    BYTE PTR [rsi]
    34e8:	48 ff c6             	inc    rsi
    34eb:	48 ff c6             	inc    rsi
    34ee:	8a 06                	mov    al,BYTE PTR [rsi]
    34f0:	84 c0                	test   al,al
    34f2:	0f 84 15 00 00 00    	je     0x350d
    34f8:	fe 0e                	dec    BYTE PTR [rsi]
    34fa:	48 ff ce             	dec    rsi
    34fd:	48 ff ce             	dec    rsi
    3500:	fe 0e                	dec    BYTE PTR [rsi]
    3502:	48 ff c6             	inc    rsi
    3505:	48 ff c6             	inc    rsi
    3508:	e9 e1 ff ff ff       	jmp    0x34ee
    350d:	48 ff ce             	dec    rsi
    3510:	48 ff ce             	dec    rsi
    3513:	8a 06                	mov    al,BYTE PTR [rsi]
    3515:	84 c0                	test   al,al
    3517:	0f 84 15 00 00 00    	je     0x3532
    351d:	fe 0e                	dec    BYTE PTR [rsi]
    351f:	48 ff c6             	inc    rsi
    3522:	48 ff c6             	inc    rsi
    3525:	fe 06                	inc    BYTE PTR [rsi]
    3527:	48 ff ce             	dec    rsi
    352a:	48 ff ce             	dec    rsi
    352d:	e9 e1 ff ff ff       	jmp    0x3513
    3532:	48 ff c6             	inc    rsi
    3535:	48 ff c6             	inc    rsi
    3538:	48 ff c6             	inc    rsi
    353b:	48 ff c6             	inc    rsi
    353e:	48 ff c6             	inc    rsi
    3541:	48 ff c6             	inc    rsi
    3544:	48 ff c6             	inc    rsi
    3547:	48 ff c6             	inc    rsi
    354a:	e9 8a ff ff ff       	jmp    0x34d9
    354f:	48 ff ce             	dec    rsi
    3552:	48 ff ce             	dec    rsi
    3555:	48 ff ce             	dec    rsi
    3558:	48 ff ce             	dec    rsi
    355b:	48 ff ce             	dec    rsi
    355e:	48 ff ce             	dec    rsi
    3561:	48 ff ce             	dec    rsi
    3564:	48 ff ce             	dec    rsi
    3567:	fe 06                	inc    BYTE PTR [rsi]
    3569:	48 ff ce             	dec    rsi
    356c:	8a 06                	mov    al,BYTE PTR [rsi]
    356e:	84 c0                	test   al,al
    3570:	0f 84 1f 02 00 00    	je     0x3795
    3576:	48 ff c6             	inc    rsi
    3579:	8a 06                	mov    al,BYTE PTR [rsi]
    357b:	84 c0                	test   al,al
    357d:	0f 84 2a 01 00 00    	je     0x36ad
    3583:	fe 0e                	dec    BYTE PTR [rsi]
    3585:	48 ff c6             	inc    rsi
    3588:	48 ff c6             	inc    rsi
    358b:	48 ff c6             	inc    rsi
    358e:	48 ff c6             	inc    rsi
    3591:	48 ff c6             	inc    rsi
    3594:	fe 06                	inc    BYTE PTR [rsi]
    3596:	48 ff ce             	dec    rsi
    3599:	48 ff ce             	dec    rsi
    359c:	48 ff ce             	dec    rsi
    359f:	48 ff ce             	dec    rsi
    35a2:	8a 06                	mov    al,BYTE PTR [rsi]
    35a4:	84 c0                	test   al,al
    35a6:	0f 84 8a 00 00 00    	je     0x3636
    35ac:	fe 0e                	dec    BYTE PTR [rsi]
    35ae:	48 ff c6             	inc    rsi
    35b1:	48 ff c6             	inc    rsi
    35b4:	48 ff c6             	inc    rsi
    35b7:	48 ff c6             	inc    rsi
    35ba:	fe 0e                	dec    BYTE PTR [rsi]
    35bc:	48 ff ce             	dec    rsi
    35bf:	48 ff ce             	dec    rsi
    35c2:	48 ff ce             	dec    rsi
    35c5:	48 ff ce             	dec    rsi
    35c8:	48 ff ce             	dec    rsi
    35cb:	48 ff ce             	dec    rsi
    35ce:	48 ff ce             	dec    rsi
    35d1:	48 ff ce             	dec    rsi
    35d4:	48 ff ce             	dec    rsi
    35d7:	48 ff ce             	dec    rsi
    35da:	48 ff ce             	dec    rsi
    35dd:	48 ff ce             	dec    rsi
    35e0:	48 ff ce             	dec    rsi
    35e3:	48 ff ce             	dec    rsi
    35e6:	fe 06                	inc    BYTE PTR [rsi]
    35e8:	48 ff c6             	inc    rsi
    35eb:	48 ff c6             	inc    rsi
    35ee:	48 ff c6             	inc    rsi
    35f1:	48 ff c6             	inc    rsi
    35f4:	48 ff c6             	inc    rsi
    35f7:	48 ff c6             	inc    rsi
    35fa:	48 ff c6             	inc    rsi
    35fd:	48 ff c6             	inc    rsi
    3600:	48 ff c6             	inc    rsi
    3603:	48 ff c6             	inc    rsi
    3606:	48 ff c6             	inc    rsi
    3609:	8a 06                	mov    al,BYTE PTR [rsi]
    360b:	84 c0                	test   al,al
    360d:	0f 84 1b 00 00 00    	je     0x362e
    3613:	fe 0e                	dec    BYTE PTR [rsi]
    3615:	48 ff c6             	inc    rsi
    3618:	48 ff c6             	inc    rsi
    361b:	48 ff c6             	inc    rsi
    361e:	fe 06                	inc    BYTE PTR [rsi]
    3620:	48 ff ce             	dec    rsi
    3623:	48 ff ce             	dec    rsi
    3626:	48 ff ce             	dec    rsi
    3629:	e9 db ff ff ff       	jmp    0x3609
    362e:	48 ff ce             	dec    rsi
    3631:	e9 6c ff ff ff       	jmp    0x35a2
    3636:	48 ff c6             	inc    rsi
    3639:	8a 06                	mov    al,BYTE PTR [rsi]
    363b:	84 c0                	test   al,al
    363d:	0f 84 5f 00 00 00    	je     0x36a2
    3643:	fe 0e                	dec    BYTE PTR [rsi]
    3645:	48 ff c6             	inc    rsi
    3648:	48 ff c6             	inc    rsi
    364b:	48 ff c6             	inc    rsi
    364e:	fe 0e                	dec    BYTE PTR [rsi]
    3650:	48 ff ce             	dec    rsi
    3653:	48 ff ce             	dec    rsi
    3656:	48 ff ce             	dec    rsi
    3659:	48 ff ce             	dec    rsi
    365c:	48 ff ce             	dec    rsi
    365f:	48 ff ce             	dec    rsi
    3662:	48 ff ce             	dec    rsi
    3665:	48 ff ce             	dec    rsi
    3668:	48 ff ce             	dec    rsi
    366b:	48 ff ce             	dec    rsi
    366e:	48 ff ce             	dec    rsi
    3671:	48 ff ce             	dec    rsi
    3674:	48 ff ce             	dec    rsi
    3677:	48 ff ce             	dec    rsi
    367a:	fe 06                	inc    BYTE PTR [rsi]
    367c:	48 ff c6             	inc    rsi
    367f:	48 ff c6             	inc    rsi
    3682:	48 ff c6             	inc    rsi
    3685:	48 ff c6             	inc    rsi
    3688:	48 ff c6             	inc    rsi
    368b:	48 ff c6             	inc    rsi
    368e:	48 ff c6             	inc    rsi
    3691:	48 ff c6             	inc    rsi
    3694:	48 ff c6             	inc    rsi
    3697:	48 ff c6             	inc    rsi
    369a:	48 ff c6             	inc    rsi
    369d:	e9 97 ff ff ff       	jmp    0x3639
    36a2:	48 ff ce             	dec    rsi
    36a5:	48 ff ce             	dec    rsi
    36a8:	e9 cc fe ff ff       	jmp    0x3579
    36ad:	48 ff c6             	inc    rsi
    36b0:	8a 06                	mov    al,BYTE PTR [rsi]
    36b2:	84 c0                	test   al,al
    36b4:	0f 84 8a 00 00 00    	je     0x3744
    36ba:	fe 0e                	dec    BYTE PTR [rsi]
    36bc:	48 ff c6             	inc    rsi
    36bf:	48 ff c6             	inc    rsi
    36c2:	48 ff c6             	inc    rsi
    36c5:	48 ff c6             	inc    rsi
    36c8:	fe 06                	inc    BYTE PTR [rsi]
    36ca:	48 ff ce             	dec    rsi
    36cd:	48 ff ce             	dec    rsi
    36d0:	48 ff ce             	dec    rsi
    36d3:	8a 06                	mov    al,BYTE PTR [rsi]
    36d5:	84 c0                	test   al,al
    36d7:	0f 84 5f 00 00 00    	je     0x373c
    36dd:	fe 0e                	dec    BYTE PTR [rsi]
    36df:	48 ff c6             	inc    rsi
    36e2:	48 ff c6             	inc    rsi
    36e5:	48 ff c6             	inc    rsi
    36e8:	fe 0e                	dec    BYTE PTR [rsi]
    36ea:	48 ff ce             	dec    rsi
    36ed:	48 ff ce             	dec    rsi
    36f0:	48 ff ce             	dec    rsi
    36f3:	48 ff ce             	dec    rsi
    36f6:	48 ff ce             	dec    rsi
    36f9:	48 ff ce             	dec    rsi
    36fc:	48 ff ce             	dec    rsi
    36ff:	48 ff ce             	dec    rsi
    3702:	48 ff ce             	dec    rsi
    3705:	48 ff ce             	dec    rsi
    3708:	48 ff ce             	dec    rsi
    370b:	48 ff ce             	dec    rsi
    370e:	48 ff ce             	dec    rsi
    3711:	48 ff ce             	dec    rsi
    3714:	fe 06                	inc    BYTE PTR [rsi]
    3716:	48 ff c6             	inc    rsi
    3719:	48 ff c6             	inc    rsi
    371c:	48 ff c6             	inc    rsi
    371f:	48 ff c6             	inc    rsi
    3722:	48 ff c6             	inc    rsi
    3725:	48 ff c6             	inc    rsi
    3728:	48 ff c6             	inc    rsi
    372b:	48 ff c6             	inc    rsi
    372e:	48 ff c6             	inc    rsi
    3731:	48 ff c6             	inc    rsi
    3734:	48 ff c6             	inc    rsi
    3737:	e9 97 ff ff ff       	jmp    0x36d3
    373c:	48 ff ce             	dec    rsi
    373f:	e9 6c ff ff ff       	jmp    0x36b0
    3744:	48 ff c6             	inc    rsi
    3747:	8a 06                	mov    al,BYTE PTR [rsi]
    3749:	84 c0                	test   al,al
    374b:	0f 84 1b 00 00 00    	je     0x376c
    3751:	fe 0e                	dec    BYTE PTR [rsi]
    3753:	48 ff c6             	inc    rsi
    3756:	48 ff c6             	inc    rsi
    3759:	48 ff c6             	inc    rsi
    375c:	fe 06                	inc    BYTE PTR [rsi]
    375e:	48 ff ce             	dec    rsi
    3761:	48 ff ce             	dec    rsi
    3764:	48 ff ce             	dec    rsi
    3767:	e9 db ff ff ff       	jmp    0x3747
    376c:	48 ff ce             	dec    rsi
    376f:	48 ff ce             	dec    rsi
    3772:	48 ff ce             	dec    rsi
    3775:	48 ff ce             	dec    rsi
    3778:	48 ff ce             	dec    rsi
    377b:	48 ff ce             	dec    rsi
    377e:	48 ff ce             	dec    rsi
    3781:	48 ff ce             	dec    rsi
    3784:	48 ff ce             	dec    rsi
    3787:	48 ff ce             	dec    rsi
    378a:	48 ff ce             	dec    rsi
    378d:	48 ff ce             	dec    rsi
    3790:	e9 d7 fd ff ff       	jmp    0x356c
    3795:	48 ff c6             	inc    rsi
    3798:	48 ff c6             	inc    rsi
    379b:	48 ff c6             	inc    rsi
    379e:	48 ff c6             	inc    rsi
    37a1:	8a 06                	mov    al,BYTE PTR [rsi]
    37a3:	84 c0                	test   al,al
    37a5:	0f 84 07 00 00 00    	je     0x37b2
    37ab:	fe 0e                	dec    BYTE PTR [rsi]
    37ad:	e9 ef ff ff ff       	jmp    0x37a1
    37b2:	48 ff ce             	dec    rsi
    37b5:	48 ff ce             	dec    rsi
    37b8:	48 ff ce             	dec    rsi
    37bb:	48 ff ce             	dec    rsi
    37be:	e9 ed fc ff ff       	jmp    0x34b0
    37c3:	48 ff c6             	inc    rsi
    37c6:	48 ff c6             	inc    rsi
    37c9:	48 ff c6             	inc    rsi
    37cc:	8a 06                	mov    al,BYTE PTR [rsi]
    37ce:	84 c0                	test   al,al
    37d0:	0f 84 1b 00 00 00    	je     0x37f1
    37d6:	fe 0e                	dec    BYTE PTR [rsi]
    37d8:	48 ff ce             	dec    rsi
    37db:	48 ff ce             	dec    rsi
    37de:	48 ff ce             	dec    rsi
    37e1:	fe 06                	inc    BYTE PTR [rsi]
    37e3:	48 ff c6             	inc    rsi
    37e6:	48 ff c6             	inc    rsi
    37e9:	48 ff c6             	inc    rsi
    37ec:	e9 db ff ff ff       	jmp    0x37cc
    37f1:	48 ff ce             	dec    rsi
    37f4:	48 ff ce             	dec    rsi
    37f7:	48 ff ce             	dec    rsi
    37fa:	8a 06                	mov    al,BYTE PTR [rsi]
    37fc:	84 c0                	test   al,al
    37fe:	0f 84 f4 02 00 00    	je     0x3af8
    3804:	fe 0e                	dec    BYTE PTR [rsi]
    3806:	48 ff c6             	inc    rsi
    3809:	48 ff c6             	inc    rsi
    380c:	48 ff c6             	inc    rsi
    380f:	fe 06                	inc    BYTE PTR [rsi]
    3811:	48 ff c6             	inc    rsi
    3814:	48 ff c6             	inc    rsi
    3817:	48 ff c6             	inc    rsi
    381a:	48 ff c6             	inc    rsi
    381d:	48 ff c6             	inc    rsi
    3820:	48 ff c6             	inc    rsi
    3823:	8a 06                	mov    al,BYTE PTR [rsi]
    3825:	84 c0                	test   al,al
    3827:	0f 84 5a 00 00 00    	je     0x3887
    382d:	48 ff c6             	inc    rsi
    3830:	fe 06                	inc    BYTE PTR [rsi]
    3832:	48 ff c6             	inc    rsi
    3835:	8a 06                	mov    al,BYTE PTR [rsi]
    3837:	84 c0                	test   al,al
    3839:	0f 84 0f 00 00 00    	je     0x384e
    383f:	fe 0e                	dec    BYTE PTR [rsi]
    3841:	48 ff ce             	dec    rsi
    3844:	fe 0e                	dec    BYTE PTR [rsi]
    3846:	48 ff c6             	inc    rsi
    3849:	e9 e7 ff ff ff       	jmp    0x3835
    384e:	48 ff ce             	dec    rsi
    3851:	8a 06                	mov    al,BYTE PTR [rsi]
    3853:	84 c0                	test   al,al
    3855:	0f 84 0f 00 00 00    	je     0x386a
    385b:	fe 0e                	dec    BYTE PTR [rsi]
    385d:	48 ff c6             	inc    rsi
    3860:	fe 06                	inc    BYTE PTR [rsi]
    3862:	48 ff ce             	dec    rsi
    3865:	e9 e7 ff ff ff       	jmp    0x3851
    386a:	48 ff c6             	inc    rsi
    386d:	48 ff c6             	inc    rsi
    3870:	48 ff c6             	inc    rsi
    3873:	48 ff c6             	inc    rsi
    3876:	48 ff c6             	inc    rsi
    3879:	48 ff c6             	inc    rsi
    387c:	48 ff c6             	inc    rsi
    387f:	48 ff c6             	inc    rsi
    3882:	e9 9c ff ff ff       	jmp    0x3823
    3887:	48 ff ce             	dec    rsi
    388a:	48 ff ce             	dec    rsi
    388d:	48 ff ce             	dec    rsi
    3890:	48 ff ce             	dec    rsi
    3893:	48 ff ce             	dec    rsi
    3896:	48 ff ce             	dec    rsi
    3899:	48 ff ce             	dec    rsi
    389c:	48 ff ce             	dec    rsi
    389f:	fe 06                	inc    BYTE PTR [rsi]
    38a1:	48 ff ce             	dec    rsi
    38a4:	8a 06                	mov    al,BYTE PTR [rsi]
    38a6:	84 c0                	test   al,al
    38a8:	0f 84 1f 02 00 00    	je     0x3acd
    38ae:	48 ff c6             	inc    rsi
    38b1:	8a 06                	mov    al,BYTE PTR [rsi]
    38b3:	84 c0                	test   al,al
    38b5:	0f 84 24 01 00 00    	je     0x39df
    38bb:	fe 0e                	dec    BYTE PTR [rsi]
    38bd:	48 ff c6             	inc    rsi
    38c0:	48 ff c6             	inc    rsi
    38c3:	48 ff c6             	inc    rsi
    38c6:	48 ff c6             	inc    rsi
    38c9:	48 ff c6             	inc    rsi
    38cc:	fe 06                	inc    BYTE PTR [rsi]
    38ce:	48 ff ce             	dec    rsi
    38d1:	48 ff ce             	dec    rsi
    38d4:	48 ff ce             	dec    rsi
    38d7:	8a 06                	mov    al,BYTE PTR [rsi]
    38d9:	84 c0                	test   al,al
    38db:	0f 84 8a 00 00 00    	je     0x396b
    38e1:	fe 0e                	dec    BYTE PTR [rsi]
    38e3:	48 ff c6             	inc    rsi
    38e6:	48 ff c6             	inc    rsi
    38e9:	48 ff c6             	inc    rsi
    38ec:	fe 0e                	dec    BYTE PTR [rsi]
    38ee:	48 ff ce             	dec    rsi
    38f1:	48 ff ce             	dec    rsi
    38f4:	48 ff ce             	dec    rsi
    38f7:	48 ff ce             	dec    rsi
    38fa:	48 ff ce             	dec    rsi
    38fd:	48 ff ce             	dec    rsi
    3900:	48 ff ce             	dec    rsi
    3903:	48 ff ce             	dec    rsi
    3906:	48 ff ce             	dec    rsi
    3909:	48 ff ce             	dec    rsi
    390c:	48 ff ce             	dec    rsi
    390f:	48 ff ce             	dec    rsi
    3912:	48 ff ce             	dec    rsi
    3915:	48 ff ce             	dec    rsi
    3918:	fe 06                	inc    BYTE PTR [rsi]
    391a:	48 ff c6             	inc    rsi
    391d:	48 ff c6             	inc    rsi
    3920:	48 ff c6             	inc    rsi
    3923:	48 ff c6             	inc    rsi
    3926:	48 ff c6             	inc    rsi
    3929:	48 ff c6             	inc    rsi
    392c:	48 ff c6             	inc    rsi
    392f:	48 ff c6             	inc    rsi
    3932:	48 ff c6             	inc    rsi
    3935:	48 ff c6             	inc    rsi
    3938:	8a 06                	mov    al,BYTE PTR [rsi]
    393a:	84 c0                	test   al,al
    393c:	0f 84 21 00 00 00    	je     0x3963
    3942:	fe 0e                	dec    BYTE PTR [rsi]
    3944:	48 ff c6             	inc    rsi
    3947:	48 ff c6             	inc    rsi
    394a:	48 ff c6             	inc    rsi
    394d:	48 ff c6             	inc    rsi
    3950:	fe 06                	inc    BYTE PTR [rsi]
    3952:	48 ff ce             	dec    rsi
    3955:	48 ff ce             	dec    rsi
    3958:	48 ff ce             	dec    rsi
    395b:	48 ff ce             	dec    rsi
    395e:	e9 d5 ff ff ff       	jmp    0x3938
    3963:	48 ff c6             	inc    rsi
    3966:	e9 6c ff ff ff       	jmp    0x38d7
    396b:	48 ff ce             	dec    rsi
    396e:	8a 06                	mov    al,BYTE PTR [rsi]
    3970:	84 c0                	test   al,al
    3972:	0f 84 5f 00 00 00    	je     0x39d7
    3978:	fe 0e                	dec    BYTE PTR [rsi]
    397a:	48 ff c6             	inc    rsi
    397d:	48 ff c6             	inc    rsi
    3980:	48 ff c6             	inc    rsi
    3983:	48 ff c6             	inc    rsi
    3986:	fe 0e                	dec    BYTE PTR [rsi]
    3988:	48 ff ce             	dec    rsi
    398b:	48 ff ce             	dec    rsi
    398e:	48 ff ce             	dec    rsi
    3991:	48 ff ce             	dec    rsi
    3994:	48 ff ce             	dec    rsi
    3997:	48 ff ce             	dec    rsi
    399a:	48 ff ce             	dec    rsi
    399d:	48 ff ce             	dec    rsi
    39a0:	48 ff ce             	dec    rsi
    39a3:	48 ff ce             	dec    rsi
    39a6:	48 ff ce             	dec    rsi
    39a9:	48 ff ce             	dec    rsi
    39ac:	48 ff ce             	dec    rsi
    39af:	48 ff ce             	dec    rsi
    39b2:	fe 06                	inc    BYTE PTR [rsi]
    39b4:	48 ff c6             	inc    rsi
    39b7:	48 ff c6             	inc    rsi
    39ba:	48 ff c6             	inc    rsi
    39bd:	48 ff c6             	inc    rsi
    39c0:	48 ff c6             	inc    rsi
    39c3:	48 ff c6             	inc    rsi
    39c6:	48 ff c6             	inc    rsi
    39c9:	48 ff c6             	inc    rsi
    39cc:	48 ff c6             	inc    rsi
    39cf:	48 ff c6             	inc    rsi
    39d2:	e9 97 ff ff ff       	jmp    0x396e
    39d7:	48 ff ce             	dec    rsi
    39da:	e9 d2 fe ff ff       	jmp    0x38b1
    39df:	48 ff c6             	inc    rsi
    39e2:	48 ff c6             	inc    rsi
    39e5:	8a 06                	mov    al,BYTE PTR [rsi]
    39e7:	84 c0                	test   al,al
    39e9:	0f 84 8a 00 00 00    	je     0x3a79
    39ef:	fe 0e                	dec    BYTE PTR [rsi]
    39f1:	48 ff c6             	inc    rsi
    39f4:	48 ff c6             	inc    rsi
    39f7:	48 ff c6             	inc    rsi
    39fa:	fe 06                	inc    BYTE PTR [rsi]
    39fc:	48 ff ce             	dec    rsi
    39ff:	48 ff ce             	dec    rsi
    3a02:	48 ff ce             	dec    rsi
    3a05:	48 ff ce             	dec    rsi
    3a08:	8a 06                	mov    al,BYTE PTR [rsi]
    3a0a:	84 c0                	test   al,al
    3a0c:	0f 84 5f 00 00 00    	je     0x3a71
    3a12:	fe 0e                	dec    BYTE PTR [rsi]
    3a14:	48 ff c6             	inc    rsi
    3a17:	48 ff c6             	inc    rsi
    3a1a:	48 ff c6             	inc    rsi
    3a1d:	48 ff c6             	inc    rsi
    3a20:	fe 0e                	dec    BYTE PTR [rsi]
    3a22:	48 ff ce             	dec    rsi
    3a25:	48 ff ce             	dec    rsi
    3a28:	48 ff ce             	dec    rsi
    3a2b:	48 ff ce             	dec    rsi
    3a2e:	48 ff ce             	dec    rsi
    3a31:	48 ff ce             	dec    rsi
    3a34:	48 ff ce             	dec    rsi
    3a37:	48 ff ce             	dec    rsi
    3a3a:	48 ff ce             	dec    rsi
    3a3d:	48 ff ce             	dec    rsi
    3a40:	48 ff ce             	dec    rsi
    3a43:	48 ff ce             	dec    rsi
    3a46:	48 ff ce             	dec    rsi
    3a49:	48 ff ce             	dec    rsi
    3a4c:	fe 06                	inc    BYTE PTR [rsi]
    3a4e:	48 ff c6             	inc    rsi
    3a51:	48 ff c6             	inc    rsi
    3a54:	48 ff c6             	inc    rsi
    3a57:	48 ff c6             	inc    rsi
    3a5a:	48 ff c6             	inc    rsi
    3a5d:	48 ff c6             	inc    rsi
    3a60:	48 ff c6             	inc    rsi
    3a63:	48 ff c6             	inc    rsi
    3a66:	48 ff c6             	inc    rsi
    3a69:	48 ff c6             	inc    rsi
    3a6c:	e9 97 ff ff ff       	jmp    0x3a08
    3a71:	48 ff c6             	inc    rsi
    3a74:	e9 6c ff ff ff       	jmp    0x39e5
    3a79:	48 ff ce             	dec    rsi
    3a7c:	8a 06                	mov    al,BYTE PTR [rsi]
    3a7e:	84 c0                	test   al,al
    3a80:	0f 84 21 00 00 00    	je     0x3aa7
    3a86:	fe 0e                	dec    BYTE PTR [rsi]
    3a88:	48 ff c6             	inc    rsi
    3a8b:	48 ff c6             	inc    rsi
    3a8e:	48 ff c6             	inc    rsi
    3a91:	48 ff c6             	inc    rsi
    3a94:	fe 06                	inc    BYTE PTR [rsi]
    3a96:	48 ff ce             	dec    rsi
    3a99:	48 ff ce             	dec    rsi
    3a9c:	48 ff ce             	dec    rsi
    3a9f:	48 ff ce             	dec    rsi
    3aa2:	e9 d5 ff ff ff       	jmp    0x3a7c
    3aa7:	48 ff ce             	dec    rsi
    3aaa:	48 ff ce             	dec    rsi
    3aad:	48 ff ce             	dec    rsi
    3ab0:	48 ff ce             	dec    rsi
    3ab3:	48 ff ce             	dec    rsi
    3ab6:	48 ff ce             	dec    rsi
    3ab9:	48 ff ce             	dec    rsi
    3abc:	48 ff ce             	dec    rsi
    3abf:	48 ff ce             	dec    rsi
    3ac2:	48 ff ce             	dec    rsi
    3ac5:	48 ff ce             	dec    rsi
    3ac8:	e9 d7 fd ff ff       	jmp    0x38a4
    3acd:	48 ff c6             	inc    rsi
    3ad0:	48 ff c6             	inc    rsi
    3ad3:	48 ff c6             	inc    rsi
    3ad6:	48 ff c6             	inc    rsi
    3ad9:	48 ff c6             	inc    rsi
    3adc:	48 ff c6             	inc    rsi
    3adf:	fe 06                	inc    BYTE PTR [rsi]
    3ae1:	48 ff ce             	dec    rsi
    3ae4:	48 ff ce             	dec    rsi
    3ae7:	48 ff ce             	dec    rsi
    3aea:	48 ff ce             	dec    rsi
    3aed:	48 ff ce             	dec    rsi
    3af0:	48 ff ce             	dec    rsi
    3af3:	e9 02 fd ff ff       	jmp    0x37fa
    3af8:	e9 eb f5 ff ff       	jmp    0x30e8
    3afd:	48 ff c6             	inc    rsi
    3b00:	48 ff c6             	inc    rsi
    3b03:	48 ff c6             	inc    rsi
    3b06:	48 ff c6             	inc    rsi
    3b09:	8a 06                	mov    al,BYTE PTR [rsi]
    3b0b:	84 c0                	test   al,al
    3b0d:	0f 84 21 00 00 00    	je     0x3b34
    3b13:	fe 0e                	dec    BYTE PTR [rsi]
    3b15:	48 ff ce             	dec    rsi
    3b18:	48 ff ce             	dec    rsi
    3b1b:	48 ff ce             	dec    rsi
    3b1e:	48 ff ce             	dec    rsi
    3b21:	fe 06                	inc    BYTE PTR [rsi]
    3b23:	48 ff c6             	inc    rsi
    3b26:	48 ff c6             	inc    rsi
    3b29:	48 ff c6             	inc    rsi
    3b2c:	48 ff c6             	inc    rsi
    3b2f:	e9 d5 ff ff ff       	jmp    0x3b09
    3b34:	48 ff ce             	dec    rsi
    3b37:	48 ff ce             	dec    rsi
    3b3a:	48 ff ce             	dec    rsi
    3b3d:	48 ff ce             	dec    rsi
    3b40:	8a 06                	mov    al,BYTE PTR [rsi]
    3b42:	84 c0                	test   al,al
    3b44:	0f 84 92 02 00 00    	je     0x3ddc
    3b4a:	fe 0e                	dec    BYTE PTR [rsi]
    3b4c:	48 ff c6             	inc    rsi
    3b4f:	48 ff c6             	inc    rsi
    3b52:	48 ff c6             	inc    rsi
    3b55:	48 ff c6             	inc    rsi
    3b58:	fe 06                	inc    BYTE PTR [rsi]
    3b5a:	48 ff c6             	inc    rsi
    3b5d:	48 ff c6             	inc    rsi
    3b60:	48 ff c6             	inc    rsi
    3b63:	48 ff c6             	inc    rsi
    3b66:	48 ff c6             	inc    rsi
    3b69:	8a 06                	mov    al,BYTE PTR [rsi]
    3b6b:	84 c0                	test   al,al
    3b6d:	0f 84 20 00 00 00    	je     0x3b93
    3b73:	48 ff c6             	inc    rsi
    3b76:	48 ff c6             	inc    rsi
    3b79:	48 ff c6             	inc    rsi
    3b7c:	48 ff c6             	inc    rsi
    3b7f:	48 ff c6             	inc    rsi
    3b82:	48 ff c6             	inc    rsi
    3b85:	48 ff c6             	inc    rsi
    3b88:	48 ff c6             	inc    rsi
    3b8b:	48 ff c6             	inc    rsi
    3b8e:	e9 d6 ff ff ff       	jmp    0x3b69
    3b93:	48 ff ce             	dec    rsi
    3b96:	48 ff ce             	dec    rsi
    3b99:	48 ff ce             	dec    rsi
    3b9c:	48 ff ce             	dec    rsi
    3b9f:	48 ff ce             	dec    rsi
    3ba2:	48 ff ce             	dec    rsi
    3ba5:	48 ff ce             	dec    rsi
    3ba8:	48 ff ce             	dec    rsi
    3bab:	48 ff ce             	dec    rsi
    3bae:	8a 06                	mov    al,BYTE PTR [rsi]
    3bb0:	84 c0                	test   al,al
    3bb2:	0f 84 1f 02 00 00    	je     0x3dd7
    3bb8:	48 ff c6             	inc    rsi
    3bbb:	8a 06                	mov    al,BYTE PTR [rsi]
    3bbd:	84 c0                	test   al,al
    3bbf:	0f 84 2a 01 00 00    	je     0x3cef
    3bc5:	fe 0e                	dec    BYTE PTR [rsi]
    3bc7:	48 ff c6             	inc    rsi
    3bca:	48 ff c6             	inc    rsi
    3bcd:	48 ff c6             	inc    rsi
    3bd0:	48 ff c6             	inc    rsi
    3bd3:	48 ff c6             	inc    rsi
    3bd6:	fe 06                	inc    BYTE PTR [rsi]
    3bd8:	48 ff ce             	dec    rsi
    3bdb:	48 ff ce             	dec    rsi
    3bde:	48 ff ce             	dec    rsi
    3be1:	48 ff ce             	dec    rsi
    3be4:	8a 06                	mov    al,BYTE PTR [rsi]
    3be6:	84 c0                	test   al,al
    3be8:	0f 84 8a 00 00 00    	je     0x3c78
    3bee:	fe 0e                	dec    BYTE PTR [rsi]
    3bf0:	48 ff c6             	inc    rsi
    3bf3:	48 ff c6             	inc    rsi
    3bf6:	48 ff c6             	inc    rsi
    3bf9:	48 ff c6             	inc    rsi
    3bfc:	fe 0e                	dec    BYTE PTR [rsi]
    3bfe:	48 ff ce             	dec    rsi
    3c01:	48 ff ce             	dec    rsi
    3c04:	48 ff ce             	dec    rsi
    3c07:	48 ff ce             	dec    rsi
    3c0a:	48 ff ce             	dec    rsi
    3c0d:	48 ff ce             	dec    rsi
    3c10:	48 ff ce             	dec    rsi
    3c13:	48 ff ce             	dec    rsi
    3c16:	48 ff ce             	dec    rsi
    3c19:	48 ff ce             	dec    rsi
    3c1c:	48 ff ce             	dec    rsi
    3c1f:	48 ff ce             	dec    rsi
    3c22:	48 ff ce             	dec    rsi
    3c25:	48 ff ce             	dec    rsi
    3c28:	fe 06                	inc    BYTE PTR [rsi]
    3c2a:	48 ff c6             	inc    rsi
    3c2d:	48 ff c6             	inc    rsi
    3c30:	48 ff c6             	inc    rsi
    3c33:	48 ff c6             	inc    rsi
    3c36:	48 ff c6             	inc    rsi
    3c39:	48 ff c6             	inc    rsi
    3c3c:	48 ff c6             	inc    rsi
    3c3f:	48 ff c6             	inc    rsi
    3c42:	48 ff c6             	inc    rsi
    3c45:	48 ff c6             	inc    rsi
    3c48:	48 ff c6             	inc    rsi
    3c4b:	8a 06                	mov    al,BYTE PTR [rsi]
    3c4d:	84 c0                	test   al,al
    3c4f:	0f 84 1b 00 00 00    	je     0x3c70
    3c55:	fe 0e                	dec    BYTE PTR [rsi]
    3c57:	48 ff c6             	inc    rsi
    3c5a:	48 ff c6             	inc    rsi
    3c5d:	48 ff c6             	inc    rsi
    3c60:	fe 06                	inc    BYTE PTR [rsi]
    3c62:	48 ff ce             	dec    rsi
    3c65:	48 ff ce             	dec    rsi
    3c68:	48 ff ce             	dec    rsi
    3c6b:	e9 db ff ff ff       	jmp    0x3c4b
    3c70:	48 ff ce             	dec    rsi
    3c73:	e9 6c ff ff ff       	jmp    0x3be4
    3c78:	48 ff c6             	inc    rsi
    3c7b:	8a 06                	mov    al,BYTE PTR [rsi]
    3c7d:	84 c0                	test   al,al
    3c7f:	0f 84 5f 00 00 00    	je     0x3ce4
    3c85:	fe 0e                	dec    BYTE PTR [rsi]
    3c87:	48 ff c6             	inc    rsi
    3c8a:	48 ff c6             	inc    rsi
    3c8d:	48 ff c6             	inc    rsi
    3c90:	fe 0e                	dec    BYTE PTR [rsi]
    3c92:	48 ff ce             	dec    rsi
    3c95:	48 ff ce             	dec    rsi
    3c98:	48 ff ce             	dec    rsi
    3c9b:	48 ff ce             	dec    rsi
    3c9e:	48 ff ce             	dec    rsi
    3ca1:	48 ff ce             	dec    rsi
    3ca4:	48 ff ce             	dec    rsi
    3ca7:	48 ff ce             	dec    rsi
    3caa:	48 ff ce             	dec    rsi
    3cad:	48 ff ce             	dec    rsi
    3cb0:	48 ff ce             	dec    rsi
    3cb3:	48 ff ce             	dec    rsi
    3cb6:	48 ff ce             	dec    rsi
    3cb9:	48 ff ce             	dec    rsi
    3cbc:	fe 06                	inc    BYTE PTR [rsi]
    3cbe:	48 ff c6             	inc    rsi
    3cc1:	48 ff c6             	inc    rsi
    3cc4:	48 ff c6             	inc    rsi
    3cc7:	48 ff c6             	inc    rsi
    3cca:	48 ff c6             	inc    rsi
    3ccd:	48 ff c6             	inc    rsi
    3cd0:	48 ff c6             	inc    rsi
    3cd3:	48 ff c6             	inc    rsi
    3cd6:	48 ff c6             	inc    rsi
    3cd9:	48 ff c6             	inc    rsi
    3cdc:	48 ff c6             	inc    rsi
    3cdf:	e9 97 ff ff ff       	jmp    0x3c7b
    3ce4:	48 ff ce             	dec    rsi
    3ce7:	48 ff ce             	dec    rsi
    3cea:	e9 cc fe ff ff       	jmp    0x3bbb
    3cef:	48 ff c6             	inc    rsi
    3cf2:	8a 06                	mov    al,BYTE PTR [rsi]
    3cf4:	84 c0                	test   al,al
    3cf6:	0f 84 8a 00 00 00    	je     0x3d86
    3cfc:	fe 0e                	dec    BYTE PTR [rsi]
    3cfe:	48 ff c6             	inc    rsi
    3d01:	48 ff c6             	inc    rsi
    3d04:	48 ff c6             	inc    rsi
    3d07:	48 ff c6             	inc    rsi
    3d0a:	fe 06                	inc    BYTE PTR [rsi]
    3d0c:	48 ff ce             	dec    rsi
    3d0f:	48 ff ce             	dec    rsi
    3d12:	48 ff ce             	dec    rsi
    3d15:	8a 06                	mov    al,BYTE PTR [rsi]
    3d17:	84 c0                	test   al,al
    3d19:	0f 84 5f 00 00 00    	je     0x3d7e
    3d1f:	fe 0e                	dec    BYTE PTR [rsi]
    3d21:	48 ff c6             	inc    rsi
    3d24:	48 ff c6             	inc    rsi
    3d27:	48 ff c6             	inc    rsi
    3d2a:	fe 0e                	dec    BYTE PTR [rsi]
    3d2c:	48 ff ce             	dec    rsi
    3d2f:	48 ff ce             	dec    rsi
    3d32:	48 ff ce             	dec    rsi
    3d35:	48 ff ce             	dec    rsi
    3d38:	48 ff ce             	dec    rsi
    3d3b:	48 ff ce             	dec    rsi
    3d3e:	48 ff ce             	dec    rsi
    3d41:	48 ff ce             	dec    rsi
    3d44:	48 ff ce             	dec    rsi
    3d47:	48 ff ce             	dec    rsi
    3d4a:	48 ff ce             	dec    rsi
    3d4d:	48 ff ce             	dec    rsi
    3d50:	48 ff ce             	dec    rsi
    3d53:	48 ff ce             	dec    rsi
    3d56:	fe 06                	inc    BYTE PTR [rsi]
    3d58:	48 ff c6             	inc    rsi
    3d5b:	48 ff c6             	inc    rsi
    3d5e:	48 ff c6             	inc    rsi
    3d61:	48 ff c6             	inc    rsi
    3d64:	48 ff c6             	inc    rsi
    3d67:	48 ff c6             	inc    rsi
    3d6a:	48 ff c6             	inc    rsi
    3d6d:	48 ff c6             	inc    rsi
    3d70:	48 ff c6             	inc    rsi
    3d73:	48 ff c6             	inc    rsi
    3d76:	48 ff c6             	inc    rsi
    3d79:	e9 97 ff ff ff       	jmp    0x3d15
    3d7e:	48 ff ce             	dec    rsi
    3d81:	e9 6c ff ff ff       	jmp    0x3cf2
    3d86:	48 ff c6             	inc    rsi
    3d89:	8a 06                	mov    al,BYTE PTR [rsi]
    3d8b:	84 c0                	test   al,al
    3d8d:	0f 84 1b 00 00 00    	je     0x3dae
    3d93:	fe 0e                	dec    BYTE PTR [rsi]
    3d95:	48 ff c6             	inc    rsi
    3d98:	48 ff c6             	inc    rsi
    3d9b:	48 ff c6             	inc    rsi
    3d9e:	fe 06                	inc    BYTE PTR [rsi]
    3da0:	48 ff ce             	dec    rsi
    3da3:	48 ff ce             	dec    rsi
    3da6:	48 ff ce             	dec    rsi
    3da9:	e9 db ff ff ff       	jmp    0x3d89
    3dae:	48 ff ce             	dec    rsi
    3db1:	48 ff ce             	dec    rsi
    3db4:	48 ff ce             	dec    rsi
    3db7:	48 ff ce             	dec    rsi
    3dba:	48 ff ce             	dec    rsi
    3dbd:	48 ff ce             	dec    rsi
    3dc0:	48 ff ce             	dec    rsi
    3dc3:	48 ff ce             	dec    rsi
    3dc6:	48 ff ce             	dec    rsi
    3dc9:	48 ff ce             	dec    rsi
    3dcc:	48 ff ce             	dec    rsi
    3dcf:	48 ff ce             	dec    rsi
    3dd2:	e9 d7 fd ff ff       	jmp    0x3bae
    3dd7:	e9 64 fd ff ff       	jmp    0x3b40
    3ddc:	48 ff c6             	inc    rsi
    3ddf:	8a 06                	mov    al,BYTE PTR [rsi]
    3de1:	84 c0                	test   al,al
    3de3:	0f 84 07 00 00 00    	je     0x3df0
    3de9:	fe 0e                	dec    BYTE PTR [rsi]
    3deb:	e9 ef ff ff ff       	jmp    0x3ddf
    3df0:	48 ff c6             	inc    rsi
    3df3:	48 ff c6             	inc    rsi
    3df6:	8a 06                	mov    al,BYTE PTR [rsi]
    3df8:	84 c0                	test   al,al
    3dfa:	0f 84 07 00 00 00    	je     0x3e07
    3e00:	fe 0e                	dec    BYTE PTR [rsi]
    3e02:	e9 ef ff ff ff       	jmp    0x3df6
    3e07:	48 ff c6             	inc    rsi
    3e0a:	8a 06                	mov    al,BYTE PTR [rsi]
    3e0c:	84 c0                	test   al,al
    3e0e:	0f 84 07 00 00 00    	je     0x3e1b
    3e14:	fe 0e                	dec    BYTE PTR [rsi]
    3e16:	e9 ef ff ff ff       	jmp    0x3e0a
    3e1b:	48 ff c6             	inc    rsi
    3e1e:	48 ff c6             	inc    rsi
    3e21:	48 ff c6             	inc    rsi
    3e24:	48 ff c6             	inc    rsi
    3e27:	48 ff c6             	inc    rsi
    3e2a:	8a 06                	mov    al,BYTE PTR [rsi]
    3e2c:	84 c0                	test   al,al
    3e2e:	0f 84 42 00 00 00    	je     0x3e76
    3e34:	48 ff c6             	inc    rsi
    3e37:	48 ff c6             	inc    rsi
    3e3a:	8a 06                	mov    al,BYTE PTR [rsi]
    3e3c:	84 c0                	test   al,al
    3e3e:	0f 84 07 00 00 00    	je     0x3e4b
    3e44:	fe 0e                	dec    BYTE PTR [rsi]
    3e46:	e9 ef ff ff ff       	jmp    0x3e3a
    3e4b:	48 ff c6             	inc    rsi
    3e4e:	8a 06                	mov    al,BYTE PTR [rsi]
    3e50:	84 c0                	test   al,al
    3e52:	0f 84 07 00 00 00    	je     0x3e5f
    3e58:	fe 0e                	dec    BYTE PTR [rsi]
    3e5a:	e9 ef ff ff ff       	jmp    0x3e4e
    3e5f:	48 ff c6             	inc    rsi
    3e62:	48 ff c6             	inc    rsi
    3e65:	48 ff c6             	inc    rsi
    3e68:	48 ff c6             	inc    rsi
    3e6b:	48 ff c6             	inc    rsi
    3e6e:	48 ff c6             	inc    rsi
    3e71:	e9 b4 ff ff ff       	jmp    0x3e2a
    3e76:	48 ff ce             	dec    rsi
    3e79:	48 ff ce             	dec    rsi
    3e7c:	48 ff ce             	dec    rsi
    3e7f:	48 ff ce             	dec    rsi
    3e82:	48 ff ce             	dec    rsi
    3e85:	48 ff ce             	dec    rsi
    3e88:	48 ff ce             	dec    rsi
    3e8b:	48 ff ce             	dec    rsi
    3e8e:	48 ff ce             	dec    rsi
    3e91:	8a 06                	mov    al,BYTE PTR [rsi]
    3e93:	84 c0                	test   al,al
    3e95:	0f 84 20 00 00 00    	je     0x3ebb
    3e9b:	48 ff ce             	dec    rsi
    3e9e:	48 ff ce             	dec    rsi
    3ea1:	48 ff ce             	dec    rsi
    3ea4:	48 ff ce             	dec    rsi
    3ea7:	48 ff ce             	dec    rsi
    3eaa:	48 ff ce             	dec    rsi
    3ead:	48 ff ce             	dec    rsi
    3eb0:	48 ff ce             	dec    rsi
    3eb3:	48 ff ce             	dec    rsi
    3eb6:	e9 d6 ff ff ff       	jmp    0x3e91
    3ebb:	48 ff c6             	inc    rsi
    3ebe:	48 ff c6             	inc    rsi
    3ec1:	48 ff c6             	inc    rsi
    3ec4:	48 ff c6             	inc    rsi
    3ec7:	48 ff c6             	inc    rsi
    3eca:	48 ff c6             	inc    rsi
    3ecd:	48 ff c6             	inc    rsi
    3ed0:	48 ff c6             	inc    rsi
    3ed3:	48 ff c6             	inc    rsi
    3ed6:	8a 06                	mov    al,BYTE PTR [rsi]
    3ed8:	84 c0                	test   al,al
    3eda:	0f 84 90 00 00 00    	je     0x3f70
    3ee0:	48 ff c6             	inc    rsi
    3ee3:	48 ff c6             	inc    rsi
    3ee6:	48 ff c6             	inc    rsi
    3ee9:	48 ff c6             	inc    rsi
    3eec:	48 ff c6             	inc    rsi
    3eef:	8a 06                	mov    al,BYTE PTR [rsi]
    3ef1:	84 c0                	test   al,al
    3ef3:	0f 84 21 00 00 00    	je     0x3f1a
    3ef9:	fe 0e                	dec    BYTE PTR [rsi]
    3efb:	48 ff ce             	dec    rsi
    3efe:	48 ff ce             	dec    rsi
    3f01:	48 ff ce             	dec    rsi
    3f04:	48 ff ce             	dec    rsi
    3f07:	fe 06                	inc    BYTE PTR [rsi]
    3f09:	48 ff c6             	inc    rsi
    3f0c:	48 ff c6             	inc    rsi
    3f0f:	48 ff c6             	inc    rsi
    3f12:	48 ff c6             	inc    rsi
    3f15:	e9 d5 ff ff ff       	jmp    0x3eef
    3f1a:	48 ff ce             	dec    rsi
    3f1d:	48 ff ce             	dec    rsi
    3f20:	48 ff ce             	dec    rsi
    3f23:	48 ff ce             	dec    rsi
    3f26:	8a 06                	mov    al,BYTE PTR [rsi]
    3f28:	84 c0                	test   al,al
    3f2a:	0f 84 23 00 00 00    	je     0x3f53
    3f30:	fe 0e                	dec    BYTE PTR [rsi]
    3f32:	48 ff c6             	inc    rsi
    3f35:	48 ff c6             	inc    rsi
    3f38:	48 ff c6             	inc    rsi
    3f3b:	48 ff c6             	inc    rsi
    3f3e:	fe 06                	inc    BYTE PTR [rsi]
    3f40:	48 ff ce             	dec    rsi
    3f43:	48 ff ce             	dec    rsi
    3f46:	48 ff ce             	dec    rsi
    3f49:	fe 06                	inc    BYTE PTR [rsi]
    3f4b:	48 ff ce             	dec    rsi
    3f4e:	e9 d3 ff ff ff       	jmp    0x3f26
    3f53:	48 ff c6             	inc    rsi
    3f56:	48 ff c6             	inc    rsi
    3f59:	48 ff c6             	inc    rsi
    3f5c:	48 ff c6             	inc    rsi
    3f5f:	48 ff c6             	inc    rsi
    3f62:	48 ff c6             	inc    rsi
    3f65:	48 ff c6             	inc    rsi
    3f68:	48 ff c6             	inc    rsi
    3f6b:	e9 66 ff ff ff       	jmp    0x3ed6
    3f70:	48 ff ce             	dec    rsi
    3f73:	48 ff ce             	dec    rsi
    3f76:	48 ff ce             	dec    rsi
    3f79:	48 ff ce             	dec    rsi
    3f7c:	48 ff ce             	dec    rsi
    3f7f:	48 ff ce             	dec    rsi
    3f82:	48 ff ce             	dec    rsi
    3f85:	48 ff ce             	dec    rsi
    3f88:	48 ff ce             	dec    rsi
    3f8b:	8a 06                	mov    al,BYTE PTR [rsi]
    3f8d:	84 c0                	test   al,al
    3f8f:	0f 84 20 00 00 00    	je     0x3fb5
    3f95:	48 ff ce             	dec    rsi
    3f98:	48 ff ce             	dec    rsi
    3f9b:	48 ff ce             	dec    rsi
    3f9e:	48 ff ce             	dec    rsi
    3fa1:	48 ff ce             	dec    rsi
    3fa4:	48 ff ce             	dec    rsi
    3fa7:	48 ff ce             	dec    rsi
    3faa:	48 ff ce             	dec    rsi
    3fad:	48 ff ce             	dec    rsi
    3fb0:	e9 d6 ff ff ff       	jmp    0x3f8b
    3fb5:	48 ff c6             	inc    rsi
    3fb8:	48 ff c6             	inc    rsi
    3fbb:	48 ff c6             	inc    rsi
    3fbe:	48 ff c6             	inc    rsi
    3fc1:	48 ff c6             	inc    rsi
    3fc4:	48 ff c6             	inc    rsi
    3fc7:	48 ff c6             	inc    rsi
    3fca:	48 ff c6             	inc    rsi
    3fcd:	48 ff c6             	inc    rsi
    3fd0:	fe 06                	inc    BYTE PTR [rsi]
    3fd2:	fe 06                	inc    BYTE PTR [rsi]
    3fd4:	fe 06                	inc    BYTE PTR [rsi]
    3fd6:	fe 06                	inc    BYTE PTR [rsi]
    3fd8:	fe 06                	inc    BYTE PTR [rsi]
    3fda:	fe 06                	inc    BYTE PTR [rsi]
    3fdc:	fe 06                	inc    BYTE PTR [rsi]
    3fde:	fe 06                	inc    BYTE PTR [rsi]
    3fe0:	fe 06                	inc    BYTE PTR [rsi]
    3fe2:	fe 06                	inc    BYTE PTR [rsi]
    3fe4:	fe 06                	inc    BYTE PTR [rsi]
    3fe6:	fe 06                	inc    BYTE PTR [rsi]
    3fe8:	fe 06                	inc    BYTE PTR [rsi]
    3fea:	fe 06                	inc    BYTE PTR [rsi]
    3fec:	fe 06                	inc    BYTE PTR [rsi]
    3fee:	8a 06                	mov    al,BYTE PTR [rsi]
    3ff0:	84 c0                	test   al,al
    3ff2:	0f 84 47 01 00 00    	je     0x413f
    3ff8:	8a 06                	mov    al,BYTE PTR [rsi]
    3ffa:	84 c0                	test   al,al
    3ffc:	0f 84 20 00 00 00    	je     0x4022
    4002:	48 ff c6             	inc    rsi
    4005:	48 ff c6             	inc    rsi
    4008:	48 ff c6             	inc    rsi
    400b:	48 ff c6             	inc    rsi
    400e:	48 ff c6             	inc    rsi
    4011:	48 ff c6             	inc    rsi
    4014:	48 ff c6             	inc    rsi
    4017:	48 ff c6             	inc    rsi
    401a:	48 ff c6             	inc    rsi
    401d:	e9 d6 ff ff ff       	jmp    0x3ff8
    4022:	fe 06                	inc    BYTE PTR [rsi]
    4024:	48 ff c6             	inc    rsi
    4027:	8a 06                	mov    al,BYTE PTR [rsi]
    4029:	84 c0                	test   al,al
    402b:	0f 84 07 00 00 00    	je     0x4038
    4031:	fe 0e                	dec    BYTE PTR [rsi]
    4033:	e9 ef ff ff ff       	jmp    0x4027
    4038:	48 ff c6             	inc    rsi
    403b:	8a 06                	mov    al,BYTE PTR [rsi]
    403d:	84 c0                	test   al,al
    403f:	0f 84 07 00 00 00    	je     0x404c
    4045:	fe 0e                	dec    BYTE PTR [rsi]
    4047:	e9 ef ff ff ff       	jmp    0x403b
    404c:	48 ff c6             	inc    rsi
    404f:	8a 06                	mov    al,BYTE PTR [rsi]
    4051:	84 c0                	test   al,al
    4053:	0f 84 07 00 00 00    	je     0x4060
    4059:	fe 0e                	dec    BYTE PTR [rsi]
    405b:	e9 ef ff ff ff       	jmp    0x404f
    4060:	48 ff c6             	inc    rsi
    4063:	8a 06                	mov    al,BYTE PTR [rsi]
    4065:	84 c0                	test   al,al
    4067:	0f 84 07 00 00 00    	je     0x4074
    406d:	fe 0e                	dec    BYTE PTR [rsi]
    406f:	e9 ef ff ff ff       	jmp    0x4063
    4074:	48 ff c6             	inc    rsi
    4077:	8a 06                	mov    al,BYTE PTR [rsi]
    4079:	84 c0                	test   al,al
    407b:	0f 84 07 00 00 00    	je     0x4088
    4081:	fe 0e                	dec    BYTE PTR [rsi]
    4083:	e9 ef ff ff ff       	jmp    0x4077
    4088:	48 ff c6             	inc    rsi
    408b:	8a 06                	mov    al,BYTE PTR [rsi]
    408d:	84 c0                	test   al,al
    408f:	0f 84 07 00 00 00    	je     0x409c
    4095:	fe 0e                	dec    BYTE PTR [rsi]
    4097:	e9 ef ff ff ff       	jmp    0x408b
    409c:	48 ff c6             	inc    rsi
    409f:	8a 06                	mov    al,BYTE PTR [rsi]
    40a1:	84 c0                	test   al,al
    40a3:	0f 84 07 00 00 00    	je     0x40b0
    40a9:	fe 0e                	dec    BYTE PTR [rsi]
    40ab:	e9 ef ff ff ff       	jmp    0x409f
    40b0:	48 ff c6             	inc    rsi
    40b3:	8a 06                	mov    al,BYTE PTR [rsi]
    40b5:	84 c0                	test   al,al
    40b7:	0f 84 07 00 00 00    	je     0x40c4
    40bd:	fe 0e                	dec    BYTE PTR [rsi]
    40bf:	e9 ef ff ff ff       	jmp    0x40b3
    40c4:	48 ff c6             	inc    rsi
    40c7:	8a 06                	mov    al,BYTE PTR [rsi]
    40c9:	84 c0                	test   al,al
    40cb:	0f 84 07 00 00 00    	je     0x40d8
    40d1:	fe 0e                	dec    BYTE PTR [rsi]
    40d3:	e9 ef ff ff ff       	jmp    0x40c7
    40d8:	48 ff ce             	dec    rsi
    40db:	48 ff ce             	dec    rsi
    40de:	48 ff ce             	dec    rsi
    40e1:	48 ff ce             	dec    rsi
    40e4:	48 ff ce             	dec    rsi
    40e7:	48 ff ce             	dec    rsi
    40ea:	48 ff ce             	dec    rsi
    40ed:	48 ff ce             	dec    rsi
    40f0:	48 ff ce             	dec    rsi
    40f3:	8a 06                	mov    al,BYTE PTR [rsi]
    40f5:	84 c0                	test   al,al
    40f7:	0f 84 20 00 00 00    	je     0x411d
    40fd:	48 ff ce             	dec    rsi
    4100:	48 ff ce             	dec    rsi
    4103:	48 ff ce             	dec    rsi
    4106:	48 ff ce             	dec    rsi
    4109:	48 ff ce             	dec    rsi
    410c:	48 ff ce             	dec    rsi
    410f:	48 ff ce             	dec    rsi
    4112:	48 ff ce             	dec    rsi
    4115:	48 ff ce             	dec    rsi
    4118:	e9 d6 ff ff ff       	jmp    0x40f3
    411d:	48 ff c6             	inc    rsi
    4120:	48 ff c6             	inc    rsi
    4123:	48 ff c6             	inc    rsi
    4126:	48 ff c6             	inc    rsi
    4129:	48 ff c6             	inc    rsi
    412c:	48 ff c6             	inc    rsi
    412f:	48 ff c6             	inc    rsi
    4132:	48 ff c6             	inc    rsi
    4135:	48 ff c6             	inc    rsi
    4138:	fe 0e                	dec    BYTE PTR [rsi]
    413a:	e9 af fe ff ff       	jmp    0x3fee
    413f:	fe 06                	inc    BYTE PTR [rsi]
    4141:	8a 06                	mov    al,BYTE PTR [rsi]
    4143:	84 c0                	test   al,al
    4145:	0f 84 22 00 00 00    	je     0x416d
    414b:	48 ff c6             	inc    rsi
    414e:	fe 06                	inc    BYTE PTR [rsi]
    4150:	48 ff c6             	inc    rsi
    4153:	48 ff c6             	inc    rsi
    4156:	48 ff c6             	inc    rsi
    4159:	48 ff c6             	inc    rsi
    415c:	48 ff c6             	inc    rsi
    415f:	48 ff c6             	inc    rsi
    4162:	48 ff c6             	inc    rsi
    4165:	48 ff c6             	inc    rsi
    4168:	e9 d4 ff ff ff       	jmp    0x4141
    416d:	48 ff ce             	dec    rsi
    4170:	48 ff ce             	dec    rsi
    4173:	48 ff ce             	dec    rsi
    4176:	48 ff ce             	dec    rsi
    4179:	48 ff ce             	dec    rsi
    417c:	48 ff ce             	dec    rsi
    417f:	48 ff ce             	dec    rsi
    4182:	48 ff ce             	dec    rsi
    4185:	48 ff ce             	dec    rsi
    4188:	8a 06                	mov    al,BYTE PTR [rsi]
    418a:	84 c0                	test   al,al
    418c:	0f 84 20 00 00 00    	je     0x41b2
    4192:	48 ff ce             	dec    rsi
    4195:	48 ff ce             	dec    rsi
    4198:	48 ff ce             	dec    rsi
    419b:	48 ff ce             	dec    rsi
    419e:	48 ff ce             	dec    rsi
    41a1:	48 ff ce             	dec    rsi
    41a4:	48 ff ce             	dec    rsi
    41a7:	48 ff ce             	dec    rsi
    41aa:	48 ff ce             	dec    rsi
    41ad:	e9 d6 ff ff ff       	jmp    0x4188
    41b2:	48 ff c6             	inc    rsi
    41b5:	48 ff c6             	inc    rsi
    41b8:	48 ff c6             	inc    rsi
    41bb:	48 ff c6             	inc    rsi
    41be:	48 ff c6             	inc    rsi
    41c1:	48 ff c6             	inc    rsi
    41c4:	48 ff c6             	inc    rsi
    41c7:	48 ff c6             	inc    rsi
    41ca:	48 ff c6             	inc    rsi
    41cd:	8a 06                	mov    al,BYTE PTR [rsi]
    41cf:	84 c0                	test   al,al
    41d1:	0f 84 7f 02 00 00    	je     0x4456
    41d7:	48 ff c6             	inc    rsi
    41da:	fe 0e                	dec    BYTE PTR [rsi]
    41dc:	48 ff c6             	inc    rsi
    41df:	48 ff c6             	inc    rsi
    41e2:	48 ff c6             	inc    rsi
    41e5:	48 ff c6             	inc    rsi
    41e8:	8a 06                	mov    al,BYTE PTR [rsi]
    41ea:	84 c0                	test   al,al
    41ec:	0f 84 21 00 00 00    	je     0x4213
    41f2:	fe 0e                	dec    BYTE PTR [rsi]
    41f4:	48 ff ce             	dec    rsi
    41f7:	48 ff ce             	dec    rsi
    41fa:	48 ff ce             	dec    rsi
    41fd:	48 ff ce             	dec    rsi
    4200:	fe 06                	inc    BYTE PTR [rsi]
    4202:	48 ff c6             	inc    rsi
    4205:	48 ff c6             	inc    rsi
    4208:	48 ff c6             	inc    rsi
    420b:	48 ff c6             	inc    rsi
    420e:	e9 d5 ff ff ff       	jmp    0x41e8
    4213:	48 ff ce             	dec    rsi
    4216:	48 ff ce             	dec    rsi
    4219:	48 ff ce             	dec    rsi
    421c:	48 ff ce             	dec    rsi
    421f:	8a 06                	mov    al,BYTE PTR [rsi]
    4221:	84 c0                	test   al,al
    4223:	0f 84 e6 00 00 00    	je     0x430f
    4229:	fe 0e                	dec    BYTE PTR [rsi]
    422b:	48 ff c6             	inc    rsi
    422e:	48 ff c6             	inc    rsi
    4231:	48 ff c6             	inc    rsi
    4234:	48 ff c6             	inc    rsi
    4237:	fe 06                	inc    BYTE PTR [rsi]
    4239:	48 ff ce             	dec    rsi
    423c:	48 ff ce             	dec    rsi
    423f:	48 ff ce             	dec    rsi
    4242:	48 ff ce             	dec    rsi
    4245:	48 ff ce             	dec    rsi
    4248:	8a 06                	mov    al,BYTE PTR [rsi]
    424a:	84 c0                	test   al,al
    424c:	0f 84 76 00 00 00    	je     0x42c8
    4252:	fe 0e                	dec    BYTE PTR [rsi]
    4254:	48 ff c6             	inc    rsi
    4257:	48 ff c6             	inc    rsi
    425a:	8a 06                	mov    al,BYTE PTR [rsi]
    425c:	84 c0                	test   al,al
    425e:	0f 84 15 00 00 00    	je     0x4279
    4264:	fe 0e                	dec    BYTE PTR [rsi]
    4266:	48 ff ce             	dec    rsi
    4269:	48 ff ce             	dec    rsi
    426c:	fe 06                	inc    BYTE PTR [rsi]
    426e:	48 ff c6             	inc    rsi
    4271:	48 ff c6             	inc    rsi
    4274:	e9 e1 ff ff ff       	jmp    0x425a
    4279:	48 ff ce             	dec    rsi
    427c:	48 ff ce             	dec    rsi
    427f:	8a 06                	mov    al,BYTE PTR [rsi]
    4281:	84 c0                	test   al,al
    4283:	0f 84 1d 00 00 00    	je     0x42a6
    4289:	fe 0e                	dec    BYTE PTR [rsi]
    428b:	48 ff c6             	inc    rsi
    428e:	48 ff c6             	inc    rsi
    4291:	fe 06                	inc    BYTE PTR [rsi]
    4293:	48 ff c6             	inc    rsi
    4296:	fe 06                	inc    BYTE PTR [rsi]
    4298:	48 ff ce             	dec    rsi
    429b:	48 ff ce             	dec    rsi
    429e:	48 ff ce             	dec    rsi
    42a1:	e9 d9 ff ff ff       	jmp    0x427f
    42a6:	fe 06                	inc    BYTE PTR [rsi]
    42a8:	48 ff c6             	inc    rsi
    42ab:	48 ff c6             	inc    rsi
    42ae:	48 ff c6             	inc    rsi
    42b1:	48 ff c6             	inc    rsi
    42b4:	48 ff c6             	inc    rsi
    42b7:	48 ff c6             	inc    rsi
    42ba:	48 ff c6             	inc    rsi
    42bd:	48 ff c6             	inc    rsi
    42c0:	48 ff c6             	inc    rsi
    42c3:	e9 80 ff ff ff       	jmp    0x4248
    42c8:	48 ff ce             	dec    rsi
    42cb:	48 ff ce             	dec    rsi
    42ce:	48 ff ce             	dec    rsi
    42d1:	48 ff ce             	dec    rsi
    42d4:	48 ff ce             	dec    rsi
    42d7:	48 ff ce             	dec    rsi
    42da:	48 ff ce             	dec    rsi
    42dd:	48 ff ce             	dec    rsi
    42e0:	8a 06                	mov    al,BYTE PTR [rsi]
    42e2:	84 c0                	test   al,al
    42e4:	0f 84 20 00 00 00    	je     0x430a
    42ea:	48 ff ce             	dec    rsi
    42ed:	48 ff ce             	dec    rsi
    42f0:	48 ff ce             	dec    rsi
    42f3:	48 ff ce             	dec    rsi
    42f6:	48 ff ce             	dec    rsi
    42f9:	48 ff ce             	dec    rsi
    42fc:	48 ff ce             	dec    rsi
    42ff:	48 ff ce             	dec    rsi
    4302:	48 ff ce             	dec    rsi
    4305:	e9 d6 ff ff ff       	jmp    0x42e0
    430a:	e9 10 ff ff ff       	jmp    0x421f
    430f:	48 ff c6             	inc    rsi
    4312:	48 ff c6             	inc    rsi
    4315:	48 ff c6             	inc    rsi
    4318:	48 ff c6             	inc    rsi
    431b:	48 ff c6             	inc    rsi
    431e:	48 ff c6             	inc    rsi
    4321:	48 ff c6             	inc    rsi
    4324:	48 ff c6             	inc    rsi
    4327:	48 ff c6             	inc    rsi
    432a:	8a 06                	mov    al,BYTE PTR [rsi]
    432c:	84 c0                	test   al,al
    432e:	0f 84 20 00 00 00    	je     0x4354
    4334:	48 ff c6             	inc    rsi
    4337:	48 ff c6             	inc    rsi
    433a:	48 ff c6             	inc    rsi
    433d:	48 ff c6             	inc    rsi
    4340:	48 ff c6             	inc    rsi
    4343:	48 ff c6             	inc    rsi
    4346:	48 ff c6             	inc    rsi
    4349:	48 ff c6             	inc    rsi
    434c:	48 ff c6             	inc    rsi
    434f:	e9 d6 ff ff ff       	jmp    0x432a
    4354:	48 ff ce             	dec    rsi
    4357:	48 ff ce             	dec    rsi
    435a:	48 ff ce             	dec    rsi
    435d:	48 ff ce             	dec    rsi
    4360:	48 ff ce             	dec    rsi
    4363:	48 ff ce             	dec    rsi
    4366:	48 ff ce             	dec    rsi
    4369:	48 ff ce             	dec    rsi
    436c:	48 ff ce             	dec    rsi
    436f:	8a 06                	mov    al,BYTE PTR [rsi]
    4371:	84 c0                	test   al,al
    4373:	0f 84 6f 00 00 00    	je     0x43e8
    4379:	48 ff c6             	inc    rsi
    437c:	8a 06                	mov    al,BYTE PTR [rsi]
    437e:	84 c0                	test   al,al
    4380:	0f 84 3f 00 00 00    	je     0x43c5
    4386:	fe 0e                	dec    BYTE PTR [rsi]
    4388:	48 ff c6             	inc    rsi
    438b:	48 ff c6             	inc    rsi
    438e:	48 ff c6             	inc    rsi
    4391:	48 ff c6             	inc    rsi
    4394:	48 ff c6             	inc    rsi
    4397:	48 ff c6             	inc    rsi
    439a:	48 ff c6             	inc    rsi
    439d:	48 ff c6             	inc    rsi
    43a0:	48 ff c6             	inc    rsi
    43a3:	fe 06                	inc    BYTE PTR [rsi]
    43a5:	48 ff ce             	dec    rsi
    43a8:	48 ff ce             	dec    rsi
    43ab:	48 ff ce             	dec    rsi
    43ae:	48 ff ce             	dec    rsi
    43b1:	48 ff ce             	dec    rsi
    43b4:	48 ff ce             	dec    rsi
    43b7:	48 ff ce             	dec    rsi
    43ba:	48 ff ce             	dec    rsi
    43bd:	48 ff ce             	dec    rsi
    43c0:	e9 b7 ff ff ff       	jmp    0x437c
    43c5:	48 ff ce             	dec    rsi
    43c8:	48 ff ce             	dec    rsi
    43cb:	48 ff ce             	dec    rsi
    43ce:	48 ff ce             	dec    rsi
    43d1:	48 ff ce             	dec    rsi
    43d4:	48 ff ce             	dec    rsi
    43d7:	48 ff ce             	dec    rsi
    43da:	48 ff ce             	dec    rsi
    43dd:	48 ff ce             	dec    rsi
    43e0:	48 ff ce             	dec    rsi
    43e3:	e9 87 ff ff ff       	jmp    0x436f
    43e8:	48 ff c6             	inc    rsi
    43eb:	8a 06                	mov    al,BYTE PTR [rsi]
    43ed:	84 c0                	test   al,al
    43ef:	0f 84 3f 00 00 00    	je     0x4434
    43f5:	fe 0e                	dec    BYTE PTR [rsi]
    43f7:	48 ff c6             	inc    rsi
    43fa:	48 ff c6             	inc    rsi
    43fd:	48 ff c6             	inc    rsi
    4400:	48 ff c6             	inc    rsi
    4403:	48 ff c6             	inc    rsi
    4406:	48 ff c6             	inc    rsi
    4409:	48 ff c6             	inc    rsi
    440c:	48 ff c6             	inc    rsi
    440f:	48 ff c6             	inc    rsi
    4412:	fe 06                	inc    BYTE PTR [rsi]
    4414:	48 ff ce             	dec    rsi
    4417:	48 ff ce             	dec    rsi
    441a:	48 ff ce             	dec    rsi
    441d:	48 ff ce             	dec    rsi
    4420:	48 ff ce             	dec    rsi
    4423:	48 ff ce             	dec    rsi
    4426:	48 ff ce             	dec    rsi
    4429:	48 ff ce             	dec    rsi
    442c:	48 ff ce             	dec    rsi
    442f:	e9 b7 ff ff ff       	jmp    0x43eb
    4434:	48 ff ce             	dec    rsi
    4437:	fe 06                	inc    BYTE PTR [rsi]
    4439:	48 ff c6             	inc    rsi
    443c:	48 ff c6             	inc    rsi
    443f:	48 ff c6             	inc    rsi
    4442:	48 ff c6             	inc    rsi
    4445:	48 ff c6             	inc    rsi
    4448:	48 ff c6             	inc    rsi
    444b:	48 ff c6             	inc    rsi
    444e:	48 ff c6             	inc    rsi
    4451:	e9 77 fd ff ff       	jmp    0x41cd
    4456:	48 ff ce             	dec    rsi
    4459:	48 ff ce             	dec    rsi
    445c:	48 ff ce             	dec    rsi
    445f:	48 ff ce             	dec    rsi
    4462:	48 ff ce             	dec    rsi
    4465:	48 ff ce             	dec    rsi
    4468:	48 ff ce             	dec    rsi
    446b:	48 ff ce             	dec    rsi
    446e:	48 ff ce             	dec    rsi
    4471:	8a 06                	mov    al,BYTE PTR [rsi]
    4473:	84 c0                	test   al,al
    4475:	0f 84 f5 00 00 00    	je     0x4570
    447b:	48 ff c6             	inc    rsi
    447e:	8a 06                	mov    al,BYTE PTR [rsi]
    4480:	84 c0                	test   al,al
    4482:	0f 84 07 00 00 00    	je     0x448f
    4488:	fe 0e                	dec    BYTE PTR [rsi]
    448a:	e9 ef ff ff ff       	jmp    0x447e
    448f:	48 ff ce             	dec    rsi
    4492:	fe 0e                	dec    BYTE PTR [rsi]
    4494:	48 ff c6             	inc    rsi
    4497:	48 ff c6             	inc    rsi
    449a:	48 ff c6             	inc    rsi
    449d:	8a 06                	mov    al,BYTE PTR [rsi]
    449f:	84 c0                	test   al,al
    44a1:	0f 84 7f 00 00 00    	je     0x4526
    44a7:	fe 0e                	dec    BYTE PTR [rsi]
    44a9:	48 ff ce             	dec    rsi
    44ac:	48 ff ce             	dec    rsi
    44af:	48 ff ce             	dec    rsi
    44b2:	fe 06                	inc    BYTE PTR [rsi]
    44b4:	48 ff c6             	inc    rsi
    44b7:	8a 06                	mov    al,BYTE PTR [rsi]
    44b9:	84 c0                	test   al,al
    44bb:	0f 84 3b 00 00 00    	je     0x44fc
    44c1:	48 ff ce             	dec    rsi
    44c4:	fe 0e                	dec    BYTE PTR [rsi]
    44c6:	48 ff c6             	inc    rsi
    44c9:	fe 0e                	dec    BYTE PTR [rsi]
    44cb:	48 ff ce             	dec    rsi
    44ce:	48 ff ce             	dec    rsi
    44d1:	48 ff ce             	dec    rsi
    44d4:	48 ff ce             	dec    rsi
    44d7:	48 ff ce             	dec    rsi
    44da:	48 ff ce             	dec    rsi
    44dd:	48 ff ce             	dec    rsi
    44e0:	fe 06                	inc    BYTE PTR [rsi]
    44e2:	48 ff c6             	inc    rsi
    44e5:	48 ff c6             	inc    rsi
    44e8:	48 ff c6             	inc    rsi
    44eb:	48 ff c6             	inc    rsi
    44ee:	48 ff c6             	inc    rsi
    44f1:	48 ff c6             	inc    rsi
    44f4:	48 ff c6             	inc    rsi
    44f7:	e9 bb ff ff ff       	jmp    0x44b7
    44fc:	48 ff ce             	dec    rsi
    44ff:	8a 06                	mov    al,BYTE PTR [rsi]
    4501:	84 c0                	test   al,al
    4503:	0f 84 0f 00 00 00    	je     0x4518
    4509:	fe 0e                	dec    BYTE PTR [rsi]
    450b:	48 ff c6             	inc    rsi
    450e:	fe 06                	inc    BYTE PTR [rsi]
    4510:	48 ff ce             	dec    rsi
    4513:	e9 e7 ff ff ff       	jmp    0x44ff
    4518:	48 ff c6             	inc    rsi
    451b:	48 ff c6             	inc    rsi
    451e:	48 ff c6             	inc    rsi
    4521:	e9 77 ff ff ff       	jmp    0x449d
    4526:	48 ff ce             	dec    rsi
    4529:	48 ff ce             	dec    rsi
    452c:	8a 06                	mov    al,BYTE PTR [rsi]
    452e:	84 c0                	test   al,al
    4530:	0f 84 15 00 00 00    	je     0x454b
    4536:	fe 0e                	dec    BYTE PTR [rsi]
    4538:	48 ff c6             	inc    rsi
    453b:	48 ff c6             	inc    rsi
    453e:	fe 06                	inc    BYTE PTR [rsi]
    4540:	48 ff ce             	dec    rsi
    4543:	48 ff ce             	dec    rsi
    4546:	e9 e1 ff ff ff       	jmp    0x452c
    454b:	48 ff ce             	dec    rsi
    454e:	fe 06                	inc    BYTE PTR [rsi]
    4550:	48 ff ce             	dec    rsi
    4553:	48 ff ce             	dec    rsi
    4556:	48 ff ce             	dec    rsi
    4559:	48 ff ce             	dec    rsi
    455c:	48 ff ce             	dec    rsi
    455f:	48 ff ce             	dec    rsi
    4562:	48 ff ce             	dec    rsi
    4565:	48 ff ce             	dec    rsi
    4568:	48 ff ce             	dec    rsi
    456b:	e9 01 ff ff ff       	jmp    0x4471
    4570:	48 ff c6             	inc    rsi
    4573:	48 ff c6             	inc    rsi
    4576:	48 ff c6             	inc    rsi
    4579:	48 ff c6             	inc    rsi
    457c:	48 ff c6             	inc    rsi
    457f:	48 ff c6             	inc    rsi
    4582:	48 ff c6             	inc    rsi
    4585:	48 ff c6             	inc    rsi
    4588:	48 ff c6             	inc    rsi
    458b:	8a 06                	mov    al,BYTE PTR [rsi]
    458d:	84 c0                	test   al,al
    458f:	0f 84 0b 01 00 00    	je     0x46a0
    4595:	48 ff c6             	inc    rsi
    4598:	48 ff c6             	inc    rsi
    459b:	48 ff c6             	inc    rsi
    459e:	8a 06                	mov    al,BYTE PTR [rsi]
    45a0:	84 c0                	test   al,al
    45a2:	0f 84 e1 00 00 00    	je     0x4689
    45a8:	fe 0e                	dec    BYTE PTR [rsi]
    45aa:	48 ff ce             	dec    rsi
    45ad:	48 ff ce             	dec    rsi
    45b0:	48 ff ce             	dec    rsi
    45b3:	48 ff ce             	dec    rsi
    45b6:	48 ff ce             	dec    rsi
    45b9:	48 ff ce             	dec    rsi
    45bc:	48 ff ce             	dec    rsi
    45bf:	48 ff ce             	dec    rsi
    45c2:	48 ff ce             	dec    rsi
    45c5:	48 ff ce             	dec    rsi
    45c8:	48 ff ce             	dec    rsi
    45cb:	48 ff ce             	dec    rsi
    45ce:	48 ff ce             	dec    rsi
    45d1:	48 ff ce             	dec    rsi
    45d4:	48 ff ce             	dec    rsi
    45d7:	48 ff ce             	dec    rsi
    45da:	48 ff ce             	dec    rsi
    45dd:	48 ff ce             	dec    rsi
    45e0:	48 ff ce             	dec    rsi
    45e3:	48 ff ce             	dec    rsi
    45e6:	48 ff ce             	dec    rsi
    45e9:	48 ff ce             	dec    rsi
    45ec:	48 ff ce             	dec    rsi
    45ef:	48 ff ce             	dec    rsi
    45f2:	48 ff ce             	dec    rsi
    45f5:	48 ff ce             	dec    rsi
    45f8:	48 ff ce             	dec    rsi
    45fb:	48 ff ce             	dec    rsi
    45fe:	48 ff ce             	dec    rsi
    4601:	48 ff ce             	dec    rsi
    4604:	48 ff ce             	dec    rsi
    4607:	48 ff ce             	dec    rsi
    460a:	48 ff ce             	dec    rsi
    460d:	48 ff ce             	dec    rsi
    4610:	48 ff ce             	dec    rsi
    4613:	48 ff ce             	dec    rsi
    4616:	fe 06                	inc    BYTE PTR [rsi]
    4618:	48 ff c6             	inc    rsi
    461b:	48 ff c6             	inc    rsi
    461e:	48 ff c6             	inc    rsi
    4621:	48 ff c6             	inc    rsi
    4624:	48 ff c6             	inc    rsi
    4627:	48 ff c6             	inc    rsi
    462a:	48 ff c6             	inc    rsi
    462d:	48 ff c6             	inc    rsi
    4630:	48 ff c6             	inc    rsi
    4633:	48 ff c6             	inc    rsi
    4636:	48 ff c6             	inc    rsi
    4639:	48 ff c6             	inc    rsi
    463c:	48 ff c6             	inc    rsi
    463f:	48 ff c6             	inc    rsi
    4642:	48 ff c6             	inc    rsi
    4645:	48 ff c6             	inc    rsi
    4648:	48 ff c6             	inc    rsi
    464b:	48 ff c6             	inc    rsi
    464e:	48 ff c6             	inc    rsi
    4651:	48 ff c6             	inc    rsi
    4654:	48 ff c6             	inc    rsi
    4657:	48 ff c6             	inc    rsi
    465a:	48 ff c6             	inc    rsi
    465d:	48 ff c6             	inc    rsi
    4660:	48 ff c6             	inc    rsi
    4663:	48 ff c6             	inc    rsi
    4666:	48 ff c6             	inc    rsi
    4669:	48 ff c6             	inc    rsi
    466c:	48 ff c6             	inc    rsi
    466f:	48 ff c6             	inc    rsi
    4672:	48 ff c6             	inc    rsi
    4675:	48 ff c6             	inc    rsi
    4678:	48 ff c6             	inc    rsi
    467b:	48 ff c6             	inc    rsi
    467e:	48 ff c6             	inc    rsi
    4681:	48 ff c6             	inc    rsi
    4684:	e9 15 ff ff ff       	jmp    0x459e
    4689:	48 ff c6             	inc    rsi
    468c:	48 ff c6             	inc    rsi
    468f:	48 ff c6             	inc    rsi
    4692:	48 ff c6             	inc    rsi
    4695:	48 ff c6             	inc    rsi
    4698:	48 ff c6             	inc    rsi
    469b:	e9 eb fe ff ff       	jmp    0x458b
    46a0:	48 ff ce             	dec    rsi
    46a3:	48 ff ce             	dec    rsi
    46a6:	48 ff ce             	dec    rsi
    46a9:	48 ff ce             	dec    rsi
    46ac:	48 ff ce             	dec    rsi
    46af:	48 ff ce             	dec    rsi
    46b2:	48 ff ce             	dec    rsi
    46b5:	48 ff ce             	dec    rsi
    46b8:	48 ff ce             	dec    rsi
    46bb:	8a 06                	mov    al,BYTE PTR [rsi]
    46bd:	84 c0                	test   al,al
    46bf:	0f 84 20 00 00 00    	je     0x46e5
    46c5:	48 ff ce             	dec    rsi
    46c8:	48 ff ce             	dec    rsi
    46cb:	48 ff ce             	dec    rsi
    46ce:	48 ff ce             	dec    rsi
    46d1:	48 ff ce             	dec    rsi
    46d4:	48 ff ce             	dec    rsi
    46d7:	48 ff ce             	dec    rsi
    46da:	48 ff ce             	dec    rsi
    46dd:	48 ff ce             	dec    rsi
    46e0:	e9 d6 ff ff ff       	jmp    0x46bb
    46e5:	48 ff c6             	inc    rsi
    46e8:	48 ff c6             	inc    rsi
    46eb:	48 ff c6             	inc    rsi
    46ee:	48 ff c6             	inc    rsi
    46f1:	48 ff c6             	inc    rsi
    46f4:	8a 06                	mov    al,BYTE PTR [rsi]
    46f6:	84 c0                	test   al,al
    46f8:	0f 84 07 00 00 00    	je     0x4705
    46fe:	fe 0e                	dec    BYTE PTR [rsi]
    4700:	e9 ef ff ff ff       	jmp    0x46f4
    4705:	48 ff c6             	inc    rsi
    4708:	48 ff c6             	inc    rsi
    470b:	48 ff c6             	inc    rsi
    470e:	48 ff c6             	inc    rsi
    4711:	fe 06                	inc    BYTE PTR [rsi]
    4713:	fe 06                	inc    BYTE PTR [rsi]
    4715:	fe 06                	inc    BYTE PTR [rsi]
    4717:	fe 06                	inc    BYTE PTR [rsi]
    4719:	fe 06                	inc    BYTE PTR [rsi]
    471b:	fe 06                	inc    BYTE PTR [rsi]
    471d:	fe 06                	inc    BYTE PTR [rsi]
    471f:	fe 06                	inc    BYTE PTR [rsi]
    4721:	fe 06                	inc    BYTE PTR [rsi]
    4723:	fe 06                	inc    BYTE PTR [rsi]
    4725:	fe 06                	inc    BYTE PTR [rsi]
    4727:	fe 06                	inc    BYTE PTR [rsi]
    4729:	fe 06                	inc    BYTE PTR [rsi]
    472b:	fe 06                	inc    BYTE PTR [rsi]
    472d:	fe 06                	inc    BYTE PTR [rsi]
    472f:	8a 06                	mov    al,BYTE PTR [rsi]
    4731:	84 c0                	test   al,al
    4733:	0f 84 ae 00 00 00    	je     0x47e7
    4739:	8a 06                	mov    al,BYTE PTR [rsi]
    473b:	84 c0                	test   al,al
    473d:	0f 84 20 00 00 00    	je     0x4763
    4743:	48 ff c6             	inc    rsi
    4746:	48 ff c6             	inc    rsi
    4749:	48 ff c6             	inc    rsi
    474c:	48 ff c6             	inc    rsi
    474f:	48 ff c6             	inc    rsi
    4752:	48 ff c6             	inc    rsi
    4755:	48 ff c6             	inc    rsi
    4758:	48 ff c6             	inc    rsi
    475b:	48 ff c6             	inc    rsi
    475e:	e9 d6 ff ff ff       	jmp    0x4739
    4763:	48 ff ce             	dec    rsi
    4766:	48 ff ce             	dec    rsi
    4769:	48 ff ce             	dec    rsi
    476c:	48 ff ce             	dec    rsi
    476f:	48 ff ce             	dec    rsi
    4772:	48 ff ce             	dec    rsi
    4775:	48 ff ce             	dec    rsi
    4778:	48 ff ce             	dec    rsi
    477b:	48 ff ce             	dec    rsi
    477e:	fe 0e                	dec    BYTE PTR [rsi]
    4780:	48 ff ce             	dec    rsi
    4783:	48 ff ce             	dec    rsi
    4786:	48 ff ce             	dec    rsi
    4789:	48 ff ce             	dec    rsi
    478c:	48 ff ce             	dec    rsi
    478f:	48 ff ce             	dec    rsi
    4792:	48 ff ce             	dec    rsi
    4795:	48 ff ce             	dec    rsi
    4798:	48 ff ce             	dec    rsi
    479b:	8a 06                	mov    al,BYTE PTR [rsi]
    479d:	84 c0                	test   al,al
    479f:	0f 84 20 00 00 00    	je     0x47c5
    47a5:	48 ff ce             	dec    rsi
    47a8:	48 ff ce             	dec    rsi
    47ab:	48 ff ce             	dec    rsi
    47ae:	48 ff ce             	dec    rsi
    47b1:	48 ff ce             	dec    rsi
    47b4:	48 ff ce             	dec    rsi
    47b7:	48 ff ce             	dec    rsi
    47ba:	48 ff ce             	dec    rsi
    47bd:	48 ff ce             	dec    rsi
    47c0:	e9 d6 ff ff ff       	jmp    0x479b
    47c5:	48 ff c6             	inc    rsi
    47c8:	48 ff c6             	inc    rsi
    47cb:	48 ff c6             	inc    rsi
    47ce:	48 ff c6             	inc    rsi
    47d1:	48 ff c6             	inc    rsi
    47d4:	48 ff c6             	inc    rsi
    47d7:	48 ff c6             	inc    rsi
    47da:	48 ff c6             	inc    rsi
    47dd:	48 ff c6             	inc    rsi
    47e0:	fe 0e                	dec    BYTE PTR [rsi]
    47e2:	e9 48 ff ff ff       	jmp    0x472f
    47e7:	fe 06                	inc    BYTE PTR [rsi]
    47e9:	8a 06                	mov    al,BYTE PTR [rsi]
    47eb:	84 c0                	test   al,al
    47ed:	0f 84 49 03 00 00    	je     0x4b3c
    47f3:	48 ff c6             	inc    rsi
    47f6:	48 ff c6             	inc    rsi
    47f9:	48 ff c6             	inc    rsi
    47fc:	8a 06                	mov    al,BYTE PTR [rsi]
    47fe:	84 c0                	test   al,al
    4800:	0f 84 1b 00 00 00    	je     0x4821
    4806:	fe 0e                	dec    BYTE PTR [rsi]
    4808:	48 ff ce             	dec    rsi
    480b:	48 ff ce             	dec    rsi
    480e:	48 ff ce             	dec    rsi
    4811:	fe 0e                	dec    BYTE PTR [rsi]
    4813:	48 ff c6             	inc    rsi
    4816:	48 ff c6             	inc    rsi
    4819:	48 ff c6             	inc    rsi
    481c:	e9 db ff ff ff       	jmp    0x47fc
    4821:	fe 06                	inc    BYTE PTR [rsi]
    4823:	48 ff ce             	dec    rsi
    4826:	48 ff ce             	dec    rsi
    4829:	48 ff ce             	dec    rsi
    482c:	8a 06                	mov    al,BYTE PTR [rsi]
    482e:	84 c0                	test   al,al
    4830:	0f 84 1c 01 00 00    	je     0x4952
    4836:	fe 0e                	dec    BYTE PTR [rsi]
    4838:	48 ff c6             	inc    rsi
    483b:	48 ff c6             	inc    rsi
    483e:	48 ff c6             	inc    rsi
    4841:	fe 0e                	dec    BYTE PTR [rsi]
    4843:	48 ff c6             	inc    rsi
    4846:	8a 06                	mov    al,BYTE PTR [rsi]
    4848:	84 c0                	test   al,al
    484a:	0f 84 21 00 00 00    	je     0x4871
    4850:	fe 0e                	dec    BYTE PTR [rsi]
    4852:	48 ff ce             	dec    rsi
    4855:	48 ff ce             	dec    rsi
    4858:	48 ff ce             	dec    rsi
    485b:	48 ff ce             	dec    rsi
    485e:	fe 06                	inc    BYTE PTR [rsi]
    4860:	48 ff c6             	inc    rsi
    4863:	48 ff c6             	inc    rsi
    4866:	48 ff c6             	inc    rsi
    4869:	48 ff c6             	inc    rsi
    486c:	e9 d5 ff ff ff       	jmp    0x4846
    4871:	48 ff ce             	dec    rsi
    4874:	48 ff ce             	dec    rsi
    4877:	48 ff ce             	dec    rsi
    487a:	48 ff ce             	dec    rsi
    487d:	8a 06                	mov    al,BYTE PTR [rsi]
    487f:	84 c0                	test   al,al
    4881:	0f 84 c6 00 00 00    	je     0x494d
    4887:	fe 0e                	dec    BYTE PTR [rsi]
    4889:	48 ff c6             	inc    rsi
    488c:	48 ff c6             	inc    rsi
    488f:	48 ff c6             	inc    rsi
    4892:	48 ff c6             	inc    rsi
    4895:	fe 06                	inc    BYTE PTR [rsi]
    4897:	48 ff ce             	dec    rsi
    489a:	48 ff ce             	dec    rsi
    489d:	48 ff ce             	dec    rsi
    48a0:	48 ff ce             	dec    rsi
    48a3:	48 ff ce             	dec    rsi
    48a6:	48 ff ce             	dec    rsi
    48a9:	48 ff ce             	dec    rsi
    48ac:	48 ff ce             	dec    rsi
    48af:	48 ff ce             	dec    rsi
    48b2:	48 ff ce             	dec    rsi
    48b5:	48 ff ce             	dec    rsi
    48b8:	48 ff ce             	dec    rsi
    48bb:	48 ff ce             	dec    rsi
    48be:	8a 06                	mov    al,BYTE PTR [rsi]
    48c0:	84 c0                	test   al,al
    48c2:	0f 84 20 00 00 00    	je     0x48e8
    48c8:	48 ff ce             	dec    rsi
    48cb:	48 ff ce             	dec    rsi
    48ce:	48 ff ce             	dec    rsi
    48d1:	48 ff ce             	dec    rsi
    48d4:	48 ff ce             	dec    rsi
    48d7:	48 ff ce             	dec    rsi
    48da:	48 ff ce             	dec    rsi
    48dd:	48 ff ce             	dec    rsi
    48e0:	48 ff ce             	dec    rsi
    48e3:	e9 d6 ff ff ff       	jmp    0x48be
    48e8:	48 ff c6             	inc    rsi
    48eb:	48 ff c6             	inc    rsi
    48ee:	48 ff c6             	inc    rsi
    48f1:	48 ff c6             	inc    rsi
    48f4:	8a 06                	mov    al,BYTE PTR [rsi]
    48f6:	84 c0                	test   al,al
    48f8:	0f 84 07 00 00 00    	je     0x4905
    48fe:	fe 0e                	dec    BYTE PTR [rsi]
    4900:	e9 ef ff ff ff       	jmp    0x48f4
    4905:	fe 06                	inc    BYTE PTR [rsi]
    4907:	48 ff c6             	inc    rsi
    490a:	48 ff c6             	inc    rsi
    490d:	48 ff c6             	inc    rsi
    4910:	48 ff c6             	inc    rsi
    4913:	48 ff c6             	inc    rsi
    4916:	8a 06                	mov    al,BYTE PTR [rsi]
    4918:	84 c0                	test   al,al
    491a:	0f 84 20 00 00 00    	je     0x4940
    4920:	48 ff c6             	inc    rsi
    4923:	48 ff c6             	inc    rsi
    4926:	48 ff c6             	inc    rsi
    4929:	48 ff c6             	inc    rsi
    492c:	48 ff c6             	inc    rsi
    492f:	48 ff c6             	inc    rsi
    4932:	48 ff c6             	inc    rsi
    4935:	48 ff c6             	inc    rsi
    4938:	48 ff c6             	inc    rsi
    493b:	e9 d6 ff ff ff       	jmp    0x4916
    4940:	48 ff c6             	inc    rsi
    4943:	fe 06                	inc    BYTE PTR [rsi]
    4945:	48 ff ce             	dec    rsi
    4948:	e9 30 ff ff ff       	jmp    0x487d
    494d:	e9 da fe ff ff       	jmp    0x482c
    4952:	fe 06                	inc    BYTE PTR [rsi]
    4954:	48 ff c6             	inc    rsi
    4957:	48 ff c6             	inc    rsi
    495a:	48 ff c6             	inc    rsi
    495d:	48 ff c6             	inc    rsi
    4960:	8a 06                	mov    al,BYTE PTR [rsi]
    4962:	84 c0                	test   al,al
    4964:	0f 84 21 00 00 00    	je     0x498b
    496a:	fe 0e                	dec    BYTE PTR [rsi]
    496c:	48 ff ce             	dec    rsi
    496f:	48 ff ce             	dec    rsi
    4972:	48 ff ce             	dec    rsi
    4975:	48 ff ce             	dec    rsi
    4978:	fe 0e                	dec    BYTE PTR [rsi]
    497a:	48 ff c6             	inc    rsi
    497d:	48 ff c6             	inc    rsi
    4980:	48 ff c6             	inc    rsi
    4983:	48 ff c6             	inc    rsi
    4986:	e9 d5 ff ff ff       	jmp    0x4960
    498b:	fe 06                	inc    BYTE PTR [rsi]
    498d:	48 ff ce             	dec    rsi
    4990:	48 ff ce             	dec    rsi
    4993:	48 ff ce             	dec    rsi
    4996:	48 ff ce             	dec    rsi
    4999:	8a 06                	mov    al,BYTE PTR [rsi]
    499b:	84 c0                	test   al,al
    499d:	0f 84 21 01 00 00    	je     0x4ac4
    49a3:	fe 0e                	dec    BYTE PTR [rsi]
    49a5:	48 ff c6             	inc    rsi
    49a8:	48 ff c6             	inc    rsi
    49ab:	48 ff c6             	inc    rsi
    49ae:	48 ff c6             	inc    rsi
    49b1:	fe 0e                	dec    BYTE PTR [rsi]
    49b3:	48 ff ce             	dec    rsi
    49b6:	8a 06                	mov    al,BYTE PTR [rsi]
    49b8:	84 c0                	test   al,al
    49ba:	0f 84 1b 00 00 00    	je     0x49db
    49c0:	fe 0e                	dec    BYTE PTR [rsi]
    49c2:	48 ff ce             	dec    rsi
    49c5:	48 ff ce             	dec    rsi
    49c8:	48 ff ce             	dec    rsi
    49cb:	fe 06                	inc    BYTE PTR [rsi]
    49cd:	48 ff c6             	inc    rsi
    49d0:	48 ff c6             	inc    rsi
    49d3:	48 ff c6             	inc    rsi
    49d6:	e9 db ff ff ff       	jmp    0x49b6
    49db:	48 ff ce             	dec    rsi
    49de:	48 ff ce             	dec    rsi
    49e1:	48 ff ce             	dec    rsi
    49e4:	8a 06                	mov    al,BYTE PTR [rsi]
    49e6:	84 c0                	test   al,al
    49e8:	0f 84 d1 00 00 00    	je     0x4abf
    49ee:	fe 0e                	dec    BYTE PTR [rsi]
    49f0:	48 ff c6             	inc    rsi
    49f3:	48 ff c6             	inc    rsi
    49f6:	48 ff c6             	inc    rsi
    49f9:	fe 06                	inc    BYTE PTR [rsi]
    49fb:	48 ff ce             	dec    rsi
    49fe:	48 ff ce             	dec    rsi
    4a01:	48 ff ce             	dec    rsi
    4a04:	48 ff ce             	dec    rsi
    4a07:	48 ff ce             	dec    rsi
    4a0a:	48 ff ce             	dec    rsi
    4a0d:	48 ff ce             	dec    rsi
    4a10:	48 ff ce             	dec    rsi
    4a13:	48 ff ce             	dec    rsi
    4a16:	48 ff ce             	dec    rsi
    4a19:	48 ff ce             	dec    rsi
    4a1c:	48 ff ce             	dec    rsi
    4a1f:	8a 06                	mov    al,BYTE PTR [rsi]
    4a21:	84 c0                	test   al,al
    4a23:	0f 84 20 00 00 00    	je     0x4a49
    4a29:	48 ff ce             	dec    rsi
    4a2c:	48 ff ce             	dec    rsi
    4a2f:	48 ff ce             	dec    rsi
    4a32:	48 ff ce             	dec    rsi
    4a35:	48 ff ce             	dec    rsi
    4a38:	48 ff ce             	dec    rsi
    4a3b:	48 ff ce             	dec    rsi
    4a3e:	48 ff ce             	dec    rsi
    4a41:	48 ff ce             	dec    rsi
    4a44:	e9 d6 ff ff ff       	jmp    0x4a1f
    4a49:	48 ff c6             	inc    rsi
    4a4c:	48 ff c6             	inc    rsi
    4a4f:	48 ff c6             	inc    rsi
    4a52:	8a 06                	mov    al,BYTE PTR [rsi]
    4a54:	84 c0                	test   al,al
    4a56:	0f 84 07 00 00 00    	je     0x4a63
    4a5c:	fe 0e                	dec    BYTE PTR [rsi]
    4a5e:	e9 ef ff ff ff       	jmp    0x4a52
    4a63:	fe 06                	inc    BYTE PTR [rsi]
    4a65:	48 ff c6             	inc    rsi
    4a68:	48 ff c6             	inc    rsi
    4a6b:	48 ff c6             	inc    rsi
    4a6e:	48 ff c6             	inc    rsi
    4a71:	48 ff c6             	inc    rsi
    4a74:	48 ff c6             	inc    rsi
    4a77:	8a 06                	mov    al,BYTE PTR [rsi]
    4a79:	84 c0                	test   al,al
    4a7b:	0f 84 20 00 00 00    	je     0x4aa1
    4a81:	48 ff c6             	inc    rsi
    4a84:	48 ff c6             	inc    rsi
    4a87:	48 ff c6             	inc    rsi
    4a8a:	48 ff c6             	inc    rsi
    4a8d:	48 ff c6             	inc    rsi
    4a90:	48 ff c6             	inc    rsi
    4a93:	48 ff c6             	inc    rsi
    4a96:	48 ff c6             	inc    rsi
    4a99:	48 ff c6             	inc    rsi
    4a9c:	e9 d6 ff ff ff       	jmp    0x4a77
    4aa1:	48 ff c6             	inc    rsi
    4aa4:	8a 06                	mov    al,BYTE PTR [rsi]
    4aa6:	84 c0                	test   al,al
    4aa8:	0f 84 07 00 00 00    	je     0x4ab5
    4aae:	fe 0e                	dec    BYTE PTR [rsi]
    4ab0:	e9 ef ff ff ff       	jmp    0x4aa4
    4ab5:	fe 06                	inc    BYTE PTR [rsi]
    4ab7:	48 ff ce             	dec    rsi
    4aba:	e9 25 ff ff ff       	jmp    0x49e4
    4abf:	e9 d5 fe ff ff       	jmp    0x4999
    4ac4:	fe 06                	inc    BYTE PTR [rsi]
    4ac6:	48 ff c6             	inc    rsi
    4ac9:	8a 06                	mov    al,BYTE PTR [rsi]
    4acb:	84 c0                	test   al,al
    4acd:	0f 84 4c 00 00 00    	je     0x4b1f
    4ad3:	fe 0e                	dec    BYTE PTR [rsi]
    4ad5:	48 ff ce             	dec    rsi
    4ad8:	8a 06                	mov    al,BYTE PTR [rsi]
    4ada:	84 c0                	test   al,al
    4adc:	0f 84 20 00 00 00    	je     0x4b02
    4ae2:	48 ff c6             	inc    rsi
    4ae5:	48 ff c6             	inc    rsi
    4ae8:	48 ff c6             	inc    rsi
    4aeb:	48 ff c6             	inc    rsi
    4aee:	48 ff c6             	inc    rsi
    4af1:	48 ff c6             	inc    rsi
    4af4:	48 ff c6             	inc    rsi
    4af7:	48 ff c6             	inc    rsi
    4afa:	48 ff c6             	inc    rsi
    4afd:	e9 d6 ff ff ff       	jmp    0x4ad8
    4b02:	48 ff ce             	dec    rsi
    4b05:	48 ff ce             	dec    rsi
    4b08:	48 ff ce             	dec    rsi
    4b0b:	48 ff ce             	dec    rsi
    4b0e:	48 ff ce             	dec    rsi
    4b11:	48 ff ce             	dec    rsi
    4b14:	48 ff ce             	dec    rsi
    4b17:	48 ff ce             	dec    rsi
    4b1a:	e9 aa ff ff ff       	jmp    0x4ac9
    4b1f:	48 ff c6             	inc    rsi
    4b22:	48 ff c6             	inc    rsi
    4b25:	48 ff c6             	inc    rsi
    4b28:	48 ff c6             	inc    rsi
    4b2b:	48 ff c6             	inc    rsi
    4b2e:	48 ff c6             	inc    rsi
    4b31:	48 ff c6             	inc    rsi
    4b34:	48 ff c6             	inc    rsi
    4b37:	e9 ad fc ff ff       	jmp    0x47e9
    4b3c:	48 ff ce             	dec    rsi
    4b3f:	48 ff ce             	dec    rsi
    4b42:	48 ff ce             	dec    rsi
    4b45:	48 ff ce             	dec    rsi
    4b48:	48 ff ce             	dec    rsi
    4b4b:	48 ff ce             	dec    rsi
    4b4e:	48 ff ce             	dec    rsi
    4b51:	48 ff ce             	dec    rsi
    4b54:	48 ff ce             	dec    rsi
    4b57:	8a 06                	mov    al,BYTE PTR [rsi]
    4b59:	84 c0                	test   al,al
    4b5b:	0f 84 20 00 00 00    	je     0x4b81
    4b61:	48 ff ce             	dec    rsi
    4b64:	48 ff ce             	dec    rsi
    4b67:	48 ff ce             	dec    rsi
    4b6a:	48 ff ce             	dec    rsi
    4b6d:	48 ff ce             	dec    rsi
    4b70:	48 ff ce             	dec    rsi
    4b73:	48 ff ce             	dec    rsi
    4b76:	48 ff ce             	dec    rsi
    4b79:	48 ff ce             	dec    rsi
    4b7c:	e9 d6 ff ff ff       	jmp    0x4b57
    4b81:	48 ff c6             	inc    rsi
    4b84:	48 ff c6             	inc    rsi
    4b87:	48 ff c6             	inc    rsi
    4b8a:	8a 06                	mov    al,BYTE PTR [rsi]
    4b8c:	84 c0                	test   al,al
    4b8e:	0f 84 1b 00 00 00    	je     0x4baf
    4b94:	fe 0e                	dec    BYTE PTR [rsi]
    4b96:	48 ff ce             	dec    rsi
    4b99:	48 ff ce             	dec    rsi
    4b9c:	48 ff ce             	dec    rsi
    4b9f:	fe 06                	inc    BYTE PTR [rsi]
    4ba1:	48 ff c6             	inc    rsi
    4ba4:	48 ff c6             	inc    rsi
    4ba7:	48 ff c6             	inc    rsi
    4baa:	e9 db ff ff ff       	jmp    0x4b8a
    4baf:	48 ff ce             	dec    rsi
    4bb2:	48 ff ce             	dec    rsi
    4bb5:	48 ff ce             	dec    rsi
    4bb8:	8a 06                	mov    al,BYTE PTR [rsi]
    4bba:	84 c0                	test   al,al
    4bbc:	0f 84 a4 02 00 00    	je     0x4e66
    4bc2:	fe 0e                	dec    BYTE PTR [rsi]
    4bc4:	48 ff c6             	inc    rsi
    4bc7:	48 ff c6             	inc    rsi
    4bca:	48 ff c6             	inc    rsi
    4bcd:	fe 06                	inc    BYTE PTR [rsi]
    4bcf:	48 ff c6             	inc    rsi
    4bd2:	48 ff c6             	inc    rsi
    4bd5:	48 ff c6             	inc    rsi
    4bd8:	48 ff c6             	inc    rsi
    4bdb:	48 ff c6             	inc    rsi
    4bde:	48 ff c6             	inc    rsi
    4be1:	8a 06                	mov    al,BYTE PTR [rsi]
    4be3:	84 c0                	test   al,al
    4be5:	0f 84 7e 00 00 00    	je     0x4c69
    4beb:	48 ff c6             	inc    rsi
    4bee:	fe 06                	inc    BYTE PTR [rsi]
    4bf0:	48 ff c6             	inc    rsi
    4bf3:	48 ff c6             	inc    rsi
    4bf6:	48 ff c6             	inc    rsi
    4bf9:	8a 06                	mov    al,BYTE PTR [rsi]
    4bfb:	84 c0                	test   al,al
    4bfd:	0f 84 1b 00 00 00    	je     0x4c1e
    4c03:	fe 0e                	dec    BYTE PTR [rsi]
    4c05:	48 ff ce             	dec    rsi
    4c08:	48 ff ce             	dec    rsi
    4c0b:	48 ff ce             	dec    rsi
    4c0e:	fe 0e                	dec    BYTE PTR [rsi]
    4c10:	48 ff c6             	inc    rsi
    4c13:	48 ff c6             	inc    rsi
    4c16:	48 ff c6             	inc    rsi
    4c19:	e9 db ff ff ff       	jmp    0x4bf9
    4c1e:	48 ff ce             	dec    rsi
    4c21:	48 ff ce             	dec    rsi
    4c24:	48 ff ce             	dec    rsi
    4c27:	8a 06                	mov    al,BYTE PTR [rsi]
    4c29:	84 c0                	test   al,al
    4c2b:	0f 84 1b 00 00 00    	je     0x4c4c
    4c31:	fe 0e                	dec    BYTE PTR [rsi]
    4c33:	48 ff c6             	inc    rsi
    4c36:	48 ff c6             	inc    rsi
    4c39:	48 ff c6             	inc    rsi
    4c3c:	fe 06                	inc    BYTE PTR [rsi]
    4c3e:	48 ff ce             	dec    rsi
    4c41:	48 ff ce             	dec    rsi
    4c44:	48 ff ce             	dec    rsi
    4c47:	e9 db ff ff ff       	jmp    0x4c27
    4c4c:	48 ff c6             	inc    rsi
    4c4f:	48 ff c6             	inc    rsi
    4c52:	48 ff c6             	inc    rsi
    4c55:	48 ff c6             	inc    rsi
    4c58:	48 ff c6             	inc    rsi
    4c5b:	48 ff c6             	inc    rsi
    4c5e:	48 ff c6             	inc    rsi
    4c61:	48 ff c6             	inc    rsi
    4c64:	e9 78 ff ff ff       	jmp    0x4be1
    4c69:	48 ff ce             	dec    rsi
    4c6c:	48 ff ce             	dec    rsi
    4c6f:	48 ff ce             	dec    rsi
    4c72:	48 ff ce             	dec    rsi
    4c75:	48 ff ce             	dec    rsi
    4c78:	48 ff ce             	dec    rsi
    4c7b:	48 ff ce             	dec    rsi
    4c7e:	48 ff ce             	dec    rsi
    4c81:	fe 06                	inc    BYTE PTR [rsi]
    4c83:	48 ff ce             	dec    rsi
    4c86:	8a 06                	mov    al,BYTE PTR [rsi]
    4c88:	84 c0                	test   al,al
    4c8a:	0f 84 d1 01 00 00    	je     0x4e61
    4c90:	48 ff c6             	inc    rsi
    4c93:	8a 06                	mov    al,BYTE PTR [rsi]
    4c95:	84 c0                	test   al,al
    4c97:	0f 84 f4 00 00 00    	je     0x4d91
    4c9d:	fe 0e                	dec    BYTE PTR [rsi]
    4c9f:	48 ff c6             	inc    rsi
    4ca2:	fe 06                	inc    BYTE PTR [rsi]
    4ca4:	48 ff c6             	inc    rsi
    4ca7:	8a 06                	mov    al,BYTE PTR [rsi]
    4ca9:	84 c0                	test   al,al
    4cab:	0f 84 72 00 00 00    	je     0x4d23
    4cb1:	fe 0e                	dec    BYTE PTR [rsi]
    4cb3:	48 ff ce             	dec    rsi
    4cb6:	fe 0e                	dec    BYTE PTR [rsi]
    4cb8:	48 ff ce             	dec    rsi
    4cbb:	48 ff ce             	dec    rsi
    4cbe:	48 ff ce             	dec    rsi
    4cc1:	48 ff ce             	dec    rsi
    4cc4:	48 ff ce             	dec    rsi
    4cc7:	48 ff ce             	dec    rsi
    4cca:	48 ff ce             	dec    rsi
    4ccd:	48 ff ce             	dec    rsi
    4cd0:	48 ff ce             	dec    rsi
    4cd3:	48 ff ce             	dec    rsi
    4cd6:	fe 06                	inc    BYTE PTR [rsi]
    4cd8:	48 ff c6             	inc    rsi
    4cdb:	48 ff c6             	inc    rsi
    4cde:	48 ff c6             	inc    rsi
    4ce1:	48 ff c6             	inc    rsi
    4ce4:	48 ff c6             	inc    rsi
    4ce7:	48 ff c6             	inc    rsi
    4cea:	48 ff c6             	inc    rsi
    4ced:	48 ff c6             	inc    rsi
    4cf0:	48 ff c6             	inc    rsi
    4cf3:	48 ff c6             	inc    rsi
    4cf6:	48 ff c6             	inc    rsi
    4cf9:	48 ff c6             	inc    rsi
    4cfc:	8a 06                	mov    al,BYTE PTR [rsi]
    4cfe:	84 c0                	test   al,al
    4d00:	0f 84 15 00 00 00    	je     0x4d1b
    4d06:	fe 0e                	dec    BYTE PTR [rsi]
    4d08:	48 ff ce             	dec    rsi
    4d0b:	48 ff ce             	dec    rsi
    4d0e:	fe 06                	inc    BYTE PTR [rsi]
    4d10:	48 ff c6             	inc    rsi
    4d13:	48 ff c6             	inc    rsi
    4d16:	e9 e1 ff ff ff       	jmp    0x4cfc
    4d1b:	48 ff ce             	dec    rsi
    4d1e:	e9 84 ff ff ff       	jmp    0x4ca7
    4d23:	48 ff c6             	inc    rsi
    4d26:	8a 06                	mov    al,BYTE PTR [rsi]
    4d28:	84 c0                	test   al,al
    4d2a:	0f 84 53 00 00 00    	je     0x4d83
    4d30:	fe 0e                	dec    BYTE PTR [rsi]
    4d32:	48 ff ce             	dec    rsi
    4d35:	48 ff ce             	dec    rsi
    4d38:	fe 0e                	dec    BYTE PTR [rsi]
    4d3a:	48 ff ce             	dec    rsi
    4d3d:	48 ff ce             	dec    rsi
    4d40:	48 ff ce             	dec    rsi
    4d43:	48 ff ce             	dec    rsi
    4d46:	48 ff ce             	dec    rsi
    4d49:	48 ff ce             	dec    rsi
    4d4c:	48 ff ce             	dec    rsi
    4d4f:	48 ff ce             	dec    rsi
    4d52:	48 ff ce             	dec    rsi
    4d55:	48 ff ce             	dec    rsi
    4d58:	fe 06                	inc    BYTE PTR [rsi]
    4d5a:	48 ff c6             	inc    rsi
    4d5d:	48 ff c6             	inc    rsi
    4d60:	48 ff c6             	inc    rsi
    4d63:	48 ff c6             	inc    rsi
    4d66:	48 ff c6             	inc    rsi
    4d69:	48 ff c6             	inc    rsi
    4d6c:	48 ff c6             	inc    rsi
    4d6f:	48 ff c6             	inc    rsi
    4d72:	48 ff c6             	inc    rsi
    4d75:	48 ff c6             	inc    rsi
    4d78:	48 ff c6             	inc    rsi
    4d7b:	48 ff c6             	inc    rsi
    4d7e:	e9 a3 ff ff ff       	jmp    0x4d26
    4d83:	48 ff ce             	dec    rsi
    4d86:	48 ff ce             	dec    rsi
    4d89:	48 ff ce             	dec    rsi
    4d8c:	e9 02 ff ff ff       	jmp    0x4c93
    4d91:	48 ff c6             	inc    rsi
    4d94:	48 ff c6             	inc    rsi
    4d97:	8a 06                	mov    al,BYTE PTR [rsi]
    4d99:	84 c0                	test   al,al
    4d9b:	0f 84 72 00 00 00    	je     0x4e13
    4da1:	fe 0e                	dec    BYTE PTR [rsi]
    4da3:	48 ff ce             	dec    rsi
    4da6:	fe 06                	inc    BYTE PTR [rsi]
    4da8:	48 ff c6             	inc    rsi
    4dab:	48 ff c6             	inc    rsi
    4dae:	8a 06                	mov    al,BYTE PTR [rsi]
    4db0:	84 c0                	test   al,al
    4db2:	0f 84 53 00 00 00    	je     0x4e0b
    4db8:	fe 0e                	dec    BYTE PTR [rsi]
    4dba:	48 ff ce             	dec    rsi
    4dbd:	48 ff ce             	dec    rsi
    4dc0:	fe 0e                	dec    BYTE PTR [rsi]
    4dc2:	48 ff ce             	dec    rsi
    4dc5:	48 ff ce             	dec    rsi
    4dc8:	48 ff ce             	dec    rsi
    4dcb:	48 ff ce             	dec    rsi
    4dce:	48 ff ce             	dec    rsi
    4dd1:	48 ff ce             	dec    rsi
    4dd4:	48 ff ce             	dec    rsi
    4dd7:	48 ff ce             	dec    rsi
    4dda:	48 ff ce             	dec    rsi
    4ddd:	48 ff ce             	dec    rsi
    4de0:	fe 06                	inc    BYTE PTR [rsi]
    4de2:	48 ff c6             	inc    rsi
    4de5:	48 ff c6             	inc    rsi
    4de8:	48 ff c6             	inc    rsi
    4deb:	48 ff c6             	inc    rsi
    4dee:	48 ff c6             	inc    rsi
    4df1:	48 ff c6             	inc    rsi
    4df4:	48 ff c6             	inc    rsi
    4df7:	48 ff c6             	inc    rsi
    4dfa:	48 ff c6             	inc    rsi
    4dfd:	48 ff c6             	inc    rsi
    4e00:	48 ff c6             	inc    rsi
    4e03:	48 ff c6             	inc    rsi
    4e06:	e9 a3 ff ff ff       	jmp    0x4dae
    4e0b:	48 ff ce             	dec    rsi
    4e0e:	e9 84 ff ff ff       	jmp    0x4d97
    4e13:	48 ff c6             	inc    rsi
    4e16:	8a 06                	mov    al,BYTE PTR [rsi]
    4e18:	84 c0                	test   al,al
    4e1a:	0f 84 15 00 00 00    	je     0x4e35
    4e20:	fe 0e                	dec    BYTE PTR [rsi]
    4e22:	48 ff ce             	dec    rsi
    4e25:	48 ff ce             	dec    rsi
    4e28:	fe 06                	inc    BYTE PTR [rsi]
    4e2a:	48 ff c6             	inc    rsi
    4e2d:	48 ff c6             	inc    rsi
    4e30:	e9 e1 ff ff ff       	jmp    0x4e16
    4e35:	48 ff ce             	dec    rsi
    4e38:	48 ff ce             	dec    rsi
    4e3b:	48 ff ce             	dec    rsi
    4e3e:	48 ff ce             	dec    rsi
    4e41:	48 ff ce             	dec    rsi
    4e44:	48 ff ce             	dec    rsi
    4e47:	48 ff ce             	dec    rsi
    4e4a:	48 ff ce             	dec    rsi
    4e4d:	48 ff ce             	dec    rsi
    4e50:	48 ff ce             	dec    rsi
    4e53:	48 ff ce             	dec    rsi
    4e56:	48 ff ce             	dec    rsi
    4e59:	48 ff ce             	dec    rsi
    4e5c:	e9 25 fe ff ff       	jmp    0x4c86
    4e61:	e9 52 fd ff ff       	jmp    0x4bb8
    4e66:	48 ff c6             	inc    rsi
    4e69:	48 ff c6             	inc    rsi
    4e6c:	48 ff c6             	inc    rsi
    4e6f:	48 ff c6             	inc    rsi
    4e72:	8a 06                	mov    al,BYTE PTR [rsi]
    4e74:	84 c0                	test   al,al
    4e76:	0f 84 21 00 00 00    	je     0x4e9d
    4e7c:	fe 0e                	dec    BYTE PTR [rsi]
    4e7e:	48 ff ce             	dec    rsi
    4e81:	48 ff ce             	dec    rsi
    4e84:	48 ff ce             	dec    rsi
    4e87:	48 ff ce             	dec    rsi
    4e8a:	fe 06                	inc    BYTE PTR [rsi]
    4e8c:	48 ff c6             	inc    rsi
    4e8f:	48 ff c6             	inc    rsi
    4e92:	48 ff c6             	inc    rsi
    4e95:	48 ff c6             	inc    rsi
    4e98:	e9 d5 ff ff ff       	jmp    0x4e72
    4e9d:	48 ff ce             	dec    rsi
    4ea0:	48 ff ce             	dec    rsi
    4ea3:	48 ff ce             	dec    rsi
    4ea6:	48 ff ce             	dec    rsi
    4ea9:	8a 06                	mov    al,BYTE PTR [rsi]
    4eab:	84 c0                	test   al,al
    4ead:	0f 84 9a 02 00 00    	je     0x514d
    4eb3:	fe 0e                	dec    BYTE PTR [rsi]
    4eb5:	48 ff c6             	inc    rsi
    4eb8:	48 ff c6             	inc    rsi
    4ebb:	48 ff c6             	inc    rsi
    4ebe:	48 ff c6             	inc    rsi
    4ec1:	fe 06                	inc    BYTE PTR [rsi]
    4ec3:	48 ff c6             	inc    rsi
    4ec6:	48 ff c6             	inc    rsi
    4ec9:	48 ff c6             	inc    rsi
    4ecc:	48 ff c6             	inc    rsi
    4ecf:	48 ff c6             	inc    rsi
    4ed2:	8a 06                	mov    al,BYTE PTR [rsi]
    4ed4:	84 c0                	test   al,al
    4ed6:	0f 84 6c 00 00 00    	je     0x4f48
    4edc:	48 ff c6             	inc    rsi
    4edf:	fe 06                	inc    BYTE PTR [rsi]
    4ee1:	48 ff c6             	inc    rsi
    4ee4:	48 ff c6             	inc    rsi
    4ee7:	8a 06                	mov    al,BYTE PTR [rsi]
    4ee9:	84 c0                	test   al,al
    4eeb:	0f 84 15 00 00 00    	je     0x4f06
    4ef1:	fe 0e                	dec    BYTE PTR [rsi]
    4ef3:	48 ff ce             	dec    rsi
    4ef6:	48 ff ce             	dec    rsi
    4ef9:	fe 0e                	dec    BYTE PTR [rsi]
    4efb:	48 ff c6             	inc    rsi
    4efe:	48 ff c6             	inc    rsi
    4f01:	e9 e1 ff ff ff       	jmp    0x4ee7
    4f06:	48 ff ce             	dec    rsi
    4f09:	48 ff ce             	dec    rsi
    4f0c:	8a 06                	mov    al,BYTE PTR [rsi]
    4f0e:	84 c0                	test   al,al
    4f10:	0f 84 15 00 00 00    	je     0x4f2b
    4f16:	fe 0e                	dec    BYTE PTR [rsi]
    4f18:	48 ff c6             	inc    rsi
    4f1b:	48 ff c6             	inc    rsi
    4f1e:	fe 06                	inc    BYTE PTR [rsi]
    4f20:	48 ff ce             	dec    rsi
    4f23:	48 ff ce             	dec    rsi
    4f26:	e9 e1 ff ff ff       	jmp    0x4f0c
    4f2b:	48 ff c6             	inc    rsi
    4f2e:	48 ff c6             	inc    rsi
    4f31:	48 ff c6             	inc    rsi
    4f34:	48 ff c6             	inc    rsi
    4f37:	48 ff c6             	inc    rsi
    4f3a:	48 ff c6             	inc    rsi
    4f3d:	48 ff c6             	inc    rsi
    4f40:	48 ff c6             	inc    rsi
    4f43:	e9 8a ff ff ff       	jmp    0x4ed2
    4f48:	48 ff ce             	dec    rsi
    4f4b:	48 ff ce             	dec    rsi
    4f4e:	48 ff ce             	dec    rsi
    4f51:	48 ff ce             	dec    rsi
    4f54:	48 ff ce             	dec    rsi
    4f57:	48 ff ce             	dec    rsi
    4f5a:	48 ff ce             	dec    rsi
    4f5d:	48 ff ce             	dec    rsi
    4f60:	fe 06                	inc    BYTE PTR [rsi]
    4f62:	48 ff ce             	dec    rsi
    4f65:	8a 06                	mov    al,BYTE PTR [rsi]
    4f67:	84 c0                	test   al,al
    4f69:	0f 84 b9 01 00 00    	je     0x5128
    4f6f:	48 ff c6             	inc    rsi
    4f72:	8a 06                	mov    al,BYTE PTR [rsi]
    4f74:	84 c0                	test   al,al
    4f76:	0f 84 e8 00 00 00    	je     0x5064
    4f7c:	fe 0e                	dec    BYTE PTR [rsi]
    4f7e:	48 ff c6             	inc    rsi
    4f81:	fe 06                	inc    BYTE PTR [rsi]
    4f83:	48 ff c6             	inc    rsi
    4f86:	48 ff c6             	inc    rsi
    4f89:	8a 06                	mov    al,BYTE PTR [rsi]
    4f8b:	84 c0                	test   al,al
    4f8d:	0f 84 6c 00 00 00    	je     0x4fff
    4f93:	fe 0e                	dec    BYTE PTR [rsi]
    4f95:	48 ff ce             	dec    rsi
    4f98:	48 ff ce             	dec    rsi
    4f9b:	fe 0e                	dec    BYTE PTR [rsi]
    4f9d:	48 ff ce             	dec    rsi
    4fa0:	48 ff ce             	dec    rsi
    4fa3:	48 ff ce             	dec    rsi
    4fa6:	48 ff ce             	dec    rsi
    4fa9:	48 ff ce             	dec    rsi
    4fac:	48 ff ce             	dec    rsi
    4faf:	48 ff ce             	dec    rsi
    4fb2:	48 ff ce             	dec    rsi
    4fb5:	48 ff ce             	dec    rsi
    4fb8:	48 ff ce             	dec    rsi
    4fbb:	fe 06                	inc    BYTE PTR [rsi]
    4fbd:	48 ff c6             	inc    rsi
    4fc0:	48 ff c6             	inc    rsi
    4fc3:	48 ff c6             	inc    rsi
    4fc6:	48 ff c6             	inc    rsi
    4fc9:	48 ff c6             	inc    rsi
    4fcc:	48 ff c6             	inc    rsi
    4fcf:	48 ff c6             	inc    rsi
    4fd2:	48 ff c6             	inc    rsi
    4fd5:	48 ff c6             	inc    rsi
    4fd8:	48 ff c6             	inc    rsi
    4fdb:	48 ff c6             	inc    rsi
    4fde:	8a 06                	mov    al,BYTE PTR [rsi]
    4fe0:	84 c0                	test   al,al
    4fe2:	0f 84 0f 00 00 00    	je     0x4ff7
    4fe8:	fe 0e                	dec    BYTE PTR [rsi]
    4fea:	48 ff ce             	dec    rsi
    4fed:	fe 06                	inc    BYTE PTR [rsi]
    4fef:	48 ff c6             	inc    rsi
    4ff2:	e9 e7 ff ff ff       	jmp    0x4fde
    4ff7:	48 ff c6             	inc    rsi
    4ffa:	e9 8a ff ff ff       	jmp    0x4f89
    4fff:	48 ff ce             	dec    rsi
    5002:	8a 06                	mov    al,BYTE PTR [rsi]
    5004:	84 c0                	test   al,al
    5006:	0f 84 4d 00 00 00    	je     0x5059
    500c:	fe 0e                	dec    BYTE PTR [rsi]
    500e:	48 ff ce             	dec    rsi
    5011:	fe 0e                	dec    BYTE PTR [rsi]
    5013:	48 ff ce             	dec    rsi
    5016:	48 ff ce             	dec    rsi
    5019:	48 ff ce             	dec    rsi
    501c:	48 ff ce             	dec    rsi
    501f:	48 ff ce             	dec    rsi
    5022:	48 ff ce             	dec    rsi
    5025:	48 ff ce             	dec    rsi
    5028:	48 ff ce             	dec    rsi
    502b:	48 ff ce             	dec    rsi
    502e:	48 ff ce             	dec    rsi
    5031:	fe 06                	inc    BYTE PTR [rsi]
    5033:	48 ff c6             	inc    rsi
    5036:	48 ff c6             	inc    rsi
    5039:	48 ff c6             	inc    rsi
    503c:	48 ff c6             	inc    rsi
    503f:	48 ff c6             	inc    rsi
    5042:	48 ff c6             	inc    rsi
    5045:	48 ff c6             	inc    rsi
    5048:	48 ff c6             	inc    rsi
    504b:	48 ff c6             	inc    rsi
    504e:	48 ff c6             	inc    rsi
    5051:	48 ff c6             	inc    rsi
    5054:	e9 a9 ff ff ff       	jmp    0x5002
    5059:	48 ff ce             	dec    rsi
    505c:	48 ff ce             	dec    rsi
    505f:	e9 0e ff ff ff       	jmp    0x4f72
    5064:	48 ff c6             	inc    rsi
    5067:	48 ff c6             	inc    rsi
    506a:	48 ff c6             	inc    rsi
    506d:	8a 06                	mov    al,BYTE PTR [rsi]
    506f:	84 c0                	test   al,al
    5071:	0f 84 6c 00 00 00    	je     0x50e3
    5077:	fe 0e                	dec    BYTE PTR [rsi]
    5079:	48 ff ce             	dec    rsi
    507c:	48 ff ce             	dec    rsi
    507f:	fe 06                	inc    BYTE PTR [rsi]
    5081:	48 ff c6             	inc    rsi
    5084:	8a 06                	mov    al,BYTE PTR [rsi]
    5086:	84 c0                	test   al,al
    5088:	0f 84 4d 00 00 00    	je     0x50db
    508e:	fe 0e                	dec    BYTE PTR [rsi]
    5090:	48 ff ce             	dec    rsi
    5093:	fe 0e                	dec    BYTE PTR [rsi]
    5095:	48 ff ce             	dec    rsi
    5098:	48 ff ce             	dec    rsi
    509b:	48 ff ce             	dec    rsi
    509e:	48 ff ce             	dec    rsi
    50a1:	48 ff ce             	dec    rsi
    50a4:	48 ff ce             	dec    rsi
    50a7:	48 ff ce             	dec    rsi
    50aa:	48 ff ce             	dec    rsi
    50ad:	48 ff ce             	dec    rsi
    50b0:	48 ff ce             	dec    rsi
    50b3:	fe 06                	inc    BYTE PTR [rsi]
    50b5:	48 ff c6             	inc    rsi
    50b8:	48 ff c6             	inc    rsi
    50bb:	48 ff c6             	inc    rsi
    50be:	48 ff c6             	inc    rsi
    50c1:	48 ff c6             	inc    rsi
    50c4:	48 ff c6             	inc    rsi
    50c7:	48 ff c6             	inc    rsi
    50ca:	48 ff c6             	inc    rsi
    50cd:	48 ff c6             	inc    rsi
    50d0:	48 ff c6             	inc    rsi
    50d3:	48 ff c6             	inc    rsi
    50d6:	e9 a9 ff ff ff       	jmp    0x5084
    50db:	48 ff c6             	inc    rsi
    50de:	e9 8a ff ff ff       	jmp    0x506d
    50e3:	48 ff ce             	dec    rsi
    50e6:	8a 06                	mov    al,BYTE PTR [rsi]
    50e8:	84 c0                	test   al,al
    50ea:	0f 84 0f 00 00 00    	je     0x50ff
    50f0:	fe 0e                	dec    BYTE PTR [rsi]
    50f2:	48 ff ce             	dec    rsi
    50f5:	fe 06                	inc    BYTE PTR [rsi]
    50f7:	48 ff c6             	inc    rsi
    50fa:	e9 e7 ff ff ff       	jmp    0x50e6
    50ff:	48 ff ce             	dec    rsi
    5102:	48 ff ce             	dec    rsi
    5105:	48 ff ce             	dec    rsi
    5108:	48 ff ce             	dec    rsi
    510b:	48 ff ce             	dec    rsi
    510e:	48 ff ce             	dec    rsi
    5111:	48 ff ce             	dec    rsi
    5114:	48 ff ce             	dec    rsi
    5117:	48 ff ce             	dec    rsi
    511a:	48 ff ce             	dec    rsi
    511d:	48 ff ce             	dec    rsi
    5120:	48 ff ce             	dec    rsi
    5123:	e9 3d fe ff ff       	jmp    0x4f65
    5128:	48 ff c6             	inc    rsi
    512b:	48 ff c6             	inc    rsi
    512e:	48 ff c6             	inc    rsi
    5131:	48 ff c6             	inc    rsi
    5134:	48 ff c6             	inc    rsi
    5137:	fe 06                	inc    BYTE PTR [rsi]
    5139:	48 ff ce             	dec    rsi
    513c:	48 ff ce             	dec    rsi
    513f:	48 ff ce             	dec    rsi
    5142:	48 ff ce             	dec    rsi
    5145:	48 ff ce             	dec    rsi
    5148:	e9 5c fd ff ff       	jmp    0x4ea9
    514d:	48 ff c6             	inc    rsi
    5150:	48 ff c6             	inc    rsi
    5153:	48 ff c6             	inc    rsi
    5156:	48 ff c6             	inc    rsi
    5159:	48 ff c6             	inc    rsi
    515c:	48 ff c6             	inc    rsi
    515f:	48 ff c6             	inc    rsi
    5162:	48 ff c6             	inc    rsi
    5165:	48 ff c6             	inc    rsi
    5168:	8a 06                	mov    al,BYTE PTR [rsi]
    516a:	84 c0                	test   al,al
    516c:	0f 84 53 00 00 00    	je     0x51c5
    5172:	48 ff c6             	inc    rsi
    5175:	48 ff c6             	inc    rsi
    5178:	48 ff c6             	inc    rsi
    517b:	8a 06                	mov    al,BYTE PTR [rsi]
    517d:	84 c0                	test   al,al
    517f:	0f 84 07 00 00 00    	je     0x518c
    5185:	fe 0e                	dec    BYTE PTR [rsi]
    5187:	e9 ef ff ff ff       	jmp    0x517b
    518c:	48 ff c6             	inc    rsi
    518f:	8a 06                	mov    al,BYTE PTR [rsi]
    5191:	84 c0                	test   al,al
    5193:	0f 84 07 00 00 00    	je     0x51a0
    5199:	fe 0e                	dec    BYTE PTR [rsi]
    519b:	e9 ef ff ff ff       	jmp    0x518f
    51a0:	48 ff c6             	inc    rsi
    51a3:	8a 06                	mov    al,BYTE PTR [rsi]
    51a5:	84 c0                	test   al,al
    51a7:	0f 84 07 00 00 00    	je     0x51b4
    51ad:	fe 0e                	dec    BYTE PTR [rsi]
    51af:	e9 ef ff ff ff       	jmp    0x51a3
    51b4:	48 ff c6             	inc    rsi
    51b7:	48 ff c6             	inc    rsi
    51ba:	48 ff c6             	inc    rsi
    51bd:	48 ff c6             	inc    rsi
    51c0:	e9 a3 ff ff ff       	jmp    0x5168
    51c5:	48 ff ce             	dec    rsi
    51c8:	48 ff ce             	dec    rsi
    51cb:	48 ff ce             	dec    rsi
    51ce:	48 ff ce             	dec    rsi
    51d1:	48 ff ce             	dec    rsi
    51d4:	48 ff ce             	dec    rsi
    51d7:	48 ff ce             	dec    rsi
    51da:	48 ff ce             	dec    rsi
    51dd:	48 ff ce             	dec    rsi
    51e0:	8a 06                	mov    al,BYTE PTR [rsi]
    51e2:	84 c0                	test   al,al
    51e4:	0f 84 20 00 00 00    	je     0x520a
    51ea:	48 ff ce             	dec    rsi
    51ed:	48 ff ce             	dec    rsi
    51f0:	48 ff ce             	dec    rsi
    51f3:	48 ff ce             	dec    rsi
    51f6:	48 ff ce             	dec    rsi
    51f9:	48 ff ce             	dec    rsi
    51fc:	48 ff ce             	dec    rsi
    51ff:	48 ff ce             	dec    rsi
    5202:	48 ff ce             	dec    rsi
    5205:	e9 d6 ff ff ff       	jmp    0x51e0
    520a:	48 ff c6             	inc    rsi
    520d:	48 ff c6             	inc    rsi
    5210:	48 ff c6             	inc    rsi
    5213:	8a 06                	mov    al,BYTE PTR [rsi]
    5215:	84 c0                	test   al,al
    5217:	0f 84 07 00 00 00    	je     0x5224
    521d:	fe 0e                	dec    BYTE PTR [rsi]
    521f:	e9 ef ff ff ff       	jmp    0x5213
    5224:	48 ff c6             	inc    rsi
    5227:	8a 06                	mov    al,BYTE PTR [rsi]
    5229:	84 c0                	test   al,al
    522b:	0f 84 07 00 00 00    	je     0x5238
    5231:	fe 0e                	dec    BYTE PTR [rsi]
    5233:	e9 ef ff ff ff       	jmp    0x5227
    5238:	48 ff c6             	inc    rsi
    523b:	48 ff c6             	inc    rsi
    523e:	48 ff c6             	inc    rsi
    5241:	48 ff c6             	inc    rsi
    5244:	48 ff c6             	inc    rsi
    5247:	8a 06                	mov    al,BYTE PTR [rsi]
    5249:	84 c0                	test   al,al
    524b:	0f 84 b4 00 00 00    	je     0x5305
    5251:	48 ff c6             	inc    rsi
    5254:	48 ff c6             	inc    rsi
    5257:	48 ff c6             	inc    rsi
    525a:	48 ff c6             	inc    rsi
    525d:	48 ff c6             	inc    rsi
    5260:	48 ff c6             	inc    rsi
    5263:	48 ff c6             	inc    rsi
    5266:	8a 06                	mov    al,BYTE PTR [rsi]
    5268:	84 c0                	test   al,al
    526a:	0f 84 2d 00 00 00    	je     0x529d
    5270:	fe 0e                	dec    BYTE PTR [rsi]
    5272:	48 ff ce             	dec    rsi
    5275:	48 ff ce             	dec    rsi
    5278:	48 ff ce             	dec    rsi
    527b:	48 ff ce             	dec    rsi
    527e:	48 ff ce             	dec    rsi
    5281:	48 ff ce             	dec    rsi
    5284:	fe 06                	inc    BYTE PTR [rsi]
    5286:	48 ff c6             	inc    rsi
    5289:	48 ff c6             	inc    rsi
    528c:	48 ff c6             	inc    rsi
    528f:	48 ff c6             	inc    rsi
    5292:	48 ff c6             	inc    rsi
    5295:	48 ff c6             	inc    rsi
    5298:	e9 c9 ff ff ff       	jmp    0x5266
    529d:	48 ff ce             	dec    rsi
    52a0:	48 ff ce             	dec    rsi
    52a3:	48 ff ce             	dec    rsi
    52a6:	48 ff ce             	dec    rsi
    52a9:	48 ff ce             	dec    rsi
    52ac:	48 ff ce             	dec    rsi
    52af:	8a 06                	mov    al,BYTE PTR [rsi]
    52b1:	84 c0                	test   al,al
    52b3:	0f 84 2f 00 00 00    	je     0x52e8
    52b9:	fe 0e                	dec    BYTE PTR [rsi]
    52bb:	48 ff c6             	inc    rsi
    52be:	48 ff c6             	inc    rsi
    52c1:	48 ff c6             	inc    rsi
    52c4:	48 ff c6             	inc    rsi
    52c7:	48 ff c6             	inc    rsi
    52ca:	48 ff c6             	inc    rsi
    52cd:	fe 06                	inc    BYTE PTR [rsi]
    52cf:	48 ff ce             	dec    rsi
    52d2:	48 ff ce             	dec    rsi
    52d5:	48 ff ce             	dec    rsi
    52d8:	48 ff ce             	dec    rsi
    52db:	fe 06                	inc    BYTE PTR [rsi]
    52dd:	48 ff ce             	dec    rsi
    52e0:	48 ff ce             	dec    rsi
    52e3:	e9 c7 ff ff ff       	jmp    0x52af
    52e8:	48 ff c6             	inc    rsi
    52eb:	48 ff c6             	inc    rsi
    52ee:	48 ff c6             	inc    rsi
    52f1:	48 ff c6             	inc    rsi
    52f4:	48 ff c6             	inc    rsi
    52f7:	48 ff c6             	inc    rsi
    52fa:	48 ff c6             	inc    rsi
    52fd:	48 ff c6             	inc    rsi
    5300:	e9 42 ff ff ff       	jmp    0x5247
    5305:	48 ff ce             	dec    rsi
    5308:	48 ff ce             	dec    rsi
    530b:	48 ff ce             	dec    rsi
    530e:	48 ff ce             	dec    rsi
    5311:	48 ff ce             	dec    rsi
    5314:	48 ff ce             	dec    rsi
    5317:	48 ff ce             	dec    rsi
    531a:	48 ff ce             	dec    rsi
    531d:	48 ff ce             	dec    rsi
    5320:	8a 06                	mov    al,BYTE PTR [rsi]
    5322:	84 c0                	test   al,al
    5324:	0f 84 20 00 00 00    	je     0x534a
    532a:	48 ff ce             	dec    rsi
    532d:	48 ff ce             	dec    rsi
    5330:	48 ff ce             	dec    rsi
    5333:	48 ff ce             	dec    rsi
    5336:	48 ff ce             	dec    rsi
    5339:	48 ff ce             	dec    rsi
    533c:	48 ff ce             	dec    rsi
    533f:	48 ff ce             	dec    rsi
    5342:	48 ff ce             	dec    rsi
    5345:	e9 d6 ff ff ff       	jmp    0x5320
    534a:	48 ff c6             	inc    rsi
    534d:	48 ff c6             	inc    rsi
    5350:	48 ff c6             	inc    rsi
    5353:	48 ff c6             	inc    rsi
    5356:	fe 06                	inc    BYTE PTR [rsi]
    5358:	48 ff c6             	inc    rsi
    535b:	8a 06                	mov    al,BYTE PTR [rsi]
    535d:	84 c0                	test   al,al
    535f:	0f 84 29 00 00 00    	je     0x538e
    5365:	fe 0e                	dec    BYTE PTR [rsi]
    5367:	48 ff ce             	dec    rsi
    536a:	fe 0e                	dec    BYTE PTR [rsi]
    536c:	48 ff ce             	dec    rsi
    536f:	48 ff ce             	dec    rsi
    5372:	48 ff ce             	dec    rsi
    5375:	48 ff ce             	dec    rsi
    5378:	fe 06                	inc    BYTE PTR [rsi]
    537a:	48 ff c6             	inc    rsi
    537d:	48 ff c6             	inc    rsi
    5380:	48 ff c6             	inc    rsi
    5383:	48 ff c6             	inc    rsi
    5386:	48 ff c6             	inc    rsi
    5389:	e9 cd ff ff ff       	jmp    0x535b
    538e:	48 ff c6             	inc    rsi
    5391:	48 ff c6             	inc    rsi
    5394:	8a 06                	mov    al,BYTE PTR [rsi]
    5396:	84 c0                	test   al,al
    5398:	0f 84 a1 00 00 00    	je     0x543f
    539e:	fe 0e                	dec    BYTE PTR [rsi]
    53a0:	48 ff ce             	dec    rsi
    53a3:	48 ff ce             	dec    rsi
    53a6:	48 ff ce             	dec    rsi
    53a9:	48 ff ce             	dec    rsi
    53ac:	48 ff ce             	dec    rsi
    53af:	48 ff ce             	dec    rsi
    53b2:	48 ff ce             	dec    rsi
    53b5:	8a 06                	mov    al,BYTE PTR [rsi]
    53b7:	84 c0                	test   al,al
    53b9:	0f 84 2b 00 00 00    	je     0x53ea
    53bf:	fe 0e                	dec    BYTE PTR [rsi]
    53c1:	48 ff c6             	inc    rsi
    53c4:	48 ff c6             	inc    rsi
    53c7:	48 ff c6             	inc    rsi
    53ca:	48 ff c6             	inc    rsi
    53cd:	48 ff c6             	inc    rsi
    53d0:	fe 06                	inc    BYTE PTR [rsi]
    53d2:	48 ff ce             	dec    rsi
    53d5:	fe 06                	inc    BYTE PTR [rsi]
    53d7:	fe 06                	inc    BYTE PTR [rsi]
    53d9:	48 ff ce             	dec    rsi
    53dc:	48 ff ce             	dec    rsi
    53df:	48 ff ce             	dec    rsi
    53e2:	48 ff ce             	dec    rsi
    53e5:	e9 cb ff ff ff       	jmp    0x53b5
    53ea:	48 ff c6             	inc    rsi
    53ed:	48 ff c6             	inc    rsi
    53f0:	48 ff c6             	inc    rsi
    53f3:	48 ff c6             	inc    rsi
    53f6:	48 ff c6             	inc    rsi
    53f9:	8a 06                	mov    al,BYTE PTR [rsi]
    53fb:	84 c0                	test   al,al
    53fd:	0f 84 27 00 00 00    	je     0x542a
    5403:	fe 0e                	dec    BYTE PTR [rsi]
    5405:	48 ff ce             	dec    rsi
    5408:	48 ff ce             	dec    rsi
    540b:	48 ff ce             	dec    rsi
    540e:	48 ff ce             	dec    rsi
    5411:	48 ff ce             	dec    rsi
    5414:	fe 06                	inc    BYTE PTR [rsi]
    5416:	48 ff c6             	inc    rsi
    5419:	48 ff c6             	inc    rsi
    541c:	48 ff c6             	inc    rsi
    541f:	48 ff c6             	inc    rsi
    5422:	48 ff c6             	inc    rsi
    5425:	e9 cf ff ff ff       	jmp    0x53f9
    542a:	48 ff ce             	dec    rsi
    542d:	fe 0e                	dec    BYTE PTR [rsi]
    542f:	48 ff c6             	inc    rsi
    5432:	fe 06                	inc    BYTE PTR [rsi]
    5434:	48 ff c6             	inc    rsi
    5437:	48 ff c6             	inc    rsi
    543a:	e9 55 ff ff ff       	jmp    0x5394
    543f:	48 ff ce             	dec    rsi
    5442:	48 ff ce             	dec    rsi
    5445:	8a 06                	mov    al,BYTE PTR [rsi]
    5447:	84 c0                	test   al,al
    5449:	0f 84 15 00 00 00    	je     0x5464
    544f:	fe 0e                	dec    BYTE PTR [rsi]
    5451:	48 ff c6             	inc    rsi
    5454:	48 ff c6             	inc    rsi
    5457:	fe 06                	inc    BYTE PTR [rsi]
    5459:	48 ff ce             	dec    rsi
    545c:	48 ff ce             	dec    rsi
    545f:	e9 e1 ff ff ff       	jmp    0x5445
    5464:	48 ff ce             	dec    rsi
    5467:	48 ff ce             	dec    rsi
    546a:	48 ff ce             	dec    rsi
    546d:	48 ff ce             	dec    rsi
    5470:	48 ff ce             	dec    rsi
    5473:	8a 06                	mov    al,BYTE PTR [rsi]
    5475:	84 c0                	test   al,al
    5477:	0f 84 27 00 00 00    	je     0x54a4
    547d:	fe 0e                	dec    BYTE PTR [rsi]
    547f:	48 ff c6             	inc    rsi
    5482:	48 ff c6             	inc    rsi
    5485:	48 ff c6             	inc    rsi
    5488:	48 ff c6             	inc    rsi
    548b:	48 ff c6             	inc    rsi
    548e:	fe 06                	inc    BYTE PTR [rsi]
    5490:	48 ff ce             	dec    rsi
    5493:	48 ff ce             	dec    rsi
    5496:	48 ff ce             	dec    rsi
    5499:	48 ff ce             	dec    rsi
    549c:	48 ff ce             	dec    rsi
    549f:	e9 cf ff ff ff       	jmp    0x5473
    54a4:	fe 06                	inc    BYTE PTR [rsi]
    54a6:	48 ff c6             	inc    rsi
    54a9:	48 ff c6             	inc    rsi
    54ac:	48 ff c6             	inc    rsi
    54af:	48 ff c6             	inc    rsi
    54b2:	8a 06                	mov    al,BYTE PTR [rsi]
    54b4:	84 c0                	test   al,al
    54b6:	0f 84 21 00 00 00    	je     0x54dd
    54bc:	fe 0e                	dec    BYTE PTR [rsi]
    54be:	48 ff ce             	dec    rsi
    54c1:	48 ff ce             	dec    rsi
    54c4:	48 ff ce             	dec    rsi
    54c7:	48 ff ce             	dec    rsi
    54ca:	fe 0e                	dec    BYTE PTR [rsi]
    54cc:	48 ff c6             	inc    rsi
    54cf:	48 ff c6             	inc    rsi
    54d2:	48 ff c6             	inc    rsi
    54d5:	48 ff c6             	inc    rsi
    54d8:	e9 d5 ff ff ff       	jmp    0x54b2
    54dd:	fe 06                	inc    BYTE PTR [rsi]
    54df:	48 ff ce             	dec    rsi
    54e2:	48 ff ce             	dec    rsi
    54e5:	48 ff ce             	dec    rsi
    54e8:	48 ff ce             	dec    rsi
    54eb:	8a 06                	mov    al,BYTE PTR [rsi]
    54ed:	84 c0                	test   al,al
    54ef:	0f 84 48 0a 00 00    	je     0x5f3d
    54f5:	fe 0e                	dec    BYTE PTR [rsi]
    54f7:	48 ff c6             	inc    rsi
    54fa:	48 ff c6             	inc    rsi
    54fd:	48 ff c6             	inc    rsi
    5500:	48 ff c6             	inc    rsi
    5503:	fe 0e                	dec    BYTE PTR [rsi]
    5505:	48 ff c6             	inc    rsi
    5508:	48 ff c6             	inc    rsi
    550b:	48 ff c6             	inc    rsi
    550e:	48 ff c6             	inc    rsi
    5511:	48 ff c6             	inc    rsi
    5514:	8a 06                	mov    al,BYTE PTR [rsi]
    5516:	84 c0                	test   al,al
    5518:	0f 84 0d 03 00 00    	je     0x582b
    551e:	48 ff c6             	inc    rsi
    5521:	48 ff c6             	inc    rsi
    5524:	48 ff c6             	inc    rsi
    5527:	8a 06                	mov    al,BYTE PTR [rsi]
    5529:	84 c0                	test   al,al
    552b:	0f 84 1b 00 00 00    	je     0x554c
    5531:	fe 0e                	dec    BYTE PTR [rsi]
    5533:	48 ff ce             	dec    rsi
    5536:	48 ff ce             	dec    rsi
    5539:	48 ff ce             	dec    rsi
    553c:	fe 0e                	dec    BYTE PTR [rsi]
    553e:	48 ff c6             	inc    rsi
    5541:	48 ff c6             	inc    rsi
    5544:	48 ff c6             	inc    rsi
    5547:	e9 db ff ff ff       	jmp    0x5527
    554c:	fe 06                	inc    BYTE PTR [rsi]
    554e:	48 ff ce             	dec    rsi
    5551:	48 ff ce             	dec    rsi
    5554:	48 ff ce             	dec    rsi
    5557:	8a 06                	mov    al,BYTE PTR [rsi]
    5559:	84 c0                	test   al,al
    555b:	0f 84 fe 00 00 00    	je     0x565f
    5561:	fe 0e                	dec    BYTE PTR [rsi]
    5563:	48 ff c6             	inc    rsi
    5566:	48 ff c6             	inc    rsi
    5569:	48 ff c6             	inc    rsi
    556c:	fe 0e                	dec    BYTE PTR [rsi]
    556e:	48 ff ce             	dec    rsi
    5571:	8a 06                	mov    al,BYTE PTR [rsi]
    5573:	84 c0                	test   al,al
    5575:	0f 84 15 00 00 00    	je     0x5590
    557b:	fe 0e                	dec    BYTE PTR [rsi]
    557d:	48 ff ce             	dec    rsi
    5580:	48 ff ce             	dec    rsi
    5583:	fe 06                	inc    BYTE PTR [rsi]
    5585:	48 ff c6             	inc    rsi
    5588:	48 ff c6             	inc    rsi
    558b:	e9 e1 ff ff ff       	jmp    0x5571
    5590:	48 ff ce             	dec    rsi
    5593:	48 ff ce             	dec    rsi
    5596:	8a 06                	mov    al,BYTE PTR [rsi]
    5598:	84 c0                	test   al,al
    559a:	0f 84 ba 00 00 00    	je     0x565a
    55a0:	fe 0e                	dec    BYTE PTR [rsi]
    55a2:	48 ff c6             	inc    rsi
    55a5:	48 ff c6             	inc    rsi
    55a8:	fe 06                	inc    BYTE PTR [rsi]
    55aa:	48 ff ce             	dec    rsi
    55ad:	48 ff ce             	dec    rsi
    55b0:	48 ff ce             	dec    rsi
    55b3:	48 ff ce             	dec    rsi
    55b6:	48 ff ce             	dec    rsi
    55b9:	48 ff ce             	dec    rsi
    55bc:	48 ff ce             	dec    rsi
    55bf:	48 ff ce             	dec    rsi
    55c2:	48 ff ce             	dec    rsi
    55c5:	48 ff ce             	dec    rsi
    55c8:	48 ff ce             	dec    rsi
    55cb:	8a 06                	mov    al,BYTE PTR [rsi]
    55cd:	84 c0                	test   al,al
    55cf:	0f 84 20 00 00 00    	je     0x55f5
    55d5:	48 ff ce             	dec    rsi
    55d8:	48 ff ce             	dec    rsi
    55db:	48 ff ce             	dec    rsi
    55de:	48 ff ce             	dec    rsi
    55e1:	48 ff ce             	dec    rsi
    55e4:	48 ff ce             	dec    rsi
    55e7:	48 ff ce             	dec    rsi
    55ea:	48 ff ce             	dec    rsi
    55ed:	48 ff ce             	dec    rsi
    55f0:	e9 d6 ff ff ff       	jmp    0x55cb
    55f5:	48 ff c6             	inc    rsi
    55f8:	48 ff c6             	inc    rsi
    55fb:	48 ff c6             	inc    rsi
    55fe:	48 ff c6             	inc    rsi
    5601:	8a 06                	mov    al,BYTE PTR [rsi]
    5603:	84 c0                	test   al,al
    5605:	0f 84 07 00 00 00    	je     0x5612
    560b:	fe 0e                	dec    BYTE PTR [rsi]
    560d:	e9 ef ff ff ff       	jmp    0x5601
    5612:	fe 06                	inc    BYTE PTR [rsi]
    5614:	48 ff c6             	inc    rsi
    5617:	48 ff c6             	inc    rsi
    561a:	48 ff c6             	inc    rsi
    561d:	48 ff c6             	inc    rsi
    5620:	48 ff c6             	inc    rsi
    5623:	8a 06                	mov    al,BYTE PTR [rsi]
    5625:	84 c0                	test   al,al
    5627:	0f 84 20 00 00 00    	je     0x564d
    562d:	48 ff c6             	inc    rsi
    5630:	48 ff c6             	inc    rsi
    5633:	48 ff c6             	inc    rsi
    5636:	48 ff c6             	inc    rsi
    5639:	48 ff c6             	inc    rsi
    563c:	48 ff c6             	inc    rsi
    563f:	48 ff c6             	inc    rsi
    5642:	48 ff c6             	inc    rsi
    5645:	48 ff c6             	inc    rsi
    5648:	e9 d6 ff ff ff       	jmp    0x5623
    564d:	48 ff c6             	inc    rsi
    5650:	fe 06                	inc    BYTE PTR [rsi]
    5652:	48 ff ce             	dec    rsi
    5655:	e9 3c ff ff ff       	jmp    0x5596
    565a:	e9 f8 fe ff ff       	jmp    0x5557
    565f:	fe 06                	inc    BYTE PTR [rsi]
    5661:	48 ff c6             	inc    rsi
    5664:	48 ff c6             	inc    rsi
    5667:	8a 06                	mov    al,BYTE PTR [rsi]
    5669:	84 c0                	test   al,al
    566b:	0f 84 15 00 00 00    	je     0x5686
    5671:	fe 0e                	dec    BYTE PTR [rsi]
    5673:	48 ff ce             	dec    rsi
    5676:	48 ff ce             	dec    rsi
    5679:	fe 0e                	dec    BYTE PTR [rsi]
    567b:	48 ff c6             	inc    rsi
    567e:	48 ff c6             	inc    rsi
    5681:	e9 e1 ff ff ff       	jmp    0x5667
    5686:	fe 06                	inc    BYTE PTR [rsi]
    5688:	48 ff ce             	dec    rsi
    568b:	48 ff ce             	dec    rsi
    568e:	8a 06                	mov    al,BYTE PTR [rsi]
    5690:	84 c0                	test   al,al
    5692:	0f 84 1b 01 00 00    	je     0x57b3
    5698:	fe 0e                	dec    BYTE PTR [rsi]
    569a:	48 ff c6             	inc    rsi
    569d:	48 ff c6             	inc    rsi
    56a0:	fe 0e                	dec    BYTE PTR [rsi]
    56a2:	48 ff c6             	inc    rsi
    56a5:	8a 06                	mov    al,BYTE PTR [rsi]
    56a7:	84 c0                	test   al,al
    56a9:	0f 84 1b 00 00 00    	je     0x56ca
    56af:	fe 0e                	dec    BYTE PTR [rsi]
    56b1:	48 ff ce             	dec    rsi
    56b4:	48 ff ce             	dec    rsi
    56b7:	48 ff ce             	dec    rsi
    56ba:	fe 06                	inc    BYTE PTR [rsi]
    56bc:	48 ff c6             	inc    rsi
    56bf:	48 ff c6             	inc    rsi
    56c2:	48 ff c6             	inc    rsi
    56c5:	e9 db ff ff ff       	jmp    0x56a5
    56ca:	48 ff ce             	dec    rsi
    56cd:	48 ff ce             	dec    rsi
    56d0:	48 ff ce             	dec    rsi
    56d3:	8a 06                	mov    al,BYTE PTR [rsi]
    56d5:	84 c0                	test   al,al
    56d7:	0f 84 d1 00 00 00    	je     0x57ae
    56dd:	fe 0e                	dec    BYTE PTR [rsi]
    56df:	48 ff c6             	inc    rsi
    56e2:	48 ff c6             	inc    rsi
    56e5:	48 ff c6             	inc    rsi
    56e8:	fe 06                	inc    BYTE PTR [rsi]
    56ea:	48 ff ce             	dec    rsi
    56ed:	48 ff ce             	dec    rsi
    56f0:	48 ff ce             	dec    rsi
    56f3:	48 ff ce             	dec    rsi
    56f6:	48 ff ce             	dec    rsi
    56f9:	48 ff ce             	dec    rsi
    56fc:	48 ff ce             	dec    rsi
    56ff:	48 ff ce             	dec    rsi
    5702:	48 ff ce             	dec    rsi
    5705:	48 ff ce             	dec    rsi
    5708:	48 ff ce             	dec    rsi
    570b:	48 ff ce             	dec    rsi
    570e:	8a 06                	mov    al,BYTE PTR [rsi]
    5710:	84 c0                	test   al,al
    5712:	0f 84 20 00 00 00    	je     0x5738
    5718:	48 ff ce             	dec    rsi
    571b:	48 ff ce             	dec    rsi
    571e:	48 ff ce             	dec    rsi
    5721:	48 ff ce             	dec    rsi
    5724:	48 ff ce             	dec    rsi
    5727:	48 ff ce             	dec    rsi
    572a:	48 ff ce             	dec    rsi
    572d:	48 ff ce             	dec    rsi
    5730:	48 ff ce             	dec    rsi
    5733:	e9 d6 ff ff ff       	jmp    0x570e
    5738:	48 ff c6             	inc    rsi
    573b:	48 ff c6             	inc    rsi
    573e:	48 ff c6             	inc    rsi
    5741:	8a 06                	mov    al,BYTE PTR [rsi]
    5743:	84 c0                	test   al,al
    5745:	0f 84 07 00 00 00    	je     0x5752
    574b:	fe 0e                	dec    BYTE PTR [rsi]
    574d:	e9 ef ff ff ff       	jmp    0x5741
    5752:	fe 06                	inc    BYTE PTR [rsi]
    5754:	48 ff c6             	inc    rsi
    5757:	48 ff c6             	inc    rsi
    575a:	48 ff c6             	inc    rsi
    575d:	48 ff c6             	inc    rsi
    5760:	48 ff c6             	inc    rsi
    5763:	48 ff c6             	inc    rsi
    5766:	8a 06                	mov    al,BYTE PTR [rsi]
    5768:	84 c0                	test   al,al
    576a:	0f 84 20 00 00 00    	je     0x5790
    5770:	48 ff c6             	inc    rsi
    5773:	48 ff c6             	inc    rsi
    5776:	48 ff c6             	inc    rsi
    5779:	48 ff c6             	inc    rsi
    577c:	48 ff c6             	inc    rsi
    577f:	48 ff c6             	inc    rsi
    5782:	48 ff c6             	inc    rsi
    5785:	48 ff c6             	inc    rsi
    5788:	48 ff c6             	inc    rsi
    578b:	e9 d6 ff ff ff       	jmp    0x5766
    5790:	48 ff c6             	inc    rsi
    5793:	8a 06                	mov    al,BYTE PTR [rsi]
    5795:	84 c0                	test   al,al
    5797:	0f 84 07 00 00 00    	je     0x57a4
    579d:	fe 0e                	dec    BYTE PTR [rsi]
    579f:	e9 ef ff ff ff       	jmp    0x5793
    57a4:	fe 06                	inc    BYTE PTR [rsi]
    57a6:	48 ff ce             	dec    rsi
    57a9:	e9 25 ff ff ff       	jmp    0x56d3
    57ae:	e9 db fe ff ff       	jmp    0x568e
    57b3:	fe 06                	inc    BYTE PTR [rsi]
    57b5:	48 ff c6             	inc    rsi
    57b8:	8a 06                	mov    al,BYTE PTR [rsi]
    57ba:	84 c0                	test   al,al
    57bc:	0f 84 4c 00 00 00    	je     0x580e
    57c2:	fe 0e                	dec    BYTE PTR [rsi]
    57c4:	48 ff ce             	dec    rsi
    57c7:	8a 06                	mov    al,BYTE PTR [rsi]
    57c9:	84 c0                	test   al,al
    57cb:	0f 84 20 00 00 00    	je     0x57f1
    57d1:	48 ff c6             	inc    rsi
    57d4:	48 ff c6             	inc    rsi
    57d7:	48 ff c6             	inc    rsi
    57da:	48 ff c6             	inc    rsi
    57dd:	48 ff c6             	inc    rsi
    57e0:	48 ff c6             	inc    rsi
    57e3:	48 ff c6             	inc    rsi
    57e6:	48 ff c6             	inc    rsi
    57e9:	48 ff c6             	inc    rsi
    57ec:	e9 d6 ff ff ff       	jmp    0x57c7
    57f1:	48 ff ce             	dec    rsi
    57f4:	48 ff ce             	dec    rsi
    57f7:	48 ff ce             	dec    rsi
    57fa:	48 ff ce             	dec    rsi
    57fd:	48 ff ce             	dec    rsi
    5800:	48 ff ce             	dec    rsi
    5803:	48 ff ce             	dec    rsi
    5806:	48 ff ce             	dec    rsi
    5809:	e9 aa ff ff ff       	jmp    0x57b8
    580e:	48 ff c6             	inc    rsi
    5811:	48 ff c6             	inc    rsi
    5814:	48 ff c6             	inc    rsi
    5817:	48 ff c6             	inc    rsi
    581a:	48 ff c6             	inc    rsi
    581d:	48 ff c6             	inc    rsi
    5820:	48 ff c6             	inc    rsi
    5823:	48 ff c6             	inc    rsi
    5826:	e9 e9 fc ff ff       	jmp    0x5514
    582b:	48 ff ce             	dec    rsi
    582e:	48 ff ce             	dec    rsi
    5831:	48 ff ce             	dec    rsi
    5834:	48 ff ce             	dec    rsi
    5837:	48 ff ce             	dec    rsi
    583a:	48 ff ce             	dec    rsi
    583d:	48 ff ce             	dec    rsi
    5840:	48 ff ce             	dec    rsi
    5843:	48 ff ce             	dec    rsi
    5846:	8a 06                	mov    al,BYTE PTR [rsi]
    5848:	84 c0                	test   al,al
    584a:	0f 84 20 00 00 00    	je     0x5870
    5850:	48 ff ce             	dec    rsi
    5853:	48 ff ce             	dec    rsi
    5856:	48 ff ce             	dec    rsi
    5859:	48 ff ce             	dec    rsi
    585c:	48 ff ce             	dec    rsi
    585f:	48 ff ce             	dec    rsi
    5862:	48 ff ce             	dec    rsi
    5865:	48 ff ce             	dec    rsi
    5868:	48 ff ce             	dec    rsi
    586b:	e9 d6 ff ff ff       	jmp    0x5846
    5870:	48 ff c6             	inc    rsi
    5873:	48 ff c6             	inc    rsi
    5876:	48 ff c6             	inc    rsi
    5879:	8a 06                	mov    al,BYTE PTR [rsi]
    587b:	84 c0                	test   al,al
    587d:	0f 84 1b 00 00 00    	je     0x589e
    5883:	fe 0e                	dec    BYTE PTR [rsi]
    5885:	48 ff ce             	dec    rsi
    5888:	48 ff ce             	dec    rsi
    588b:	48 ff ce             	dec    rsi
    588e:	fe 06                	inc    BYTE PTR [rsi]
    5890:	48 ff c6             	inc    rsi
    5893:	48 ff c6             	inc    rsi
    5896:	48 ff c6             	inc    rsi
    5899:	e9 db ff ff ff       	jmp    0x5879
    589e:	48 ff ce             	dec    rsi
    58a1:	48 ff ce             	dec    rsi
    58a4:	48 ff ce             	dec    rsi
    58a7:	8a 06                	mov    al,BYTE PTR [rsi]
    58a9:	84 c0                	test   al,al
    58ab:	0f 84 5b 03 00 00    	je     0x5c0c
    58b1:	fe 0e                	dec    BYTE PTR [rsi]
    58b3:	48 ff c6             	inc    rsi
    58b6:	48 ff c6             	inc    rsi
    58b9:	48 ff c6             	inc    rsi
    58bc:	fe 06                	inc    BYTE PTR [rsi]
    58be:	48 ff c6             	inc    rsi
    58c1:	48 ff c6             	inc    rsi
    58c4:	48 ff c6             	inc    rsi
    58c7:	48 ff c6             	inc    rsi
    58ca:	48 ff c6             	inc    rsi
    58cd:	48 ff c6             	inc    rsi
    58d0:	8a 06                	mov    al,BYTE PTR [rsi]
    58d2:	84 c0                	test   al,al
    58d4:	0f 84 5a 00 00 00    	je     0x5934
    58da:	48 ff c6             	inc    rsi
    58dd:	fe 06                	inc    BYTE PTR [rsi]
    58df:	48 ff c6             	inc    rsi
    58e2:	8a 06                	mov    al,BYTE PTR [rsi]
    58e4:	84 c0                	test   al,al
    58e6:	0f 84 0f 00 00 00    	je     0x58fb
    58ec:	fe 0e                	dec    BYTE PTR [rsi]
    58ee:	48 ff ce             	dec    rsi
    58f1:	fe 0e                	dec    BYTE PTR [rsi]
    58f3:	48 ff c6             	inc    rsi
    58f6:	e9 e7 ff ff ff       	jmp    0x58e2
    58fb:	48 ff ce             	dec    rsi
    58fe:	8a 06                	mov    al,BYTE PTR [rsi]
    5900:	84 c0                	test   al,al
    5902:	0f 84 0f 00 00 00    	je     0x5917
    5908:	fe 0e                	dec    BYTE PTR [rsi]
    590a:	48 ff c6             	inc    rsi
    590d:	fe 06                	inc    BYTE PTR [rsi]
    590f:	48 ff ce             	dec    rsi
    5912:	e9 e7 ff ff ff       	jmp    0x58fe
    5917:	48 ff c6             	inc    rsi
    591a:	48 ff c6             	inc    rsi
    591d:	48 ff c6             	inc    rsi
    5920:	48 ff c6             	inc    rsi
    5923:	48 ff c6             	inc    rsi
    5926:	48 ff c6             	inc    rsi
    5929:	48 ff c6             	inc    rsi
    592c:	48 ff c6             	inc    rsi
    592f:	e9 9c ff ff ff       	jmp    0x58d0
    5934:	48 ff ce             	dec    rsi
    5937:	48 ff ce             	dec    rsi
    593a:	48 ff ce             	dec    rsi
    593d:	48 ff ce             	dec    rsi
    5940:	48 ff ce             	dec    rsi
    5943:	48 ff ce             	dec    rsi
    5946:	48 ff ce             	dec    rsi
    5949:	48 ff ce             	dec    rsi
    594c:	fe 06                	inc    BYTE PTR [rsi]
    594e:	48 ff ce             	dec    rsi
    5951:	8a 06                	mov    al,BYTE PTR [rsi]
    5953:	84 c0                	test   al,al
    5955:	0f 84 f5 01 00 00    	je     0x5b50
    595b:	48 ff c6             	inc    rsi
    595e:	8a 06                	mov    al,BYTE PTR [rsi]
    5960:	84 c0                	test   al,al
    5962:	0f 84 0c 01 00 00    	je     0x5a74
    5968:	fe 0e                	dec    BYTE PTR [rsi]
    596a:	48 ff c6             	inc    rsi
    596d:	48 ff c6             	inc    rsi
    5970:	48 ff c6             	inc    rsi
    5973:	48 ff c6             	inc    rsi
    5976:	fe 06                	inc    BYTE PTR [rsi]
    5978:	48 ff ce             	dec    rsi
    597b:	48 ff ce             	dec    rsi
    597e:	8a 06                	mov    al,BYTE PTR [rsi]
    5980:	84 c0                	test   al,al
    5982:	0f 84 7e 00 00 00    	je     0x5a06
    5988:	fe 0e                	dec    BYTE PTR [rsi]
    598a:	48 ff c6             	inc    rsi
    598d:	48 ff c6             	inc    rsi
    5990:	fe 0e                	dec    BYTE PTR [rsi]
    5992:	48 ff ce             	dec    rsi
    5995:	48 ff ce             	dec    rsi
    5998:	48 ff ce             	dec    rsi
    599b:	48 ff ce             	dec    rsi
    599e:	48 ff ce             	dec    rsi
    59a1:	48 ff ce             	dec    rsi
    59a4:	48 ff ce             	dec    rsi
    59a7:	48 ff ce             	dec    rsi
    59aa:	48 ff ce             	dec    rsi
    59ad:	48 ff ce             	dec    rsi
    59b0:	48 ff ce             	dec    rsi
    59b3:	48 ff ce             	dec    rsi
    59b6:	48 ff ce             	dec    rsi
    59b9:	fe 06                	inc    BYTE PTR [rsi]
    59bb:	48 ff c6             	inc    rsi
    59be:	48 ff c6             	inc    rsi
    59c1:	48 ff c6             	inc    rsi
    59c4:	48 ff c6             	inc    rsi
    59c7:	48 ff c6             	inc    rsi
    59ca:	48 ff c6             	inc    rsi
    59cd:	48 ff c6             	inc    rsi
    59d0:	48 ff c6             	inc    rsi
    59d3:	48 ff c6             	inc    rsi
    59d6:	48 ff c6             	inc    rsi
    59d9:	8a 06                	mov    al,BYTE PTR [rsi]
    59db:	84 c0                	test   al,al
    59dd:	0f 84 1b 00 00 00    	je     0x59fe
    59e3:	fe 0e                	dec    BYTE PTR [rsi]
    59e5:	48 ff c6             	inc    rsi
    59e8:	48 ff c6             	inc    rsi
    59eb:	48 ff c6             	inc    rsi
    59ee:	fe 06                	inc    BYTE PTR [rsi]
    59f0:	48 ff ce             	dec    rsi
    59f3:	48 ff ce             	dec    rsi
    59f6:	48 ff ce             	dec    rsi
    59f9:	e9 db ff ff ff       	jmp    0x59d9
    59fe:	48 ff c6             	inc    rsi
    5a01:	e9 78 ff ff ff       	jmp    0x597e
    5a06:	48 ff ce             	dec    rsi
    5a09:	8a 06                	mov    al,BYTE PTR [rsi]
    5a0b:	84 c0                	test   al,al
    5a0d:	0f 84 59 00 00 00    	je     0x5a6c
    5a13:	fe 0e                	dec    BYTE PTR [rsi]
    5a15:	48 ff c6             	inc    rsi
    5a18:	48 ff c6             	inc    rsi
    5a1b:	48 ff c6             	inc    rsi
    5a1e:	fe 0e                	dec    BYTE PTR [rsi]
    5a20:	48 ff ce             	dec    rsi
    5a23:	48 ff ce             	dec    rsi
    5a26:	48 ff ce             	dec    rsi
    5a29:	48 ff ce             	dec    rsi
    5a2c:	48 ff ce             	dec    rsi
    5a2f:	48 ff ce             	dec    rsi
    5a32:	48 ff ce             	dec    rsi
    5a35:	48 ff ce             	dec    rsi
    5a38:	48 ff ce             	dec    rsi
    5a3b:	48 ff ce             	dec    rsi
    5a3e:	48 ff ce             	dec    rsi
    5a41:	48 ff ce             	dec    rsi
    5a44:	48 ff ce             	dec    rsi
    5a47:	fe 06                	inc    BYTE PTR [rsi]
    5a49:	48 ff c6             	inc    rsi
    5a4c:	48 ff c6             	inc    rsi
    5a4f:	48 ff c6             	inc    rsi
    5a52:	48 ff c6             	inc    rsi
    5a55:	48 ff c6             	inc    rsi
    5a58:	48 ff c6             	inc    rsi
    5a5b:	48 ff c6             	inc    rsi
    5a5e:	48 ff c6             	inc    rsi
    5a61:	48 ff c6             	inc    rsi
    5a64:	48 ff c6             	inc    rsi
    5a67:	e9 9d ff ff ff       	jmp    0x5a09
    5a6c:	48 ff ce             	dec    rsi
    5a6f:	e9 ea fe ff ff       	jmp    0x595e
    5a74:	48 ff c6             	inc    rsi
    5a77:	48 ff c6             	inc    rsi
    5a7a:	8a 06                	mov    al,BYTE PTR [rsi]
    5a7c:	84 c0                	test   al,al
    5a7e:	0f 84 7e 00 00 00    	je     0x5b02
    5a84:	fe 0e                	dec    BYTE PTR [rsi]
    5a86:	48 ff c6             	inc    rsi
    5a89:	48 ff c6             	inc    rsi
    5a8c:	fe 06                	inc    BYTE PTR [rsi]
    5a8e:	48 ff ce             	dec    rsi
    5a91:	48 ff ce             	dec    rsi
    5a94:	48 ff ce             	dec    rsi
    5a97:	8a 06                	mov    al,BYTE PTR [rsi]
    5a99:	84 c0                	test   al,al
    5a9b:	0f 84 59 00 00 00    	je     0x5afa
    5aa1:	fe 0e                	dec    BYTE PTR [rsi]
    5aa3:	48 ff c6             	inc    rsi
    5aa6:	48 ff c6             	inc    rsi
    5aa9:	48 ff c6             	inc    rsi
    5aac:	fe 0e                	dec    BYTE PTR [rsi]
    5aae:	48 ff ce             	dec    rsi
    5ab1:	48 ff ce             	dec    rsi
    5ab4:	48 ff ce             	dec    rsi
    5ab7:	48 ff ce             	dec    rsi
    5aba:	48 ff ce             	dec    rsi
    5abd:	48 ff ce             	dec    rsi
    5ac0:	48 ff ce             	dec    rsi
    5ac3:	48 ff ce             	dec    rsi
    5ac6:	48 ff ce             	dec    rsi
    5ac9:	48 ff ce             	dec    rsi
    5acc:	48 ff ce             	dec    rsi
    5acf:	48 ff ce             	dec    rsi
    5ad2:	48 ff ce             	dec    rsi
    5ad5:	fe 06                	inc    BYTE PTR [rsi]
    5ad7:	48 ff c6             	inc    rsi
    5ada:	48 ff c6             	inc    rsi
    5add:	48 ff c6             	inc    rsi
    5ae0:	48 ff c6             	inc    rsi
    5ae3:	48 ff c6             	inc    rsi
    5ae6:	48 ff c6             	inc    rsi
    5ae9:	48 ff c6             	inc    rsi
    5aec:	48 ff c6             	inc    rsi
    5aef:	48 ff c6             	inc    rsi
    5af2:	48 ff c6             	inc    rsi
    5af5:	e9 9d ff ff ff       	jmp    0x5a97
    5afa:	48 ff c6             	inc    rsi
    5afd:	e9 78 ff ff ff       	jmp    0x5a7a
    5b02:	48 ff ce             	dec    rsi
    5b05:	8a 06                	mov    al,BYTE PTR [rsi]
    5b07:	84 c0                	test   al,al
    5b09:	0f 84 1b 00 00 00    	je     0x5b2a
    5b0f:	fe 0e                	dec    BYTE PTR [rsi]
    5b11:	48 ff c6             	inc    rsi
    5b14:	48 ff c6             	inc    rsi
    5b17:	48 ff c6             	inc    rsi
    5b1a:	fe 06                	inc    BYTE PTR [rsi]
    5b1c:	48 ff ce             	dec    rsi
    5b1f:	48 ff ce             	dec    rsi
    5b22:	48 ff ce             	dec    rsi
    5b25:	e9 db ff ff ff       	jmp    0x5b05
    5b2a:	48 ff ce             	dec    rsi
    5b2d:	48 ff ce             	dec    rsi
    5b30:	48 ff ce             	dec    rsi
    5b33:	48 ff ce             	dec    rsi
    5b36:	48 ff ce             	dec    rsi
    5b39:	48 ff ce             	dec    rsi
    5b3c:	48 ff ce             	dec    rsi
    5b3f:	48 ff ce             	dec    rsi
    5b42:	48 ff ce             	dec    rsi
    5b45:	48 ff ce             	dec    rsi
    5b48:	48 ff ce             	dec    rsi
    5b4b:	e9 01 fe ff ff       	jmp    0x5951
    5b50:	48 ff c6             	inc    rsi
    5b53:	48 ff c6             	inc    rsi
    5b56:	48 ff c6             	inc    rsi
    5b59:	48 ff c6             	inc    rsi
    5b5c:	48 ff c6             	inc    rsi
    5b5f:	8a 06                	mov    al,BYTE PTR [rsi]
    5b61:	84 c0                	test   al,al
    5b63:	0f 84 07 00 00 00    	je     0x5b70
    5b69:	fe 0e                	dec    BYTE PTR [rsi]
    5b6b:	e9 ef ff ff ff       	jmp    0x5b5f
    5b70:	48 ff c6             	inc    rsi
    5b73:	48 ff c6             	inc    rsi
    5b76:	8a 06                	mov    al,BYTE PTR [rsi]
    5b78:	84 c0                	test   al,al
    5b7a:	0f 84 33 00 00 00    	je     0x5bb3
    5b80:	fe 0e                	dec    BYTE PTR [rsi]
    5b82:	48 ff ce             	dec    rsi
    5b85:	48 ff ce             	dec    rsi
    5b88:	48 ff ce             	dec    rsi
    5b8b:	48 ff ce             	dec    rsi
    5b8e:	48 ff ce             	dec    rsi
    5b91:	48 ff ce             	dec    rsi
    5b94:	48 ff ce             	dec    rsi
    5b97:	fe 06                	inc    BYTE PTR [rsi]
    5b99:	48 ff c6             	inc    rsi
    5b9c:	48 ff c6             	inc    rsi
    5b9f:	48 ff c6             	inc    rsi
    5ba2:	48 ff c6             	inc    rsi
    5ba5:	48 ff c6             	inc    rsi
    5ba8:	48 ff c6             	inc    rsi
    5bab:	48 ff c6             	inc    rsi
    5bae:	e9 c3 ff ff ff       	jmp    0x5b76
    5bb3:	48 ff ce             	dec    rsi
    5bb6:	48 ff ce             	dec    rsi
    5bb9:	48 ff ce             	dec    rsi
    5bbc:	48 ff ce             	dec    rsi
    5bbf:	48 ff ce             	dec    rsi
    5bc2:	48 ff ce             	dec    rsi
    5bc5:	48 ff ce             	dec    rsi
    5bc8:	8a 06                	mov    al,BYTE PTR [rsi]
    5bca:	84 c0                	test   al,al
    5bcc:	0f 84 35 00 00 00    	je     0x5c07
    5bd2:	fe 0e                	dec    BYTE PTR [rsi]
    5bd4:	48 ff c6             	inc    rsi
    5bd7:	48 ff c6             	inc    rsi
    5bda:	48 ff c6             	inc    rsi
    5bdd:	48 ff c6             	inc    rsi
    5be0:	48 ff c6             	inc    rsi
    5be3:	48 ff c6             	inc    rsi
    5be6:	48 ff c6             	inc    rsi
    5be9:	fe 06                	inc    BYTE PTR [rsi]
    5beb:	48 ff ce             	dec    rsi
    5bee:	48 ff ce             	dec    rsi
    5bf1:	fe 06                	inc    BYTE PTR [rsi]
    5bf3:	48 ff ce             	dec    rsi
    5bf6:	48 ff ce             	dec    rsi
    5bf9:	48 ff ce             	dec    rsi
    5bfc:	48 ff ce             	dec    rsi
    5bff:	48 ff ce             	dec    rsi
    5c02:	e9 c1 ff ff ff       	jmp    0x5bc8
    5c07:	e9 9b fc ff ff       	jmp    0x58a7
    5c0c:	48 ff c6             	inc    rsi
    5c0f:	48 ff c6             	inc    rsi
    5c12:	48 ff c6             	inc    rsi
    5c15:	48 ff c6             	inc    rsi
    5c18:	8a 06                	mov    al,BYTE PTR [rsi]
    5c1a:	84 c0                	test   al,al
    5c1c:	0f 84 21 00 00 00    	je     0x5c43
    5c22:	fe 0e                	dec    BYTE PTR [rsi]
    5c24:	48 ff ce             	dec    rsi
    5c27:	48 ff ce             	dec    rsi
    5c2a:	48 ff ce             	dec    rsi
    5c2d:	48 ff ce             	dec    rsi
    5c30:	fe 06                	inc    BYTE PTR [rsi]
    5c32:	48 ff c6             	inc    rsi
    5c35:	48 ff c6             	inc    rsi
    5c38:	48 ff c6             	inc    rsi
    5c3b:	48 ff c6             	inc    rsi
    5c3e:	e9 d5 ff ff ff       	jmp    0x5c18
    5c43:	48 ff ce             	dec    rsi
    5c46:	48 ff ce             	dec    rsi
    5c49:	48 ff ce             	dec    rsi
    5c4c:	48 ff ce             	dec    rsi
    5c4f:	8a 06                	mov    al,BYTE PTR [rsi]
    5c51:	84 c0                	test   al,al
    5c53:	0f 84 b6 02 00 00    	je     0x5f0f
    5c59:	fe 0e                	dec    BYTE PTR [rsi]
    5c5b:	48 ff c6             	inc    rsi
    5c5e:	48 ff c6             	inc    rsi
    5c61:	48 ff c6             	inc    rsi
    5c64:	48 ff c6             	inc    rsi
    5c67:	fe 06                	inc    BYTE PTR [rsi]
    5c69:	48 ff c6             	inc    rsi
    5c6c:	48 ff c6             	inc    rsi
    5c6f:	48 ff c6             	inc    rsi
    5c72:	48 ff c6             	inc    rsi
    5c75:	48 ff c6             	inc    rsi
    5c78:	8a 06                	mov    al,BYTE PTR [rsi]
    5c7a:	84 c0                	test   al,al
    5c7c:	0f 84 6c 00 00 00    	je     0x5cee
    5c82:	48 ff c6             	inc    rsi
    5c85:	fe 06                	inc    BYTE PTR [rsi]
    5c87:	48 ff c6             	inc    rsi
    5c8a:	48 ff c6             	inc    rsi
    5c8d:	8a 06                	mov    al,BYTE PTR [rsi]
    5c8f:	84 c0                	test   al,al
    5c91:	0f 84 15 00 00 00    	je     0x5cac
    5c97:	fe 0e                	dec    BYTE PTR [rsi]
    5c99:	48 ff ce             	dec    rsi
    5c9c:	48 ff ce             	dec    rsi
    5c9f:	fe 0e                	dec    BYTE PTR [rsi]
    5ca1:	48 ff c6             	inc    rsi
    5ca4:	48 ff c6             	inc    rsi
    5ca7:	e9 e1 ff ff ff       	jmp    0x5c8d
    5cac:	48 ff ce             	dec    rsi
    5caf:	48 ff ce             	dec    rsi
    5cb2:	8a 06                	mov    al,BYTE PTR [rsi]
    5cb4:	84 c0                	test   al,al
    5cb6:	0f 84 15 00 00 00    	je     0x5cd1
    5cbc:	fe 0e                	dec    BYTE PTR [rsi]
    5cbe:	48 ff c6             	inc    rsi
    5cc1:	48 ff c6             	inc    rsi
    5cc4:	fe 06                	inc    BYTE PTR [rsi]
    5cc6:	48 ff ce             	dec    rsi
    5cc9:	48 ff ce             	dec    rsi
    5ccc:	e9 e1 ff ff ff       	jmp    0x5cb2
    5cd1:	48 ff c6             	inc    rsi
    5cd4:	48 ff c6             	inc    rsi
    5cd7:	48 ff c6             	inc    rsi
    5cda:	48 ff c6             	inc    rsi
    5cdd:	48 ff c6             	inc    rsi
    5ce0:	48 ff c6             	inc    rsi
    5ce3:	48 ff c6             	inc    rsi
    5ce6:	48 ff c6             	inc    rsi
    5ce9:	e9 8a ff ff ff       	jmp    0x5c78
    5cee:	48 ff ce             	dec    rsi
    5cf1:	48 ff ce             	dec    rsi
    5cf4:	48 ff ce             	dec    rsi
    5cf7:	48 ff ce             	dec    rsi
    5cfa:	48 ff ce             	dec    rsi
    5cfd:	48 ff ce             	dec    rsi
    5d00:	48 ff ce             	dec    rsi
    5d03:	48 ff ce             	dec    rsi
    5d06:	fe 06                	inc    BYTE PTR [rsi]
    5d08:	48 ff ce             	dec    rsi
    5d0b:	8a 06                	mov    al,BYTE PTR [rsi]
    5d0d:	84 c0                	test   al,al
    5d0f:	0f 84 f5 01 00 00    	je     0x5f0a
    5d15:	48 ff c6             	inc    rsi
    5d18:	8a 06                	mov    al,BYTE PTR [rsi]
    5d1a:	84 c0                	test   al,al
    5d1c:	0f 84 12 01 00 00    	je     0x5e34
    5d22:	fe 0e                	dec    BYTE PTR [rsi]
    5d24:	48 ff c6             	inc    rsi
    5d27:	48 ff c6             	inc    rsi
    5d2a:	48 ff c6             	inc    rsi
    5d2d:	48 ff c6             	inc    rsi
    5d30:	fe 06                	inc    BYTE PTR [rsi]
    5d32:	48 ff ce             	dec    rsi
    5d35:	48 ff ce             	dec    rsi
    5d38:	48 ff ce             	dec    rsi
    5d3b:	8a 06                	mov    al,BYTE PTR [rsi]
    5d3d:	84 c0                	test   al,al
    5d3f:	0f 84 7e 00 00 00    	je     0x5dc3
    5d45:	fe 0e                	dec    BYTE PTR [rsi]
    5d47:	48 ff c6             	inc    rsi
    5d4a:	48 ff c6             	inc    rsi
    5d4d:	48 ff c6             	inc    rsi
    5d50:	fe 0e                	dec    BYTE PTR [rsi]
    5d52:	48 ff ce             	dec    rsi
    5d55:	48 ff ce             	dec    rsi
    5d58:	48 ff ce             	dec    rsi
    5d5b:	48 ff ce             	dec    rsi
    5d5e:	48 ff ce             	dec    rsi
    5d61:	48 ff ce             	dec    rsi
    5d64:	48 ff ce             	dec    rsi
    5d67:	48 ff ce             	dec    rsi
    5d6a:	48 ff ce             	dec    rsi
    5d6d:	48 ff ce             	dec    rsi
    5d70:	48 ff ce             	dec    rsi
    5d73:	48 ff ce             	dec    rsi
    5d76:	48 ff ce             	dec    rsi
    5d79:	fe 06                	inc    BYTE PTR [rsi]
    5d7b:	48 ff c6             	inc    rsi
    5d7e:	48 ff c6             	inc    rsi
    5d81:	48 ff c6             	inc    rsi
    5d84:	48 ff c6             	inc    rsi
    5d87:	48 ff c6             	inc    rsi
    5d8a:	48 ff c6             	inc    rsi
    5d8d:	48 ff c6             	inc    rsi
    5d90:	48 ff c6             	inc    rsi
    5d93:	48 ff c6             	inc    rsi
    5d96:	48 ff c6             	inc    rsi
    5d99:	48 ff c6             	inc    rsi
    5d9c:	8a 06                	mov    al,BYTE PTR [rsi]
    5d9e:	84 c0                	test   al,al
    5da0:	0f 84 15 00 00 00    	je     0x5dbb
    5da6:	fe 0e                	dec    BYTE PTR [rsi]
    5da8:	48 ff c6             	inc    rsi
    5dab:	48 ff c6             	inc    rsi
    5dae:	fe 06                	inc    BYTE PTR [rsi]
    5db0:	48 ff ce             	dec    rsi
    5db3:	48 ff ce             	dec    rsi
    5db6:	e9 e1 ff ff ff       	jmp    0x5d9c
    5dbb:	48 ff ce             	dec    rsi
    5dbe:	e9 78 ff ff ff       	jmp    0x5d3b
    5dc3:	48 ff c6             	inc    rsi
    5dc6:	8a 06                	mov    al,BYTE PTR [rsi]
    5dc8:	84 c0                	test   al,al
    5dca:	0f 84 59 00 00 00    	je     0x5e29
    5dd0:	fe 0e                	dec    BYTE PTR [rsi]
    5dd2:	48 ff c6             	inc    rsi
    5dd5:	48 ff c6             	inc    rsi
    5dd8:	fe 0e                	dec    BYTE PTR [rsi]
    5dda:	48 ff ce             	dec    rsi
    5ddd:	48 ff ce             	dec    rsi
    5de0:	48 ff ce             	dec    rsi
    5de3:	48 ff ce             	dec    rsi
    5de6:	48 ff ce             	dec    rsi
    5de9:	48 ff ce             	dec    rsi
    5dec:	48 ff ce             	dec    rsi
    5def:	48 ff ce             	dec    rsi
    5df2:	48 ff ce             	dec    rsi
    5df5:	48 ff ce             	dec    rsi
    5df8:	48 ff ce             	dec    rsi
    5dfb:	48 ff ce             	dec    rsi
    5dfe:	48 ff ce             	dec    rsi
    5e01:	fe 06                	inc    BYTE PTR [rsi]
    5e03:	48 ff c6             	inc    rsi
    5e06:	48 ff c6             	inc    rsi
    5e09:	48 ff c6             	inc    rsi
    5e0c:	48 ff c6             	inc    rsi
    5e0f:	48 ff c6             	inc    rsi
    5e12:	48 ff c6             	inc    rsi
    5e15:	48 ff c6             	inc    rsi
    5e18:	48 ff c6             	inc    rsi
    5e1b:	48 ff c6             	inc    rsi
    5e1e:	48 ff c6             	inc    rsi
    5e21:	48 ff c6             	inc    rsi
    5e24:	e9 9d ff ff ff       	jmp    0x5dc6
    5e29:	48 ff ce             	dec    rsi
    5e2c:	48 ff ce             	dec    rsi
    5e2f:	e9 e4 fe ff ff       	jmp    0x5d18
    5e34:	48 ff c6             	inc    rsi
    5e37:	8a 06                	mov    al,BYTE PTR [rsi]
    5e39:	84 c0                	test   al,al
    5e3b:	0f 84 7e 00 00 00    	je     0x5ebf
    5e41:	fe 0e                	dec    BYTE PTR [rsi]
    5e43:	48 ff c6             	inc    rsi
    5e46:	48 ff c6             	inc    rsi
    5e49:	48 ff c6             	inc    rsi
    5e4c:	fe 06                	inc    BYTE PTR [rsi]
    5e4e:	48 ff ce             	dec    rsi
    5e51:	48 ff ce             	dec    rsi
    5e54:	8a 06                	mov    al,BYTE PTR [rsi]
    5e56:	84 c0                	test   al,al
    5e58:	0f 84 59 00 00 00    	je     0x5eb7
    5e5e:	fe 0e                	dec    BYTE PTR [rsi]
    5e60:	48 ff c6             	inc    rsi
    5e63:	48 ff c6             	inc    rsi
    5e66:	fe 0e                	dec    BYTE PTR [rsi]
    5e68:	48 ff ce             	dec    rsi
    5e6b:	48 ff ce             	dec    rsi
    5e6e:	48 ff ce             	dec    rsi
    5e71:	48 ff ce             	dec    rsi
    5e74:	48 ff ce             	dec    rsi
    5e77:	48 ff ce             	dec    rsi
    5e7a:	48 ff ce             	dec    rsi
    5e7d:	48 ff ce             	dec    rsi
    5e80:	48 ff ce             	dec    rsi
    5e83:	48 ff ce             	dec    rsi
    5e86:	48 ff ce             	dec    rsi
    5e89:	48 ff ce             	dec    rsi
    5e8c:	48 ff ce             	dec    rsi
    5e8f:	fe 06                	inc    BYTE PTR [rsi]
    5e91:	48 ff c6             	inc    rsi
    5e94:	48 ff c6             	inc    rsi
    5e97:	48 ff c6             	inc    rsi
    5e9a:	48 ff c6             	inc    rsi
    5e9d:	48 ff c6             	inc    rsi
    5ea0:	48 ff c6             	inc    rsi
    5ea3:	48 ff c6             	inc    rsi
    5ea6:	48 ff c6             	inc    rsi
    5ea9:	48 ff c6             	inc    rsi
    5eac:	48 ff c6             	inc    rsi
    5eaf:	48 ff c6             	inc    rsi
    5eb2:	e9 9d ff ff ff       	jmp    0x5e54
    5eb7:	48 ff ce             	dec    rsi
    5eba:	e9 78 ff ff ff       	jmp    0x5e37
    5ebf:	48 ff c6             	inc    rsi
    5ec2:	8a 06                	mov    al,BYTE PTR [rsi]
    5ec4:	84 c0                	test   al,al
    5ec6:	0f 84 15 00 00 00    	je     0x5ee1
    5ecc:	fe 0e                	dec    BYTE PTR [rsi]
    5ece:	48 ff c6             	inc    rsi
    5ed1:	48 ff c6             	inc    rsi
    5ed4:	fe 06                	inc    BYTE PTR [rsi]
    5ed6:	48 ff ce             	dec    rsi
    5ed9:	48 ff ce             	dec    rsi
    5edc:	e9 e1 ff ff ff       	jmp    0x5ec2
    5ee1:	48 ff ce             	dec    rsi
    5ee4:	48 ff ce             	dec    rsi
    5ee7:	48 ff ce             	dec    rsi
    5eea:	48 ff ce             	dec    rsi
    5eed:	48 ff ce             	dec    rsi
    5ef0:	48 ff ce             	dec    rsi
    5ef3:	48 ff ce             	dec    rsi
    5ef6:	48 ff ce             	dec    rsi
    5ef9:	48 ff ce             	dec    rsi
    5efc:	48 ff ce             	dec    rsi
    5eff:	48 ff ce             	dec    rsi
    5f02:	48 ff ce             	dec    rsi
    5f05:	e9 01 fe ff ff       	jmp    0x5d0b
    5f0a:	e9 40 fd ff ff       	jmp    0x5c4f
    5f0f:	48 ff c6             	inc    rsi
    5f12:	48 ff c6             	inc    rsi
    5f15:	48 ff c6             	inc    rsi
    5f18:	48 ff c6             	inc    rsi
    5f1b:	8a 06                	mov    al,BYTE PTR [rsi]
    5f1d:	84 c0                	test   al,al
    5f1f:	0f 84 07 00 00 00    	je     0x5f2c
    5f25:	fe 0e                	dec    BYTE PTR [rsi]
    5f27:	e9 ef ff ff ff       	jmp    0x5f1b
    5f2c:	48 ff ce             	dec    rsi
    5f2f:	48 ff ce             	dec    rsi
    5f32:	48 ff ce             	dec    rsi
    5f35:	48 ff ce             	dec    rsi
    5f38:	e9 ae f5 ff ff       	jmp    0x54eb
    5f3d:	48 ff c6             	inc    rsi
    5f40:	48 ff c6             	inc    rsi
    5f43:	48 ff c6             	inc    rsi
    5f46:	48 ff c6             	inc    rsi
    5f49:	8a 06                	mov    al,BYTE PTR [rsi]
    5f4b:	84 c0                	test   al,al
    5f4d:	0f 84 21 00 00 00    	je     0x5f74
    5f53:	fe 0e                	dec    BYTE PTR [rsi]
    5f55:	48 ff ce             	dec    rsi
    5f58:	48 ff ce             	dec    rsi
    5f5b:	48 ff ce             	dec    rsi
    5f5e:	48 ff ce             	dec    rsi
    5f61:	fe 06                	inc    BYTE PTR [rsi]
    5f63:	48 ff c6             	inc    rsi
    5f66:	48 ff c6             	inc    rsi
    5f69:	48 ff c6             	inc    rsi
    5f6c:	48 ff c6             	inc    rsi
    5f6f:	e9 d5 ff ff ff       	jmp    0x5f49
    5f74:	48 ff ce             	dec    rsi
    5f77:	48 ff ce             	dec    rsi
    5f7a:	48 ff ce             	dec    rsi
    5f7d:	48 ff ce             	dec    rsi
    5f80:	8a 06                	mov    al,BYTE PTR [rsi]
    5f82:	84 c0                	test   al,al
    5f84:	0f 84 1f 03 00 00    	je     0x62a9
    5f8a:	fe 0e                	dec    BYTE PTR [rsi]
    5f8c:	48 ff c6             	inc    rsi
    5f8f:	48 ff c6             	inc    rsi
    5f92:	48 ff c6             	inc    rsi
    5f95:	48 ff c6             	inc    rsi
    5f98:	fe 06                	inc    BYTE PTR [rsi]
    5f9a:	48 ff c6             	inc    rsi
    5f9d:	8a 06                	mov    al,BYTE PTR [rsi]
    5f9f:	84 c0                	test   al,al
    5fa1:	0f 84 07 00 00 00    	je     0x5fae
    5fa7:	fe 0e                	dec    BYTE PTR [rsi]
    5fa9:	e9 ef ff ff ff       	jmp    0x5f9d
    5fae:	48 ff c6             	inc    rsi
    5fb1:	48 ff c6             	inc    rsi
    5fb4:	8a 06                	mov    al,BYTE PTR [rsi]
    5fb6:	84 c0                	test   al,al
    5fb8:	0f 84 33 00 00 00    	je     0x5ff1
    5fbe:	fe 0e                	dec    BYTE PTR [rsi]
    5fc0:	48 ff ce             	dec    rsi
    5fc3:	48 ff ce             	dec    rsi
    5fc6:	48 ff ce             	dec    rsi
    5fc9:	48 ff ce             	dec    rsi
    5fcc:	48 ff ce             	dec    rsi
    5fcf:	48 ff ce             	dec    rsi
    5fd2:	48 ff ce             	dec    rsi
    5fd5:	fe 06                	inc    BYTE PTR [rsi]
    5fd7:	48 ff c6             	inc    rsi
    5fda:	48 ff c6             	inc    rsi
    5fdd:	48 ff c6             	inc    rsi
    5fe0:	48 ff c6             	inc    rsi
    5fe3:	48 ff c6             	inc    rsi
    5fe6:	48 ff c6             	inc    rsi
    5fe9:	48 ff c6             	inc    rsi
    5fec:	e9 c3 ff ff ff       	jmp    0x5fb4
    5ff1:	48 ff ce             	dec    rsi
    5ff4:	48 ff ce             	dec    rsi
    5ff7:	48 ff ce             	dec    rsi
    5ffa:	48 ff ce             	dec    rsi
    5ffd:	48 ff ce             	dec    rsi
    6000:	48 ff ce             	dec    rsi
    6003:	48 ff ce             	dec    rsi
    6006:	8a 06                	mov    al,BYTE PTR [rsi]
    6008:	84 c0                	test   al,al
    600a:	0f 84 35 00 00 00    	je     0x6045
    6010:	fe 0e                	dec    BYTE PTR [rsi]
    6012:	48 ff c6             	inc    rsi
    6015:	48 ff c6             	inc    rsi
    6018:	48 ff c6             	inc    rsi
    601b:	48 ff c6             	inc    rsi
    601e:	48 ff c6             	inc    rsi
    6021:	48 ff c6             	inc    rsi
    6024:	48 ff c6             	inc    rsi
    6027:	fe 06                	inc    BYTE PTR [rsi]
    6029:	48 ff ce             	dec    rsi
    602c:	48 ff ce             	dec    rsi
    602f:	fe 06                	inc    BYTE PTR [rsi]
    6031:	48 ff ce             	dec    rsi
    6034:	48 ff ce             	dec    rsi
    6037:	48 ff ce             	dec    rsi
    603a:	48 ff ce             	dec    rsi
    603d:	48 ff ce             	dec    rsi
    6040:	e9 c1 ff ff ff       	jmp    0x6006
    6045:	48 ff c6             	inc    rsi
    6048:	48 ff c6             	inc    rsi
    604b:	48 ff c6             	inc    rsi
    604e:	48 ff c6             	inc    rsi
    6051:	48 ff c6             	inc    rsi
    6054:	48 ff c6             	inc    rsi
    6057:	48 ff c6             	inc    rsi
    605a:	48 ff c6             	inc    rsi
    605d:	48 ff c6             	inc    rsi
    6060:	8a 06                	mov    al,BYTE PTR [rsi]
    6062:	84 c0                	test   al,al
    6064:	0f 84 20 00 00 00    	je     0x608a
    606a:	48 ff c6             	inc    rsi
    606d:	48 ff c6             	inc    rsi
    6070:	48 ff c6             	inc    rsi
    6073:	48 ff c6             	inc    rsi
    6076:	48 ff c6             	inc    rsi
    6079:	48 ff c6             	inc    rsi
    607c:	48 ff c6             	inc    rsi
    607f:	48 ff c6             	inc    rsi
    6082:	48 ff c6             	inc    rsi
    6085:	e9 d6 ff ff ff       	jmp    0x6060
    608a:	48 ff ce             	dec    rsi
    608d:	48 ff ce             	dec    rsi
    6090:	48 ff ce             	dec    rsi
    6093:	48 ff ce             	dec    rsi
    6096:	48 ff ce             	dec    rsi
    6099:	48 ff ce             	dec    rsi
    609c:	48 ff ce             	dec    rsi
    609f:	48 ff ce             	dec    rsi
    60a2:	48 ff ce             	dec    rsi
    60a5:	8a 06                	mov    al,BYTE PTR [rsi]
    60a7:	84 c0                	test   al,al
    60a9:	0f 84 f5 01 00 00    	je     0x62a4
    60af:	48 ff c6             	inc    rsi
    60b2:	8a 06                	mov    al,BYTE PTR [rsi]
    60b4:	84 c0                	test   al,al
    60b6:	0f 84 12 01 00 00    	je     0x61ce
    60bc:	fe 0e                	dec    BYTE PTR [rsi]
    60be:	48 ff c6             	inc    rsi
    60c1:	48 ff c6             	inc    rsi
    60c4:	48 ff c6             	inc    rsi
    60c7:	48 ff c6             	inc    rsi
    60ca:	fe 06                	inc    BYTE PTR [rsi]
    60cc:	48 ff ce             	dec    rsi
    60cf:	48 ff ce             	dec    rsi
    60d2:	48 ff ce             	dec    rsi
    60d5:	8a 06                	mov    al,BYTE PTR [rsi]
    60d7:	84 c0                	test   al,al
    60d9:	0f 84 7e 00 00 00    	je     0x615d
    60df:	fe 0e                	dec    BYTE PTR [rsi]
    60e1:	48 ff c6             	inc    rsi
    60e4:	48 ff c6             	inc    rsi
    60e7:	48 ff c6             	inc    rsi
    60ea:	fe 0e                	dec    BYTE PTR [rsi]
    60ec:	48 ff ce             	dec    rsi
    60ef:	48 ff ce             	dec    rsi
    60f2:	48 ff ce             	dec    rsi
    60f5:	48 ff ce             	dec    rsi
    60f8:	48 ff ce             	dec    rsi
    60fb:	48 ff ce             	dec    rsi
    60fe:	48 ff ce             	dec    rsi
    6101:	48 ff ce             	dec    rsi
    6104:	48 ff ce             	dec    rsi
    6107:	48 ff ce             	dec    rsi
    610a:	48 ff ce             	dec    rsi
    610d:	48 ff ce             	dec    rsi
    6110:	48 ff ce             	dec    rsi
    6113:	fe 06                	inc    BYTE PTR [rsi]
    6115:	48 ff c6             	inc    rsi
    6118:	48 ff c6             	inc    rsi
    611b:	48 ff c6             	inc    rsi
    611e:	48 ff c6             	inc    rsi
    6121:	48 ff c6             	inc    rsi
    6124:	48 ff c6             	inc    rsi
    6127:	48 ff c6             	inc    rsi
    612a:	48 ff c6             	inc    rsi
    612d:	48 ff c6             	inc    rsi
    6130:	48 ff c6             	inc    rsi
    6133:	48 ff c6             	inc    rsi
    6136:	8a 06                	mov    al,BYTE PTR [rsi]
    6138:	84 c0                	test   al,al
    613a:	0f 84 15 00 00 00    	je     0x6155
    6140:	fe 0e                	dec    BYTE PTR [rsi]
    6142:	48 ff c6             	inc    rsi
    6145:	48 ff c6             	inc    rsi
    6148:	fe 06                	inc    BYTE PTR [rsi]
    614a:	48 ff ce             	dec    rsi
    614d:	48 ff ce             	dec    rsi
    6150:	e9 e1 ff ff ff       	jmp    0x6136
    6155:	48 ff ce             	dec    rsi
    6158:	e9 78 ff ff ff       	jmp    0x60d5
    615d:	48 ff c6             	inc    rsi
    6160:	8a 06                	mov    al,BYTE PTR [rsi]
    6162:	84 c0                	test   al,al
    6164:	0f 84 59 00 00 00    	je     0x61c3
    616a:	fe 0e                	dec    BYTE PTR [rsi]
    616c:	48 ff c6             	inc    rsi
    616f:	48 ff c6             	inc    rsi
    6172:	fe 0e                	dec    BYTE PTR [rsi]
    6174:	48 ff ce             	dec    rsi
    6177:	48 ff ce             	dec    rsi
    617a:	48 ff ce             	dec    rsi
    617d:	48 ff ce             	dec    rsi
    6180:	48 ff ce             	dec    rsi
    6183:	48 ff ce             	dec    rsi
    6186:	48 ff ce             	dec    rsi
    6189:	48 ff ce             	dec    rsi
    618c:	48 ff ce             	dec    rsi
    618f:	48 ff ce             	dec    rsi
    6192:	48 ff ce             	dec    rsi
    6195:	48 ff ce             	dec    rsi
    6198:	48 ff ce             	dec    rsi
    619b:	fe 06                	inc    BYTE PTR [rsi]
    619d:	48 ff c6             	inc    rsi
    61a0:	48 ff c6             	inc    rsi
    61a3:	48 ff c6             	inc    rsi
    61a6:	48 ff c6             	inc    rsi
    61a9:	48 ff c6             	inc    rsi
    61ac:	48 ff c6             	inc    rsi
    61af:	48 ff c6             	inc    rsi
    61b2:	48 ff c6             	inc    rsi
    61b5:	48 ff c6             	inc    rsi
    61b8:	48 ff c6             	inc    rsi
    61bb:	48 ff c6             	inc    rsi
    61be:	e9 9d ff ff ff       	jmp    0x6160
    61c3:	48 ff ce             	dec    rsi
    61c6:	48 ff ce             	dec    rsi
    61c9:	e9 e4 fe ff ff       	jmp    0x60b2
    61ce:	48 ff c6             	inc    rsi
    61d1:	8a 06                	mov    al,BYTE PTR [rsi]
    61d3:	84 c0                	test   al,al
    61d5:	0f 84 7e 00 00 00    	je     0x6259
    61db:	fe 0e                	dec    BYTE PTR [rsi]
    61dd:	48 ff c6             	inc    rsi
    61e0:	48 ff c6             	inc    rsi
    61e3:	48 ff c6             	inc    rsi
    61e6:	fe 06                	inc    BYTE PTR [rsi]
    61e8:	48 ff ce             	dec    rsi
    61eb:	48 ff ce             	dec    rsi
    61ee:	8a 06                	mov    al,BYTE PTR [rsi]
    61f0:	84 c0                	test   al,al
    61f2:	0f 84 59 00 00 00    	je     0x6251
    61f8:	fe 0e                	dec    BYTE PTR [rsi]
    61fa:	48 ff c6             	inc    rsi
    61fd:	48 ff c6             	inc    rsi
    6200:	fe 0e                	dec    BYTE PTR [rsi]
    6202:	48 ff ce             	dec    rsi
    6205:	48 ff ce             	dec    rsi
    6208:	48 ff ce             	dec    rsi
    620b:	48 ff ce             	dec    rsi
    620e:	48 ff ce             	dec    rsi
    6211:	48 ff ce             	dec    rsi
    6214:	48 ff ce             	dec    rsi
    6217:	48 ff ce             	dec    rsi
    621a:	48 ff ce             	dec    rsi
    621d:	48 ff ce             	dec    rsi
    6220:	48 ff ce             	dec    rsi
    6223:	48 ff ce             	dec    rsi
    6226:	48 ff ce             	dec    rsi
    6229:	fe 06                	inc    BYTE PTR [rsi]
    622b:	48 ff c6             	inc    rsi
    622e:	48 ff c6             	inc    rsi
    6231:	48 ff c6             	inc    rsi
    6234:	48 ff c6             	inc    rsi
    6237:	48 ff c6             	inc    rsi
    623a:	48 ff c6             	inc    rsi
    623d:	48 ff c6             	inc    rsi
    6240:	48 ff c6             	inc    rsi
    6243:	48 ff c6             	inc    rsi
    6246:	48 ff c6             	inc    rsi
    6249:	48 ff c6             	inc    rsi
    624c:	e9 9d ff ff ff       	jmp    0x61ee
    6251:	48 ff ce             	dec    rsi
    6254:	e9 78 ff ff ff       	jmp    0x61d1
    6259:	48 ff c6             	inc    rsi
    625c:	8a 06                	mov    al,BYTE PTR [rsi]
    625e:	84 c0                	test   al,al
    6260:	0f 84 15 00 00 00    	je     0x627b
    6266:	fe 0e                	dec    BYTE PTR [rsi]
    6268:	48 ff c6             	inc    rsi
    626b:	48 ff c6             	inc    rsi
    626e:	fe 06                	inc    BYTE PTR [rsi]
    6270:	48 ff ce             	dec    rsi
    6273:	48 ff ce             	dec    rsi
    6276:	e9 e1 ff ff ff       	jmp    0x625c
    627b:	48 ff ce             	dec    rsi
    627e:	48 ff ce             	dec    rsi
    6281:	48 ff ce             	dec    rsi
    6284:	48 ff ce             	dec    rsi
    6287:	48 ff ce             	dec    rsi
    628a:	48 ff ce             	dec    rsi
    628d:	48 ff ce             	dec    rsi
    6290:	48 ff ce             	dec    rsi
    6293:	48 ff ce             	dec    rsi
    6296:	48 ff ce             	dec    rsi
    6299:	48 ff ce             	dec    rsi
    629c:	48 ff ce             	dec    rsi
    629f:	e9 01 fe ff ff       	jmp    0x60a5
    62a4:	e9 d7 fc ff ff       	jmp    0x5f80
    62a9:	48 ff c6             	inc    rsi
    62ac:	48 ff c6             	inc    rsi
    62af:	48 ff c6             	inc    rsi
    62b2:	48 ff c6             	inc    rsi
    62b5:	48 ff c6             	inc    rsi
    62b8:	48 ff c6             	inc    rsi
    62bb:	48 ff c6             	inc    rsi
    62be:	48 ff c6             	inc    rsi
    62c1:	48 ff c6             	inc    rsi
    62c4:	8a 06                	mov    al,BYTE PTR [rsi]
    62c6:	84 c0                	test   al,al
    62c8:	0f 84 42 00 00 00    	je     0x6310
    62ce:	48 ff c6             	inc    rsi
    62d1:	48 ff c6             	inc    rsi
    62d4:	8a 06                	mov    al,BYTE PTR [rsi]
    62d6:	84 c0                	test   al,al
    62d8:	0f 84 07 00 00 00    	je     0x62e5
    62de:	fe 0e                	dec    BYTE PTR [rsi]
    62e0:	e9 ef ff ff ff       	jmp    0x62d4
    62e5:	48 ff c6             	inc    rsi
    62e8:	8a 06                	mov    al,BYTE PTR [rsi]
    62ea:	84 c0                	test   al,al
    62ec:	0f 84 07 00 00 00    	je     0x62f9
    62f2:	fe 0e                	dec    BYTE PTR [rsi]
    62f4:	e9 ef ff ff ff       	jmp    0x62e8
    62f9:	48 ff c6             	inc    rsi
    62fc:	48 ff c6             	inc    rsi
    62ff:	48 ff c6             	inc    rsi
    6302:	48 ff c6             	inc    rsi
    6305:	48 ff c6             	inc    rsi
    6308:	48 ff c6             	inc    rsi
    630b:	e9 b4 ff ff ff       	jmp    0x62c4
    6310:	48 ff ce             	dec    rsi
    6313:	48 ff ce             	dec    rsi
    6316:	48 ff ce             	dec    rsi
    6319:	48 ff ce             	dec    rsi
    631c:	48 ff ce             	dec    rsi
    631f:	48 ff ce             	dec    rsi
    6322:	48 ff ce             	dec    rsi
    6325:	48 ff ce             	dec    rsi
    6328:	48 ff ce             	dec    rsi
    632b:	8a 06                	mov    al,BYTE PTR [rsi]
    632d:	84 c0                	test   al,al
    632f:	0f 84 20 00 00 00    	je     0x6355
    6335:	48 ff ce             	dec    rsi
    6338:	48 ff ce             	dec    rsi
    633b:	48 ff ce             	dec    rsi
    633e:	48 ff ce             	dec    rsi
    6341:	48 ff ce             	dec    rsi
    6344:	48 ff ce             	dec    rsi
    6347:	48 ff ce             	dec    rsi
    634a:	48 ff ce             	dec    rsi
    634d:	48 ff ce             	dec    rsi
    6350:	e9 d6 ff ff ff       	jmp    0x632b
    6355:	48 ff c6             	inc    rsi
    6358:	48 ff c6             	inc    rsi
    635b:	48 ff c6             	inc    rsi
    635e:	8a 06                	mov    al,BYTE PTR [rsi]
    6360:	84 c0                	test   al,al
    6362:	0f 84 07 00 00 00    	je     0x636f
    6368:	fe 0e                	dec    BYTE PTR [rsi]
    636a:	e9 ef ff ff ff       	jmp    0x635e
    636f:	48 ff c6             	inc    rsi
    6372:	8a 06                	mov    al,BYTE PTR [rsi]
    6374:	84 c0                	test   al,al
    6376:	0f 84 07 00 00 00    	je     0x6383
    637c:	fe 0e                	dec    BYTE PTR [rsi]
    637e:	e9 ef ff ff ff       	jmp    0x6372
    6383:	48 ff c6             	inc    rsi
    6386:	48 ff c6             	inc    rsi
    6389:	48 ff c6             	inc    rsi
    638c:	48 ff c6             	inc    rsi
    638f:	48 ff c6             	inc    rsi
    6392:	8a 06                	mov    al,BYTE PTR [rsi]
    6394:	84 c0                	test   al,al
    6396:	0f 84 90 00 00 00    	je     0x642c
    639c:	48 ff c6             	inc    rsi
    639f:	48 ff c6             	inc    rsi
    63a2:	48 ff c6             	inc    rsi
    63a5:	48 ff c6             	inc    rsi
    63a8:	48 ff c6             	inc    rsi
    63ab:	8a 06                	mov    al,BYTE PTR [rsi]
    63ad:	84 c0                	test   al,al
    63af:	0f 84 21 00 00 00    	je     0x63d6
    63b5:	fe 0e                	dec    BYTE PTR [rsi]
    63b7:	48 ff ce             	dec    rsi
    63ba:	48 ff ce             	dec    rsi
    63bd:	48 ff ce             	dec    rsi
    63c0:	48 ff ce             	dec    rsi
    63c3:	fe 06                	inc    BYTE PTR [rsi]
    63c5:	48 ff c6             	inc    rsi
    63c8:	48 ff c6             	inc    rsi
    63cb:	48 ff c6             	inc    rsi
    63ce:	48 ff c6             	inc    rsi
    63d1:	e9 d5 ff ff ff       	jmp    0x63ab
    63d6:	48 ff ce             	dec    rsi
    63d9:	48 ff ce             	dec    rsi
    63dc:	48 ff ce             	dec    rsi
    63df:	48 ff ce             	dec    rsi
    63e2:	8a 06                	mov    al,BYTE PTR [rsi]
    63e4:	84 c0                	test   al,al
    63e6:	0f 84 23 00 00 00    	je     0x640f
    63ec:	fe 0e                	dec    BYTE PTR [rsi]
    63ee:	48 ff c6             	inc    rsi
    63f1:	48 ff c6             	inc    rsi
    63f4:	48 ff c6             	inc    rsi
    63f7:	48 ff c6             	inc    rsi
    63fa:	fe 06                	inc    BYTE PTR [rsi]
    63fc:	48 ff ce             	dec    rsi
    63ff:	48 ff ce             	dec    rsi
    6402:	48 ff ce             	dec    rsi
    6405:	fe 06                	inc    BYTE PTR [rsi]
    6407:	48 ff ce             	dec    rsi
    640a:	e9 d3 ff ff ff       	jmp    0x63e2
    640f:	48 ff c6             	inc    rsi
    6412:	48 ff c6             	inc    rsi
    6415:	48 ff c6             	inc    rsi
    6418:	48 ff c6             	inc    rsi
    641b:	48 ff c6             	inc    rsi
    641e:	48 ff c6             	inc    rsi
    6421:	48 ff c6             	inc    rsi
    6424:	48 ff c6             	inc    rsi
    6427:	e9 66 ff ff ff       	jmp    0x6392
    642c:	48 ff ce             	dec    rsi
    642f:	48 ff ce             	dec    rsi
    6432:	48 ff ce             	dec    rsi
    6435:	48 ff ce             	dec    rsi
    6438:	48 ff ce             	dec    rsi
    643b:	48 ff ce             	dec    rsi
    643e:	48 ff ce             	dec    rsi
    6441:	48 ff ce             	dec    rsi
    6444:	48 ff ce             	dec    rsi
    6447:	8a 06                	mov    al,BYTE PTR [rsi]
    6449:	84 c0                	test   al,al
    644b:	0f 84 20 00 00 00    	je     0x6471
    6451:	48 ff ce             	dec    rsi
    6454:	48 ff ce             	dec    rsi
    6457:	48 ff ce             	dec    rsi
    645a:	48 ff ce             	dec    rsi
    645d:	48 ff ce             	dec    rsi
    6460:	48 ff ce             	dec    rsi
    6463:	48 ff ce             	dec    rsi
    6466:	48 ff ce             	dec    rsi
    6469:	48 ff ce             	dec    rsi
    646c:	e9 d6 ff ff ff       	jmp    0x6447
    6471:	48 ff c6             	inc    rsi
    6474:	48 ff c6             	inc    rsi
    6477:	48 ff c6             	inc    rsi
    647a:	48 ff c6             	inc    rsi
    647d:	48 ff c6             	inc    rsi
    6480:	48 ff c6             	inc    rsi
    6483:	48 ff c6             	inc    rsi
    6486:	48 ff c6             	inc    rsi
    6489:	48 ff c6             	inc    rsi
    648c:	8a 06                	mov    al,BYTE PTR [rsi]
    648e:	84 c0                	test   al,al
    6490:	0f 84 a2 00 00 00    	je     0x6538
    6496:	48 ff c6             	inc    rsi
    6499:	48 ff c6             	inc    rsi
    649c:	48 ff c6             	inc    rsi
    649f:	48 ff c6             	inc    rsi
    64a2:	48 ff c6             	inc    rsi
    64a5:	48 ff c6             	inc    rsi
    64a8:	8a 06                	mov    al,BYTE PTR [rsi]
    64aa:	84 c0                	test   al,al
    64ac:	0f 84 27 00 00 00    	je     0x64d9
    64b2:	fe 0e                	dec    BYTE PTR [rsi]
    64b4:	48 ff ce             	dec    rsi
    64b7:	48 ff ce             	dec    rsi
    64ba:	48 ff ce             	dec    rsi
    64bd:	48 ff ce             	dec    rsi
    64c0:	48 ff ce             	dec    rsi
    64c3:	fe 06                	inc    BYTE PTR [rsi]
    64c5:	48 ff c6             	inc    rsi
    64c8:	48 ff c6             	inc    rsi
    64cb:	48 ff c6             	inc    rsi
    64ce:	48 ff c6             	inc    rsi
    64d1:	48 ff c6             	inc    rsi
    64d4:	e9 cf ff ff ff       	jmp    0x64a8
    64d9:	48 ff ce             	dec    rsi
    64dc:	48 ff ce             	dec    rsi
    64df:	48 ff ce             	dec    rsi
    64e2:	48 ff ce             	dec    rsi
    64e5:	48 ff ce             	dec    rsi
    64e8:	8a 06                	mov    al,BYTE PTR [rsi]
    64ea:	84 c0                	test   al,al
    64ec:	0f 84 29 00 00 00    	je     0x651b
    64f2:	fe 0e                	dec    BYTE PTR [rsi]
    64f4:	48 ff c6             	inc    rsi
    64f7:	48 ff c6             	inc    rsi
    64fa:	48 ff c6             	inc    rsi
    64fd:	48 ff c6             	inc    rsi
    6500:	48 ff c6             	inc    rsi
    6503:	fe 06                	inc    BYTE PTR [rsi]
    6505:	48 ff ce             	dec    rsi
    6508:	48 ff ce             	dec    rsi
    650b:	48 ff ce             	dec    rsi
    650e:	fe 06                	inc    BYTE PTR [rsi]
    6510:	48 ff ce             	dec    rsi
    6513:	48 ff ce             	dec    rsi
    6516:	e9 cd ff ff ff       	jmp    0x64e8
    651b:	48 ff c6             	inc    rsi
    651e:	48 ff c6             	inc    rsi
    6521:	48 ff c6             	inc    rsi
    6524:	48 ff c6             	inc    rsi
    6527:	48 ff c6             	inc    rsi
    652a:	48 ff c6             	inc    rsi
    652d:	48 ff c6             	inc    rsi
    6530:	48 ff c6             	inc    rsi
    6533:	e9 54 ff ff ff       	jmp    0x648c
    6538:	48 ff ce             	dec    rsi
    653b:	48 ff ce             	dec    rsi
    653e:	48 ff ce             	dec    rsi
    6541:	48 ff ce             	dec    rsi
    6544:	48 ff ce             	dec    rsi
    6547:	48 ff ce             	dec    rsi
    654a:	48 ff ce             	dec    rsi
    654d:	48 ff ce             	dec    rsi
    6550:	48 ff ce             	dec    rsi
    6553:	8a 06                	mov    al,BYTE PTR [rsi]
    6555:	84 c0                	test   al,al
    6557:	0f 84 20 00 00 00    	je     0x657d
    655d:	48 ff ce             	dec    rsi
    6560:	48 ff ce             	dec    rsi
    6563:	48 ff ce             	dec    rsi
    6566:	48 ff ce             	dec    rsi
    6569:	48 ff ce             	dec    rsi
    656c:	48 ff ce             	dec    rsi
    656f:	48 ff ce             	dec    rsi
    6572:	48 ff ce             	dec    rsi
    6575:	48 ff ce             	dec    rsi
    6578:	e9 d6 ff ff ff       	jmp    0x6553
    657d:	48 ff c6             	inc    rsi
    6580:	48 ff c6             	inc    rsi
    6583:	48 ff c6             	inc    rsi
    6586:	48 ff c6             	inc    rsi
    6589:	48 ff c6             	inc    rsi
    658c:	48 ff c6             	inc    rsi
    658f:	48 ff c6             	inc    rsi
    6592:	48 ff c6             	inc    rsi
    6595:	48 ff c6             	inc    rsi
    6598:	fe 06                	inc    BYTE PTR [rsi]
    659a:	fe 06                	inc    BYTE PTR [rsi]
    659c:	fe 06                	inc    BYTE PTR [rsi]
    659e:	fe 06                	inc    BYTE PTR [rsi]
    65a0:	fe 06                	inc    BYTE PTR [rsi]
    65a2:	fe 06                	inc    BYTE PTR [rsi]
    65a4:	fe 06                	inc    BYTE PTR [rsi]
    65a6:	fe 06                	inc    BYTE PTR [rsi]
    65a8:	fe 06                	inc    BYTE PTR [rsi]
    65aa:	fe 06                	inc    BYTE PTR [rsi]
    65ac:	fe 06                	inc    BYTE PTR [rsi]
    65ae:	fe 06                	inc    BYTE PTR [rsi]
    65b0:	fe 06                	inc    BYTE PTR [rsi]
    65b2:	fe 06                	inc    BYTE PTR [rsi]
    65b4:	fe 06                	inc    BYTE PTR [rsi]
    65b6:	8a 06                	mov    al,BYTE PTR [rsi]
    65b8:	84 c0                	test   al,al
    65ba:	0f 84 47 01 00 00    	je     0x6707
    65c0:	8a 06                	mov    al,BYTE PTR [rsi]
    65c2:	84 c0                	test   al,al
    65c4:	0f 84 20 00 00 00    	je     0x65ea
    65ca:	48 ff c6             	inc    rsi
    65cd:	48 ff c6             	inc    rsi
    65d0:	48 ff c6             	inc    rsi
    65d3:	48 ff c6             	inc    rsi
    65d6:	48 ff c6             	inc    rsi
    65d9:	48 ff c6             	inc    rsi
    65dc:	48 ff c6             	inc    rsi
    65df:	48 ff c6             	inc    rsi
    65e2:	48 ff c6             	inc    rsi
    65e5:	e9 d6 ff ff ff       	jmp    0x65c0
    65ea:	fe 06                	inc    BYTE PTR [rsi]
    65ec:	48 ff c6             	inc    rsi
    65ef:	8a 06                	mov    al,BYTE PTR [rsi]
    65f1:	84 c0                	test   al,al
    65f3:	0f 84 07 00 00 00    	je     0x6600
    65f9:	fe 0e                	dec    BYTE PTR [rsi]
    65fb:	e9 ef ff ff ff       	jmp    0x65ef
    6600:	48 ff c6             	inc    rsi
    6603:	8a 06                	mov    al,BYTE PTR [rsi]
    6605:	84 c0                	test   al,al
    6607:	0f 84 07 00 00 00    	je     0x6614
    660d:	fe 0e                	dec    BYTE PTR [rsi]
    660f:	e9 ef ff ff ff       	jmp    0x6603
    6614:	48 ff c6             	inc    rsi
    6617:	8a 06                	mov    al,BYTE PTR [rsi]
    6619:	84 c0                	test   al,al
    661b:	0f 84 07 00 00 00    	je     0x6628
    6621:	fe 0e                	dec    BYTE PTR [rsi]
    6623:	e9 ef ff ff ff       	jmp    0x6617
    6628:	48 ff c6             	inc    rsi
    662b:	8a 06                	mov    al,BYTE PTR [rsi]
    662d:	84 c0                	test   al,al
    662f:	0f 84 07 00 00 00    	je     0x663c
    6635:	fe 0e                	dec    BYTE PTR [rsi]
    6637:	e9 ef ff ff ff       	jmp    0x662b
    663c:	48 ff c6             	inc    rsi
    663f:	8a 06                	mov    al,BYTE PTR [rsi]
    6641:	84 c0                	test   al,al
    6643:	0f 84 07 00 00 00    	je     0x6650
    6649:	fe 0e                	dec    BYTE PTR [rsi]
    664b:	e9 ef ff ff ff       	jmp    0x663f
    6650:	48 ff c6             	inc    rsi
    6653:	8a 06                	mov    al,BYTE PTR [rsi]
    6655:	84 c0                	test   al,al
    6657:	0f 84 07 00 00 00    	je     0x6664
    665d:	fe 0e                	dec    BYTE PTR [rsi]
    665f:	e9 ef ff ff ff       	jmp    0x6653
    6664:	48 ff c6             	inc    rsi
    6667:	8a 06                	mov    al,BYTE PTR [rsi]
    6669:	84 c0                	test   al,al
    666b:	0f 84 07 00 00 00    	je     0x6678
    6671:	fe 0e                	dec    BYTE PTR [rsi]
    6673:	e9 ef ff ff ff       	jmp    0x6667
    6678:	48 ff c6             	inc    rsi
    667b:	8a 06                	mov    al,BYTE PTR [rsi]
    667d:	84 c0                	test   al,al
    667f:	0f 84 07 00 00 00    	je     0x668c
    6685:	fe 0e                	dec    BYTE PTR [rsi]
    6687:	e9 ef ff ff ff       	jmp    0x667b
    668c:	48 ff c6             	inc    rsi
    668f:	8a 06                	mov    al,BYTE PTR [rsi]
    6691:	84 c0                	test   al,al
    6693:	0f 84 07 00 00 00    	je     0x66a0
    6699:	fe 0e                	dec    BYTE PTR [rsi]
    669b:	e9 ef ff ff ff       	jmp    0x668f
    66a0:	48 ff ce             	dec    rsi
    66a3:	48 ff ce             	dec    rsi
    66a6:	48 ff ce             	dec    rsi
    66a9:	48 ff ce             	dec    rsi
    66ac:	48 ff ce             	dec    rsi
    66af:	48 ff ce             	dec    rsi
    66b2:	48 ff ce             	dec    rsi
    66b5:	48 ff ce             	dec    rsi
    66b8:	48 ff ce             	dec    rsi
    66bb:	8a 06                	mov    al,BYTE PTR [rsi]
    66bd:	84 c0                	test   al,al
    66bf:	0f 84 20 00 00 00    	je     0x66e5
    66c5:	48 ff ce             	dec    rsi
    66c8:	48 ff ce             	dec    rsi
    66cb:	48 ff ce             	dec    rsi
    66ce:	48 ff ce             	dec    rsi
    66d1:	48 ff ce             	dec    rsi
    66d4:	48 ff ce             	dec    rsi
    66d7:	48 ff ce             	dec    rsi
    66da:	48 ff ce             	dec    rsi
    66dd:	48 ff ce             	dec    rsi
    66e0:	e9 d6 ff ff ff       	jmp    0x66bb
    66e5:	48 ff c6             	inc    rsi
    66e8:	48 ff c6             	inc    rsi
    66eb:	48 ff c6             	inc    rsi
    66ee:	48 ff c6             	inc    rsi
    66f1:	48 ff c6             	inc    rsi
    66f4:	48 ff c6             	inc    rsi
    66f7:	48 ff c6             	inc    rsi
    66fa:	48 ff c6             	inc    rsi
    66fd:	48 ff c6             	inc    rsi
    6700:	fe 0e                	dec    BYTE PTR [rsi]
    6702:	e9 af fe ff ff       	jmp    0x65b6
    6707:	fe 06                	inc    BYTE PTR [rsi]
    6709:	8a 06                	mov    al,BYTE PTR [rsi]
    670b:	84 c0                	test   al,al
    670d:	0f 84 22 00 00 00    	je     0x6735
    6713:	48 ff c6             	inc    rsi
    6716:	fe 06                	inc    BYTE PTR [rsi]
    6718:	48 ff c6             	inc    rsi
    671b:	48 ff c6             	inc    rsi
    671e:	48 ff c6             	inc    rsi
    6721:	48 ff c6             	inc    rsi
    6724:	48 ff c6             	inc    rsi
    6727:	48 ff c6             	inc    rsi
    672a:	48 ff c6             	inc    rsi
    672d:	48 ff c6             	inc    rsi
    6730:	e9 d4 ff ff ff       	jmp    0x6709
    6735:	48 ff ce             	dec    rsi
    6738:	48 ff ce             	dec    rsi
    673b:	48 ff ce             	dec    rsi
    673e:	48 ff ce             	dec    rsi
    6741:	48 ff ce             	dec    rsi
    6744:	48 ff ce             	dec    rsi
    6747:	48 ff ce             	dec    rsi
    674a:	48 ff ce             	dec    rsi
    674d:	48 ff ce             	dec    rsi
    6750:	8a 06                	mov    al,BYTE PTR [rsi]
    6752:	84 c0                	test   al,al
    6754:	0f 84 20 00 00 00    	je     0x677a
    675a:	48 ff ce             	dec    rsi
    675d:	48 ff ce             	dec    rsi
    6760:	48 ff ce             	dec    rsi
    6763:	48 ff ce             	dec    rsi
    6766:	48 ff ce             	dec    rsi
    6769:	48 ff ce             	dec    rsi
    676c:	48 ff ce             	dec    rsi
    676f:	48 ff ce             	dec    rsi
    6772:	48 ff ce             	dec    rsi
    6775:	e9 d6 ff ff ff       	jmp    0x6750
    677a:	48 ff c6             	inc    rsi
    677d:	48 ff c6             	inc    rsi
    6780:	48 ff c6             	inc    rsi
    6783:	48 ff c6             	inc    rsi
    6786:	48 ff c6             	inc    rsi
    6789:	48 ff c6             	inc    rsi
    678c:	48 ff c6             	inc    rsi
    678f:	48 ff c6             	inc    rsi
    6792:	48 ff c6             	inc    rsi
    6795:	8a 06                	mov    al,BYTE PTR [rsi]
    6797:	84 c0                	test   al,al
    6799:	0f 84 85 02 00 00    	je     0x6a24
    679f:	48 ff c6             	inc    rsi
    67a2:	fe 0e                	dec    BYTE PTR [rsi]
    67a4:	48 ff c6             	inc    rsi
    67a7:	48 ff c6             	inc    rsi
    67aa:	48 ff c6             	inc    rsi
    67ad:	48 ff c6             	inc    rsi
    67b0:	8a 06                	mov    al,BYTE PTR [rsi]
    67b2:	84 c0                	test   al,al
    67b4:	0f 84 21 00 00 00    	je     0x67db
    67ba:	fe 0e                	dec    BYTE PTR [rsi]
    67bc:	48 ff ce             	dec    rsi
    67bf:	48 ff ce             	dec    rsi
    67c2:	48 ff ce             	dec    rsi
    67c5:	48 ff ce             	dec    rsi
    67c8:	fe 06                	inc    BYTE PTR [rsi]
    67ca:	48 ff c6             	inc    rsi
    67cd:	48 ff c6             	inc    rsi
    67d0:	48 ff c6             	inc    rsi
    67d3:	48 ff c6             	inc    rsi
    67d6:	e9 d5 ff ff ff       	jmp    0x67b0
    67db:	48 ff ce             	dec    rsi
    67de:	48 ff ce             	dec    rsi
    67e1:	48 ff ce             	dec    rsi
    67e4:	48 ff ce             	dec    rsi
    67e7:	8a 06                	mov    al,BYTE PTR [rsi]
    67e9:	84 c0                	test   al,al
    67eb:	0f 84 ec 00 00 00    	je     0x68dd
    67f1:	fe 0e                	dec    BYTE PTR [rsi]
    67f3:	48 ff c6             	inc    rsi
    67f6:	48 ff c6             	inc    rsi
    67f9:	48 ff c6             	inc    rsi
    67fc:	48 ff c6             	inc    rsi
    67ff:	fe 06                	inc    BYTE PTR [rsi]
    6801:	48 ff ce             	dec    rsi
    6804:	48 ff ce             	dec    rsi
    6807:	48 ff ce             	dec    rsi
    680a:	48 ff ce             	dec    rsi
    680d:	48 ff ce             	dec    rsi
    6810:	8a 06                	mov    al,BYTE PTR [rsi]
    6812:	84 c0                	test   al,al
    6814:	0f 84 7c 00 00 00    	je     0x6896
    681a:	fe 0e                	dec    BYTE PTR [rsi]
    681c:	48 ff c6             	inc    rsi
    681f:	48 ff c6             	inc    rsi
    6822:	8a 06                	mov    al,BYTE PTR [rsi]
    6824:	84 c0                	test   al,al
    6826:	0f 84 15 00 00 00    	je     0x6841
    682c:	fe 0e                	dec    BYTE PTR [rsi]
    682e:	48 ff ce             	dec    rsi
    6831:	48 ff ce             	dec    rsi
    6834:	fe 06                	inc    BYTE PTR [rsi]
    6836:	48 ff c6             	inc    rsi
    6839:	48 ff c6             	inc    rsi
    683c:	e9 e1 ff ff ff       	jmp    0x6822
    6841:	48 ff ce             	dec    rsi
    6844:	48 ff ce             	dec    rsi
    6847:	8a 06                	mov    al,BYTE PTR [rsi]
    6849:	84 c0                	test   al,al
    684b:	0f 84 23 00 00 00    	je     0x6874
    6851:	fe 0e                	dec    BYTE PTR [rsi]
    6853:	48 ff c6             	inc    rsi
    6856:	48 ff c6             	inc    rsi
    6859:	fe 06                	inc    BYTE PTR [rsi]
    685b:	48 ff c6             	inc    rsi
    685e:	48 ff c6             	inc    rsi
    6861:	fe 06                	inc    BYTE PTR [rsi]
    6863:	48 ff ce             	dec    rsi
    6866:	48 ff ce             	dec    rsi
    6869:	48 ff ce             	dec    rsi
    686c:	48 ff ce             	dec    rsi
    686f:	e9 d3 ff ff ff       	jmp    0x6847
    6874:	fe 06                	inc    BYTE PTR [rsi]
    6876:	48 ff c6             	inc    rsi
    6879:	48 ff c6             	inc    rsi
    687c:	48 ff c6             	inc    rsi
    687f:	48 ff c6             	inc    rsi
    6882:	48 ff c6             	inc    rsi
    6885:	48 ff c6             	inc    rsi
    6888:	48 ff c6             	inc    rsi
    688b:	48 ff c6             	inc    rsi
    688e:	48 ff c6             	inc    rsi
    6891:	e9 7a ff ff ff       	jmp    0x6810
    6896:	48 ff ce             	dec    rsi
    6899:	48 ff ce             	dec    rsi
    689c:	48 ff ce             	dec    rsi
    689f:	48 ff ce             	dec    rsi
    68a2:	48 ff ce             	dec    rsi
    68a5:	48 ff ce             	dec    rsi
    68a8:	48 ff ce             	dec    rsi
    68ab:	48 ff ce             	dec    rsi
    68ae:	8a 06                	mov    al,BYTE PTR [rsi]
    68b0:	84 c0                	test   al,al
    68b2:	0f 84 20 00 00 00    	je     0x68d8
    68b8:	48 ff ce             	dec    rsi
    68bb:	48 ff ce             	dec    rsi
    68be:	48 ff ce             	dec    rsi
    68c1:	48 ff ce             	dec    rsi
    68c4:	48 ff ce             	dec    rsi
    68c7:	48 ff ce             	dec    rsi
    68ca:	48 ff ce             	dec    rsi
    68cd:	48 ff ce             	dec    rsi
    68d0:	48 ff ce             	dec    rsi
    68d3:	e9 d6 ff ff ff       	jmp    0x68ae
    68d8:	e9 0a ff ff ff       	jmp    0x67e7
    68dd:	48 ff c6             	inc    rsi
    68e0:	48 ff c6             	inc    rsi
    68e3:	48 ff c6             	inc    rsi
    68e6:	48 ff c6             	inc    rsi
    68e9:	48 ff c6             	inc    rsi
    68ec:	48 ff c6             	inc    rsi
    68ef:	48 ff c6             	inc    rsi
    68f2:	48 ff c6             	inc    rsi
    68f5:	48 ff c6             	inc    rsi
    68f8:	8a 06                	mov    al,BYTE PTR [rsi]
    68fa:	84 c0                	test   al,al
    68fc:	0f 84 20 00 00 00    	je     0x6922
    6902:	48 ff c6             	inc    rsi
    6905:	48 ff c6             	inc    rsi
    6908:	48 ff c6             	inc    rsi
    690b:	48 ff c6             	inc    rsi
    690e:	48 ff c6             	inc    rsi
    6911:	48 ff c6             	inc    rsi
    6914:	48 ff c6             	inc    rsi
    6917:	48 ff c6             	inc    rsi
    691a:	48 ff c6             	inc    rsi
    691d:	e9 d6 ff ff ff       	jmp    0x68f8
    6922:	48 ff ce             	dec    rsi
    6925:	48 ff ce             	dec    rsi
    6928:	48 ff ce             	dec    rsi
    692b:	48 ff ce             	dec    rsi
    692e:	48 ff ce             	dec    rsi
    6931:	48 ff ce             	dec    rsi
    6934:	48 ff ce             	dec    rsi
    6937:	48 ff ce             	dec    rsi
    693a:	48 ff ce             	dec    rsi
    693d:	8a 06                	mov    al,BYTE PTR [rsi]
    693f:	84 c0                	test   al,al
    6941:	0f 84 6f 00 00 00    	je     0x69b6
    6947:	48 ff c6             	inc    rsi
    694a:	8a 06                	mov    al,BYTE PTR [rsi]
    694c:	84 c0                	test   al,al
    694e:	0f 84 3f 00 00 00    	je     0x6993
    6954:	fe 0e                	dec    BYTE PTR [rsi]
    6956:	48 ff c6             	inc    rsi
    6959:	48 ff c6             	inc    rsi
    695c:	48 ff c6             	inc    rsi
    695f:	48 ff c6             	inc    rsi
    6962:	48 ff c6             	inc    rsi
    6965:	48 ff c6             	inc    rsi
    6968:	48 ff c6             	inc    rsi
    696b:	48 ff c6             	inc    rsi
    696e:	48 ff c6             	inc    rsi
    6971:	fe 06                	inc    BYTE PTR [rsi]
    6973:	48 ff ce             	dec    rsi
    6976:	48 ff ce             	dec    rsi
    6979:	48 ff ce             	dec    rsi
    697c:	48 ff ce             	dec    rsi
    697f:	48 ff ce             	dec    rsi
    6982:	48 ff ce             	dec    rsi
    6985:	48 ff ce             	dec    rsi
    6988:	48 ff ce             	dec    rsi
    698b:	48 ff ce             	dec    rsi
    698e:	e9 b7 ff ff ff       	jmp    0x694a
    6993:	48 ff ce             	dec    rsi
    6996:	48 ff ce             	dec    rsi
    6999:	48 ff ce             	dec    rsi
    699c:	48 ff ce             	dec    rsi
    699f:	48 ff ce             	dec    rsi
    69a2:	48 ff ce             	dec    rsi
    69a5:	48 ff ce             	dec    rsi
    69a8:	48 ff ce             	dec    rsi
    69ab:	48 ff ce             	dec    rsi
    69ae:	48 ff ce             	dec    rsi
    69b1:	e9 87 ff ff ff       	jmp    0x693d
    69b6:	48 ff c6             	inc    rsi
    69b9:	8a 06                	mov    al,BYTE PTR [rsi]
    69bb:	84 c0                	test   al,al
    69bd:	0f 84 3f 00 00 00    	je     0x6a02
    69c3:	fe 0e                	dec    BYTE PTR [rsi]
    69c5:	48 ff c6             	inc    rsi
    69c8:	48 ff c6             	inc    rsi
    69cb:	48 ff c6             	inc    rsi
    69ce:	48 ff c6             	inc    rsi
    69d1:	48 ff c6             	inc    rsi
    69d4:	48 ff c6             	inc    rsi
    69d7:	48 ff c6             	inc    rsi
    69da:	48 ff c6             	inc    rsi
    69dd:	48 ff c6             	inc    rsi
    69e0:	fe 06                	inc    BYTE PTR [rsi]
    69e2:	48 ff ce             	dec    rsi
    69e5:	48 ff ce             	dec    rsi
    69e8:	48 ff ce             	dec    rsi
    69eb:	48 ff ce             	dec    rsi
    69ee:	48 ff ce             	dec    rsi
    69f1:	48 ff ce             	dec    rsi
    69f4:	48 ff ce             	dec    rsi
    69f7:	48 ff ce             	dec    rsi
    69fa:	48 ff ce             	dec    rsi
    69fd:	e9 b7 ff ff ff       	jmp    0x69b9
    6a02:	48 ff ce             	dec    rsi
    6a05:	fe 06                	inc    BYTE PTR [rsi]
    6a07:	48 ff c6             	inc    rsi
    6a0a:	48 ff c6             	inc    rsi
    6a0d:	48 ff c6             	inc    rsi
    6a10:	48 ff c6             	inc    rsi
    6a13:	48 ff c6             	inc    rsi
    6a16:	48 ff c6             	inc    rsi
    6a19:	48 ff c6             	inc    rsi
    6a1c:	48 ff c6             	inc    rsi
    6a1f:	e9 71 fd ff ff       	jmp    0x6795
    6a24:	48 ff ce             	dec    rsi
    6a27:	48 ff ce             	dec    rsi
    6a2a:	48 ff ce             	dec    rsi
    6a2d:	48 ff ce             	dec    rsi
    6a30:	48 ff ce             	dec    rsi
    6a33:	48 ff ce             	dec    rsi
    6a36:	48 ff ce             	dec    rsi
    6a39:	48 ff ce             	dec    rsi
    6a3c:	48 ff ce             	dec    rsi
    6a3f:	8a 06                	mov    al,BYTE PTR [rsi]
    6a41:	84 c0                	test   al,al
    6a43:	0f 84 01 01 00 00    	je     0x6b4a
    6a49:	48 ff c6             	inc    rsi
    6a4c:	8a 06                	mov    al,BYTE PTR [rsi]
    6a4e:	84 c0                	test   al,al
    6a50:	0f 84 07 00 00 00    	je     0x6a5d
    6a56:	fe 0e                	dec    BYTE PTR [rsi]
    6a58:	e9 ef ff ff ff       	jmp    0x6a4c
    6a5d:	48 ff ce             	dec    rsi
    6a60:	fe 0e                	dec    BYTE PTR [rsi]
    6a62:	48 ff c6             	inc    rsi
    6a65:	48 ff c6             	inc    rsi
    6a68:	48 ff c6             	inc    rsi
    6a6b:	48 ff c6             	inc    rsi
    6a6e:	8a 06                	mov    al,BYTE PTR [rsi]
    6a70:	84 c0                	test   al,al
    6a72:	0f 84 7f 00 00 00    	je     0x6af7
    6a78:	fe 0e                	dec    BYTE PTR [rsi]
    6a7a:	48 ff ce             	dec    rsi
    6a7d:	48 ff ce             	dec    rsi
    6a80:	48 ff ce             	dec    rsi
    6a83:	48 ff ce             	dec    rsi
    6a86:	fe 06                	inc    BYTE PTR [rsi]
    6a88:	48 ff c6             	inc    rsi
    6a8b:	8a 06                	mov    al,BYTE PTR [rsi]
    6a8d:	84 c0                	test   al,al
    6a8f:	0f 84 35 00 00 00    	je     0x6aca
    6a95:	48 ff ce             	dec    rsi
    6a98:	fe 0e                	dec    BYTE PTR [rsi]
    6a9a:	48 ff c6             	inc    rsi
    6a9d:	fe 0e                	dec    BYTE PTR [rsi]
    6a9f:	48 ff ce             	dec    rsi
    6aa2:	48 ff ce             	dec    rsi
    6aa5:	48 ff ce             	dec    rsi
    6aa8:	48 ff ce             	dec    rsi
    6aab:	48 ff ce             	dec    rsi
    6aae:	48 ff ce             	dec    rsi
    6ab1:	fe 06                	inc    BYTE PTR [rsi]
    6ab3:	48 ff c6             	inc    rsi
    6ab6:	48 ff c6             	inc    rsi
    6ab9:	48 ff c6             	inc    rsi
    6abc:	48 ff c6             	inc    rsi
    6abf:	48 ff c6             	inc    rsi
    6ac2:	48 ff c6             	inc    rsi
    6ac5:	e9 c1 ff ff ff       	jmp    0x6a8b
    6aca:	48 ff ce             	dec    rsi
    6acd:	8a 06                	mov    al,BYTE PTR [rsi]
    6acf:	84 c0                	test   al,al
    6ad1:	0f 84 0f 00 00 00    	je     0x6ae6
    6ad7:	fe 0e                	dec    BYTE PTR [rsi]
    6ad9:	48 ff c6             	inc    rsi
    6adc:	fe 06                	inc    BYTE PTR [rsi]
    6ade:	48 ff ce             	dec    rsi
    6ae1:	e9 e7 ff ff ff       	jmp    0x6acd
    6ae6:	48 ff c6             	inc    rsi
    6ae9:	48 ff c6             	inc    rsi
    6aec:	48 ff c6             	inc    rsi
    6aef:	48 ff c6             	inc    rsi
    6af2:	e9 77 ff ff ff       	jmp    0x6a6e
    6af7:	48 ff ce             	dec    rsi
    6afa:	48 ff ce             	dec    rsi
    6afd:	48 ff ce             	dec    rsi
    6b00:	8a 06                	mov    al,BYTE PTR [rsi]
    6b02:	84 c0                	test   al,al
    6b04:	0f 84 1b 00 00 00    	je     0x6b25
    6b0a:	fe 0e                	dec    BYTE PTR [rsi]
    6b0c:	48 ff c6             	inc    rsi
    6b0f:	48 ff c6             	inc    rsi
    6b12:	48 ff c6             	inc    rsi
    6b15:	fe 06                	inc    BYTE PTR [rsi]
    6b17:	48 ff ce             	dec    rsi
    6b1a:	48 ff ce             	dec    rsi
    6b1d:	48 ff ce             	dec    rsi
    6b20:	e9 db ff ff ff       	jmp    0x6b00
    6b25:	48 ff ce             	dec    rsi
    6b28:	fe 06                	inc    BYTE PTR [rsi]
    6b2a:	48 ff ce             	dec    rsi
    6b2d:	48 ff ce             	dec    rsi
    6b30:	48 ff ce             	dec    rsi
    6b33:	48 ff ce             	dec    rsi
    6b36:	48 ff ce             	dec    rsi
    6b39:	48 ff ce             	dec    rsi
    6b3c:	48 ff ce             	dec    rsi
    6b3f:	48 ff ce             	dec    rsi
    6b42:	48 ff ce             	dec    rsi
    6b45:	e9 f5 fe ff ff       	jmp    0x6a3f
    6b4a:	48 ff c6             	inc    rsi
    6b4d:	48 ff c6             	inc    rsi
    6b50:	48 ff c6             	inc    rsi
    6b53:	48 ff c6             	inc    rsi
    6b56:	48 ff c6             	inc    rsi
    6b59:	48 ff c6             	inc    rsi
    6b5c:	48 ff c6             	inc    rsi
    6b5f:	48 ff c6             	inc    rsi
    6b62:	48 ff c6             	inc    rsi
    6b65:	8a 06                	mov    al,BYTE PTR [rsi]
    6b67:	84 c0                	test   al,al
    6b69:	0f 84 22 00 00 00    	je     0x6b91
    6b6f:	48 ff c6             	inc    rsi
    6b72:	fe 06                	inc    BYTE PTR [rsi]
    6b74:	48 ff c6             	inc    rsi
    6b77:	48 ff c6             	inc    rsi
    6b7a:	48 ff c6             	inc    rsi
    6b7d:	48 ff c6             	inc    rsi
    6b80:	48 ff c6             	inc    rsi
    6b83:	48 ff c6             	inc    rsi
    6b86:	48 ff c6             	inc    rsi
    6b89:	48 ff c6             	inc    rsi
    6b8c:	e9 d4 ff ff ff       	jmp    0x6b65
    6b91:	48 ff ce             	dec    rsi
    6b94:	48 ff ce             	dec    rsi
    6b97:	48 ff ce             	dec    rsi
    6b9a:	48 ff ce             	dec    rsi
    6b9d:	48 ff ce             	dec    rsi
    6ba0:	48 ff ce             	dec    rsi
    6ba3:	48 ff ce             	dec    rsi
    6ba6:	48 ff ce             	dec    rsi
    6ba9:	48 ff ce             	dec    rsi
    6bac:	8a 06                	mov    al,BYTE PTR [rsi]
    6bae:	84 c0                	test   al,al
    6bb0:	0f 84 20 00 00 00    	je     0x6bd6
    6bb6:	48 ff ce             	dec    rsi
    6bb9:	48 ff ce             	dec    rsi
    6bbc:	48 ff ce             	dec    rsi
    6bbf:	48 ff ce             	dec    rsi
    6bc2:	48 ff ce             	dec    rsi
    6bc5:	48 ff ce             	dec    rsi
    6bc8:	48 ff ce             	dec    rsi
    6bcb:	48 ff ce             	dec    rsi
    6bce:	48 ff ce             	dec    rsi
    6bd1:	e9 d6 ff ff ff       	jmp    0x6bac
    6bd6:	48 ff c6             	inc    rsi
    6bd9:	48 ff c6             	inc    rsi
    6bdc:	48 ff c6             	inc    rsi
    6bdf:	48 ff c6             	inc    rsi
    6be2:	48 ff c6             	inc    rsi
    6be5:	48 ff c6             	inc    rsi
    6be8:	48 ff c6             	inc    rsi
    6beb:	48 ff c6             	inc    rsi
    6bee:	48 ff c6             	inc    rsi
    6bf1:	8a 06                	mov    al,BYTE PTR [rsi]
    6bf3:	84 c0                	test   al,al
    6bf5:	0f 84 af 02 00 00    	je     0x6eaa
    6bfb:	48 ff c6             	inc    rsi
    6bfe:	fe 0e                	dec    BYTE PTR [rsi]
    6c00:	48 ff c6             	inc    rsi
    6c03:	48 ff c6             	inc    rsi
    6c06:	48 ff c6             	inc    rsi
    6c09:	48 ff c6             	inc    rsi
    6c0c:	48 ff c6             	inc    rsi
    6c0f:	8a 06                	mov    al,BYTE PTR [rsi]
    6c11:	84 c0                	test   al,al
    6c13:	0f 84 27 00 00 00    	je     0x6c40
    6c19:	fe 0e                	dec    BYTE PTR [rsi]
    6c1b:	48 ff ce             	dec    rsi
    6c1e:	48 ff ce             	dec    rsi
    6c21:	48 ff ce             	dec    rsi
    6c24:	48 ff ce             	dec    rsi
    6c27:	48 ff ce             	dec    rsi
    6c2a:	fe 06                	inc    BYTE PTR [rsi]
    6c2c:	48 ff c6             	inc    rsi
    6c2f:	48 ff c6             	inc    rsi
    6c32:	48 ff c6             	inc    rsi
    6c35:	48 ff c6             	inc    rsi
    6c38:	48 ff c6             	inc    rsi
    6c3b:	e9 cf ff ff ff       	jmp    0x6c0f
    6c40:	48 ff ce             	dec    rsi
    6c43:	48 ff ce             	dec    rsi
    6c46:	48 ff ce             	dec    rsi
    6c49:	48 ff ce             	dec    rsi
    6c4c:	48 ff ce             	dec    rsi
    6c4f:	8a 06                	mov    al,BYTE PTR [rsi]
    6c51:	84 c0                	test   al,al
    6c53:	0f 84 fe 00 00 00    	je     0x6d57
    6c59:	fe 0e                	dec    BYTE PTR [rsi]
    6c5b:	48 ff c6             	inc    rsi
    6c5e:	48 ff c6             	inc    rsi
    6c61:	48 ff c6             	inc    rsi
    6c64:	48 ff c6             	inc    rsi
    6c67:	48 ff c6             	inc    rsi
    6c6a:	fe 06                	inc    BYTE PTR [rsi]
    6c6c:	48 ff ce             	dec    rsi
    6c6f:	48 ff ce             	dec    rsi
    6c72:	48 ff ce             	dec    rsi
    6c75:	48 ff ce             	dec    rsi
    6c78:	48 ff ce             	dec    rsi
    6c7b:	48 ff ce             	dec    rsi
    6c7e:	8a 06                	mov    al,BYTE PTR [rsi]
    6c80:	84 c0                	test   al,al
    6c82:	0f 84 88 00 00 00    	je     0x6d10
    6c88:	fe 0e                	dec    BYTE PTR [rsi]
    6c8a:	48 ff c6             	inc    rsi
    6c8d:	48 ff c6             	inc    rsi
    6c90:	48 ff c6             	inc    rsi
    6c93:	8a 06                	mov    al,BYTE PTR [rsi]
    6c95:	84 c0                	test   al,al
    6c97:	0f 84 1b 00 00 00    	je     0x6cb8
    6c9d:	fe 0e                	dec    BYTE PTR [rsi]
    6c9f:	48 ff ce             	dec    rsi
    6ca2:	48 ff ce             	dec    rsi
    6ca5:	48 ff ce             	dec    rsi
    6ca8:	fe 06                	inc    BYTE PTR [rsi]
    6caa:	48 ff c6             	inc    rsi
    6cad:	48 ff c6             	inc    rsi
    6cb0:	48 ff c6             	inc    rsi
    6cb3:	e9 db ff ff ff       	jmp    0x6c93
    6cb8:	48 ff ce             	dec    rsi
    6cbb:	48 ff ce             	dec    rsi
    6cbe:	48 ff ce             	dec    rsi
    6cc1:	8a 06                	mov    al,BYTE PTR [rsi]
    6cc3:	84 c0                	test   al,al
    6cc5:	0f 84 23 00 00 00    	je     0x6cee
    6ccb:	fe 0e                	dec    BYTE PTR [rsi]
    6ccd:	48 ff c6             	inc    rsi
    6cd0:	48 ff c6             	inc    rsi
    6cd3:	48 ff c6             	inc    rsi
    6cd6:	fe 06                	inc    BYTE PTR [rsi]
    6cd8:	48 ff c6             	inc    rsi
    6cdb:	fe 06                	inc    BYTE PTR [rsi]
    6cdd:	48 ff ce             	dec    rsi
    6ce0:	48 ff ce             	dec    rsi
    6ce3:	48 ff ce             	dec    rsi
    6ce6:	48 ff ce             	dec    rsi
    6ce9:	e9 d3 ff ff ff       	jmp    0x6cc1
    6cee:	fe 06                	inc    BYTE PTR [rsi]
    6cf0:	48 ff c6             	inc    rsi
    6cf3:	48 ff c6             	inc    rsi
    6cf6:	48 ff c6             	inc    rsi
    6cf9:	48 ff c6             	inc    rsi
    6cfc:	48 ff c6             	inc    rsi
    6cff:	48 ff c6             	inc    rsi
    6d02:	48 ff c6             	inc    rsi
    6d05:	48 ff c6             	inc    rsi
    6d08:	48 ff c6             	inc    rsi
    6d0b:	e9 6e ff ff ff       	jmp    0x6c7e
    6d10:	48 ff ce             	dec    rsi
    6d13:	48 ff ce             	dec    rsi
    6d16:	48 ff ce             	dec    rsi
    6d19:	48 ff ce             	dec    rsi
    6d1c:	48 ff ce             	dec    rsi
    6d1f:	48 ff ce             	dec    rsi
    6d22:	48 ff ce             	dec    rsi
    6d25:	48 ff ce             	dec    rsi
    6d28:	8a 06                	mov    al,BYTE PTR [rsi]
    6d2a:	84 c0                	test   al,al
    6d2c:	0f 84 20 00 00 00    	je     0x6d52
    6d32:	48 ff ce             	dec    rsi
    6d35:	48 ff ce             	dec    rsi
    6d38:	48 ff ce             	dec    rsi
    6d3b:	48 ff ce             	dec    rsi
    6d3e:	48 ff ce             	dec    rsi
    6d41:	48 ff ce             	dec    rsi
    6d44:	48 ff ce             	dec    rsi
    6d47:	48 ff ce             	dec    rsi
    6d4a:	48 ff ce             	dec    rsi
    6d4d:	e9 d6 ff ff ff       	jmp    0x6d28
    6d52:	e9 f8 fe ff ff       	jmp    0x6c4f
    6d57:	48 ff c6             	inc    rsi
    6d5a:	48 ff c6             	inc    rsi
    6d5d:	48 ff c6             	inc    rsi
    6d60:	48 ff c6             	inc    rsi
    6d63:	48 ff c6             	inc    rsi
    6d66:	48 ff c6             	inc    rsi
    6d69:	48 ff c6             	inc    rsi
    6d6c:	48 ff c6             	inc    rsi
    6d6f:	48 ff c6             	inc    rsi
    6d72:	8a 06                	mov    al,BYTE PTR [rsi]
    6d74:	84 c0                	test   al,al
    6d76:	0f 84 20 00 00 00    	je     0x6d9c
    6d7c:	48 ff c6             	inc    rsi
    6d7f:	48 ff c6             	inc    rsi
    6d82:	48 ff c6             	inc    rsi
    6d85:	48 ff c6             	inc    rsi
    6d88:	48 ff c6             	inc    rsi
    6d8b:	48 ff c6             	inc    rsi
    6d8e:	48 ff c6             	inc    rsi
    6d91:	48 ff c6             	inc    rsi
    6d94:	48 ff c6             	inc    rsi
    6d97:	e9 d6 ff ff ff       	jmp    0x6d72
    6d9c:	48 ff ce             	dec    rsi
    6d9f:	48 ff ce             	dec    rsi
    6da2:	48 ff ce             	dec    rsi
    6da5:	48 ff ce             	dec    rsi
    6da8:	48 ff ce             	dec    rsi
    6dab:	48 ff ce             	dec    rsi
    6dae:	48 ff ce             	dec    rsi
    6db1:	48 ff ce             	dec    rsi
    6db4:	48 ff ce             	dec    rsi
    6db7:	8a 06                	mov    al,BYTE PTR [rsi]
    6db9:	84 c0                	test   al,al
    6dbb:	0f 84 75 00 00 00    	je     0x6e36
    6dc1:	48 ff c6             	inc    rsi
    6dc4:	48 ff c6             	inc    rsi
    6dc7:	8a 06                	mov    al,BYTE PTR [rsi]
    6dc9:	84 c0                	test   al,al
    6dcb:	0f 84 3f 00 00 00    	je     0x6e10
    6dd1:	fe 0e                	dec    BYTE PTR [rsi]
    6dd3:	48 ff c6             	inc    rsi
    6dd6:	48 ff c6             	inc    rsi
    6dd9:	48 ff c6             	inc    rsi
    6ddc:	48 ff c6             	inc    rsi
    6ddf:	48 ff c6             	inc    rsi
    6de2:	48 ff c6             	inc    rsi
    6de5:	48 ff c6             	inc    rsi
    6de8:	48 ff c6             	inc    rsi
    6deb:	48 ff c6             	inc    rsi
    6dee:	fe 06                	inc    BYTE PTR [rsi]
    6df0:	48 ff ce             	dec    rsi
    6df3:	48 ff ce             	dec    rsi
    6df6:	48 ff ce             	dec    rsi
    6df9:	48 ff ce             	dec    rsi
    6dfc:	48 ff ce             	dec    rsi
    6dff:	48 ff ce             	dec    rsi
    6e02:	48 ff ce             	dec    rsi
    6e05:	48 ff ce             	dec    rsi
    6e08:	48 ff ce             	dec    rsi
    6e0b:	e9 b7 ff ff ff       	jmp    0x6dc7
    6e10:	48 ff ce             	dec    rsi
    6e13:	48 ff ce             	dec    rsi
    6e16:	48 ff ce             	dec    rsi
    6e19:	48 ff ce             	dec    rsi
    6e1c:	48 ff ce             	dec    rsi
    6e1f:	48 ff ce             	dec    rsi
    6e22:	48 ff ce             	dec    rsi
    6e25:	48 ff ce             	dec    rsi
    6e28:	48 ff ce             	dec    rsi
    6e2b:	48 ff ce             	dec    rsi
    6e2e:	48 ff ce             	dec    rsi
    6e31:	e9 81 ff ff ff       	jmp    0x6db7
    6e36:	48 ff c6             	inc    rsi
    6e39:	48 ff c6             	inc    rsi
    6e3c:	8a 06                	mov    al,BYTE PTR [rsi]
    6e3e:	84 c0                	test   al,al
    6e40:	0f 84 3f 00 00 00    	je     0x6e85
    6e46:	fe 0e                	dec    BYTE PTR [rsi]
    6e48:	48 ff c6             	inc    rsi
    6e4b:	48 ff c6             	inc    rsi
    6e4e:	48 ff c6             	inc    rsi
    6e51:	48 ff c6             	inc    rsi
    6e54:	48 ff c6             	inc    rsi
    6e57:	48 ff c6             	inc    rsi
    6e5a:	48 ff c6             	inc    rsi
    6e5d:	48 ff c6             	inc    rsi
    6e60:	48 ff c6             	inc    rsi
    6e63:	fe 06                	inc    BYTE PTR [rsi]
    6e65:	48 ff ce             	dec    rsi
    6e68:	48 ff ce             	dec    rsi
    6e6b:	48 ff ce             	dec    rsi
    6e6e:	48 ff ce             	dec    rsi
    6e71:	48 ff ce             	dec    rsi
    6e74:	48 ff ce             	dec    rsi
    6e77:	48 ff ce             	dec    rsi
    6e7a:	48 ff ce             	dec    rsi
    6e7d:	48 ff ce             	dec    rsi
    6e80:	e9 b7 ff ff ff       	jmp    0x6e3c
    6e85:	48 ff ce             	dec    rsi
    6e88:	48 ff ce             	dec    rsi
    6e8b:	fe 06                	inc    BYTE PTR [rsi]
    6e8d:	48 ff c6             	inc    rsi
    6e90:	48 ff c6             	inc    rsi
    6e93:	48 ff c6             	inc    rsi
    6e96:	48 ff c6             	inc    rsi
    6e99:	48 ff c6             	inc    rsi
    6e9c:	48 ff c6             	inc    rsi
    6e9f:	48 ff c6             	inc    rsi
    6ea2:	48 ff c6             	inc    rsi
    6ea5:	e9 47 fd ff ff       	jmp    0x6bf1
    6eaa:	48 ff ce             	dec    rsi
    6ead:	48 ff ce             	dec    rsi
    6eb0:	48 ff ce             	dec    rsi
    6eb3:	48 ff ce             	dec    rsi
    6eb6:	48 ff ce             	dec    rsi
    6eb9:	48 ff ce             	dec    rsi
    6ebc:	48 ff ce             	dec    rsi
    6ebf:	48 ff ce             	dec    rsi
    6ec2:	48 ff ce             	dec    rsi
    6ec5:	8a 06                	mov    al,BYTE PTR [rsi]
    6ec7:	84 c0                	test   al,al
    6ec9:	0f 84 01 01 00 00    	je     0x6fd0
    6ecf:	48 ff c6             	inc    rsi
    6ed2:	8a 06                	mov    al,BYTE PTR [rsi]
    6ed4:	84 c0                	test   al,al
    6ed6:	0f 84 07 00 00 00    	je     0x6ee3
    6edc:	fe 0e                	dec    BYTE PTR [rsi]
    6ede:	e9 ef ff ff ff       	jmp    0x6ed2
    6ee3:	48 ff ce             	dec    rsi
    6ee6:	fe 0e                	dec    BYTE PTR [rsi]
    6ee8:	48 ff c6             	inc    rsi
    6eeb:	48 ff c6             	inc    rsi
    6eee:	48 ff c6             	inc    rsi
    6ef1:	48 ff c6             	inc    rsi
    6ef4:	8a 06                	mov    al,BYTE PTR [rsi]
    6ef6:	84 c0                	test   al,al
    6ef8:	0f 84 7f 00 00 00    	je     0x6f7d
    6efe:	fe 0e                	dec    BYTE PTR [rsi]
    6f00:	48 ff ce             	dec    rsi
    6f03:	48 ff ce             	dec    rsi
    6f06:	48 ff ce             	dec    rsi
    6f09:	48 ff ce             	dec    rsi
    6f0c:	fe 06                	inc    BYTE PTR [rsi]
    6f0e:	48 ff c6             	inc    rsi
    6f11:	8a 06                	mov    al,BYTE PTR [rsi]
    6f13:	84 c0                	test   al,al
    6f15:	0f 84 35 00 00 00    	je     0x6f50
    6f1b:	48 ff ce             	dec    rsi
    6f1e:	fe 0e                	dec    BYTE PTR [rsi]
    6f20:	48 ff c6             	inc    rsi
    6f23:	fe 0e                	dec    BYTE PTR [rsi]
    6f25:	48 ff ce             	dec    rsi
    6f28:	48 ff ce             	dec    rsi
    6f2b:	48 ff ce             	dec    rsi
    6f2e:	48 ff ce             	dec    rsi
    6f31:	48 ff ce             	dec    rsi
    6f34:	48 ff ce             	dec    rsi
    6f37:	fe 06                	inc    BYTE PTR [rsi]
    6f39:	48 ff c6             	inc    rsi
    6f3c:	48 ff c6             	inc    rsi
    6f3f:	48 ff c6             	inc    rsi
    6f42:	48 ff c6             	inc    rsi
    6f45:	48 ff c6             	inc    rsi
    6f48:	48 ff c6             	inc    rsi
    6f4b:	e9 c1 ff ff ff       	jmp    0x6f11
    6f50:	48 ff ce             	dec    rsi
    6f53:	8a 06                	mov    al,BYTE PTR [rsi]
    6f55:	84 c0                	test   al,al
    6f57:	0f 84 0f 00 00 00    	je     0x6f6c
    6f5d:	fe 0e                	dec    BYTE PTR [rsi]
    6f5f:	48 ff c6             	inc    rsi
    6f62:	fe 06                	inc    BYTE PTR [rsi]
    6f64:	48 ff ce             	dec    rsi
    6f67:	e9 e7 ff ff ff       	jmp    0x6f53
    6f6c:	48 ff c6             	inc    rsi
    6f6f:	48 ff c6             	inc    rsi
    6f72:	48 ff c6             	inc    rsi
    6f75:	48 ff c6             	inc    rsi
    6f78:	e9 77 ff ff ff       	jmp    0x6ef4
    6f7d:	48 ff ce             	dec    rsi
    6f80:	48 ff ce             	dec    rsi
    6f83:	48 ff ce             	dec    rsi
    6f86:	8a 06                	mov    al,BYTE PTR [rsi]
    6f88:	84 c0                	test   al,al
    6f8a:	0f 84 1b 00 00 00    	je     0x6fab
    6f90:	fe 0e                	dec    BYTE PTR [rsi]
    6f92:	48 ff c6             	inc    rsi
    6f95:	48 ff c6             	inc    rsi
    6f98:	48 ff c6             	inc    rsi
    6f9b:	fe 06                	inc    BYTE PTR [rsi]
    6f9d:	48 ff ce             	dec    rsi
    6fa0:	48 ff ce             	dec    rsi
    6fa3:	48 ff ce             	dec    rsi
    6fa6:	e9 db ff ff ff       	jmp    0x6f86
    6fab:	48 ff ce             	dec    rsi
    6fae:	fe 06                	inc    BYTE PTR [rsi]
    6fb0:	48 ff ce             	dec    rsi
    6fb3:	48 ff ce             	dec    rsi
    6fb6:	48 ff ce             	dec    rsi
    6fb9:	48 ff ce             	dec    rsi
    6fbc:	48 ff ce             	dec    rsi
    6fbf:	48 ff ce             	dec    rsi
    6fc2:	48 ff ce             	dec    rsi
    6fc5:	48 ff ce             	dec    rsi
    6fc8:	48 ff ce             	dec    rsi
    6fcb:	e9 f5 fe ff ff       	jmp    0x6ec5
    6fd0:	48 ff c6             	inc    rsi
    6fd3:	48 ff c6             	inc    rsi
    6fd6:	48 ff c6             	inc    rsi
    6fd9:	48 ff c6             	inc    rsi
    6fdc:	48 ff c6             	inc    rsi
    6fdf:	48 ff c6             	inc    rsi
    6fe2:	48 ff c6             	inc    rsi
    6fe5:	48 ff c6             	inc    rsi
    6fe8:	48 ff c6             	inc    rsi
    6feb:	8a 06                	mov    al,BYTE PTR [rsi]
    6fed:	84 c0                	test   al,al
    6fef:	0f 84 0b 01 00 00    	je     0x7100
    6ff5:	48 ff c6             	inc    rsi
    6ff8:	48 ff c6             	inc    rsi
    6ffb:	48 ff c6             	inc    rsi
    6ffe:	48 ff c6             	inc    rsi
    7001:	8a 06                	mov    al,BYTE PTR [rsi]
    7003:	84 c0                	test   al,al
    7005:	0f 84 e1 00 00 00    	je     0x70ec
    700b:	fe 0e                	dec    BYTE PTR [rsi]
    700d:	48 ff ce             	dec    rsi
    7010:	48 ff ce             	dec    rsi
    7013:	48 ff ce             	dec    rsi
    7016:	48 ff ce             	dec    rsi
    7019:	48 ff ce             	dec    rsi
    701c:	48 ff ce             	dec    rsi
    701f:	48 ff ce             	dec    rsi
    7022:	48 ff ce             	dec    rsi
    7025:	48 ff ce             	dec    rsi
    7028:	48 ff ce             	dec    rsi
    702b:	48 ff ce             	dec    rsi
    702e:	48 ff ce             	dec    rsi
    7031:	48 ff ce             	dec    rsi
    7034:	48 ff ce             	dec    rsi
    7037:	48 ff ce             	dec    rsi
    703a:	48 ff ce             	dec    rsi
    703d:	48 ff ce             	dec    rsi
    7040:	48 ff ce             	dec    rsi
    7043:	48 ff ce             	dec    rsi
    7046:	48 ff ce             	dec    rsi
    7049:	48 ff ce             	dec    rsi
    704c:	48 ff ce             	dec    rsi
    704f:	48 ff ce             	dec    rsi
    7052:	48 ff ce             	dec    rsi
    7055:	48 ff ce             	dec    rsi
    7058:	48 ff ce             	dec    rsi
    705b:	48 ff ce             	dec    rsi
    705e:	48 ff ce             	dec    rsi
    7061:	48 ff ce             	dec    rsi
    7064:	48 ff ce             	dec    rsi
    7067:	48 ff ce             	dec    rsi
    706a:	48 ff ce             	dec    rsi
    706d:	48 ff ce             	dec    rsi
    7070:	48 ff ce             	dec    rsi
    7073:	48 ff ce             	dec    rsi
    7076:	48 ff ce             	dec    rsi
    7079:	fe 06                	inc    BYTE PTR [rsi]
    707b:	48 ff c6             	inc    rsi
    707e:	48 ff c6             	inc    rsi
    7081:	48 ff c6             	inc    rsi
    7084:	48 ff c6             	inc    rsi
    7087:	48 ff c6             	inc    rsi
    708a:	48 ff c6             	inc    rsi
    708d:	48 ff c6             	inc    rsi
    7090:	48 ff c6             	inc    rsi
    7093:	48 ff c6             	inc    rsi
    7096:	48 ff c6             	inc    rsi
    7099:	48 ff c6             	inc    rsi
    709c:	48 ff c6             	inc    rsi
    709f:	48 ff c6             	inc    rsi
    70a2:	48 ff c6             	inc    rsi
    70a5:	48 ff c6             	inc    rsi
    70a8:	48 ff c6             	inc    rsi
    70ab:	48 ff c6             	inc    rsi
    70ae:	48 ff c6             	inc    rsi
    70b1:	48 ff c6             	inc    rsi
    70b4:	48 ff c6             	inc    rsi
    70b7:	48 ff c6             	inc    rsi
    70ba:	48 ff c6             	inc    rsi
    70bd:	48 ff c6             	inc    rsi
    70c0:	48 ff c6             	inc    rsi
    70c3:	48 ff c6             	inc    rsi
    70c6:	48 ff c6             	inc    rsi
    70c9:	48 ff c6             	inc    rsi
    70cc:	48 ff c6             	inc    rsi
    70cf:	48 ff c6             	inc    rsi
    70d2:	48 ff c6             	inc    rsi
    70d5:	48 ff c6             	inc    rsi
    70d8:	48 ff c6             	inc    rsi
    70db:	48 ff c6             	inc    rsi
    70de:	48 ff c6             	inc    rsi
    70e1:	48 ff c6             	inc    rsi
    70e4:	48 ff c6             	inc    rsi
    70e7:	e9 15 ff ff ff       	jmp    0x7001
    70ec:	48 ff c6             	inc    rsi
    70ef:	48 ff c6             	inc    rsi
    70f2:	48 ff c6             	inc    rsi
    70f5:	48 ff c6             	inc    rsi
    70f8:	48 ff c6             	inc    rsi
    70fb:	e9 eb fe ff ff       	jmp    0x6feb
    7100:	48 ff ce             	dec    rsi
    7103:	48 ff ce             	dec    rsi
    7106:	48 ff ce             	dec    rsi
    7109:	48 ff ce             	dec    rsi
    710c:	48 ff ce             	dec    rsi
    710f:	48 ff ce             	dec    rsi
    7112:	48 ff ce             	dec    rsi
    7115:	48 ff ce             	dec    rsi
    7118:	48 ff ce             	dec    rsi
    711b:	8a 06                	mov    al,BYTE PTR [rsi]
    711d:	84 c0                	test   al,al
    711f:	0f 84 20 00 00 00    	je     0x7145
    7125:	48 ff ce             	dec    rsi
    7128:	48 ff ce             	dec    rsi
    712b:	48 ff ce             	dec    rsi
    712e:	48 ff ce             	dec    rsi
    7131:	48 ff ce             	dec    rsi
    7134:	48 ff ce             	dec    rsi
    7137:	48 ff ce             	dec    rsi
    713a:	48 ff ce             	dec    rsi
    713d:	48 ff ce             	dec    rsi
    7140:	e9 d6 ff ff ff       	jmp    0x711b
    7145:	48 ff c6             	inc    rsi
    7148:	48 ff c6             	inc    rsi
    714b:	48 ff c6             	inc    rsi
    714e:	48 ff c6             	inc    rsi
    7151:	48 ff c6             	inc    rsi
    7154:	48 ff c6             	inc    rsi
    7157:	48 ff c6             	inc    rsi
    715a:	48 ff c6             	inc    rsi
    715d:	48 ff c6             	inc    rsi
    7160:	fe 06                	inc    BYTE PTR [rsi]
    7162:	fe 06                	inc    BYTE PTR [rsi]
    7164:	fe 06                	inc    BYTE PTR [rsi]
    7166:	fe 06                	inc    BYTE PTR [rsi]
    7168:	fe 06                	inc    BYTE PTR [rsi]
    716a:	fe 06                	inc    BYTE PTR [rsi]
    716c:	fe 06                	inc    BYTE PTR [rsi]
    716e:	fe 06                	inc    BYTE PTR [rsi]
    7170:	fe 06                	inc    BYTE PTR [rsi]
    7172:	fe 06                	inc    BYTE PTR [rsi]
    7174:	fe 06                	inc    BYTE PTR [rsi]
    7176:	fe 06                	inc    BYTE PTR [rsi]
    7178:	fe 06                	inc    BYTE PTR [rsi]
    717a:	fe 06                	inc    BYTE PTR [rsi]
    717c:	fe 06                	inc    BYTE PTR [rsi]
    717e:	8a 06                	mov    al,BYTE PTR [rsi]
    7180:	84 c0                	test   al,al
    7182:	0f 84 ae 00 00 00    	je     0x7236
    7188:	8a 06                	mov    al,BYTE PTR [rsi]
    718a:	84 c0                	test   al,al
    718c:	0f 84 20 00 00 00    	je     0x71b2
    7192:	48 ff c6             	inc    rsi
    7195:	48 ff c6             	inc    rsi
    7198:	48 ff c6             	inc    rsi
    719b:	48 ff c6             	inc    rsi
    719e:	48 ff c6             	inc    rsi
    71a1:	48 ff c6             	inc    rsi
    71a4:	48 ff c6             	inc    rsi
    71a7:	48 ff c6             	inc    rsi
    71aa:	48 ff c6             	inc    rsi
    71ad:	e9 d6 ff ff ff       	jmp    0x7188
    71b2:	48 ff ce             	dec    rsi
    71b5:	48 ff ce             	dec    rsi
    71b8:	48 ff ce             	dec    rsi
    71bb:	48 ff ce             	dec    rsi
    71be:	48 ff ce             	dec    rsi
    71c1:	48 ff ce             	dec    rsi
    71c4:	48 ff ce             	dec    rsi
    71c7:	48 ff ce             	dec    rsi
    71ca:	48 ff ce             	dec    rsi
    71cd:	fe 0e                	dec    BYTE PTR [rsi]
    71cf:	48 ff ce             	dec    rsi
    71d2:	48 ff ce             	dec    rsi
    71d5:	48 ff ce             	dec    rsi
    71d8:	48 ff ce             	dec    rsi
    71db:	48 ff ce             	dec    rsi
    71de:	48 ff ce             	dec    rsi
    71e1:	48 ff ce             	dec    rsi
    71e4:	48 ff ce             	dec    rsi
    71e7:	48 ff ce             	dec    rsi
    71ea:	8a 06                	mov    al,BYTE PTR [rsi]
    71ec:	84 c0                	test   al,al
    71ee:	0f 84 20 00 00 00    	je     0x7214
    71f4:	48 ff ce             	dec    rsi
    71f7:	48 ff ce             	dec    rsi
    71fa:	48 ff ce             	dec    rsi
    71fd:	48 ff ce             	dec    rsi
    7200:	48 ff ce             	dec    rsi
    7203:	48 ff ce             	dec    rsi
    7206:	48 ff ce             	dec    rsi
    7209:	48 ff ce             	dec    rsi
    720c:	48 ff ce             	dec    rsi
    720f:	e9 d6 ff ff ff       	jmp    0x71ea
    7214:	48 ff c6             	inc    rsi
    7217:	48 ff c6             	inc    rsi
    721a:	48 ff c6             	inc    rsi
    721d:	48 ff c6             	inc    rsi
    7220:	48 ff c6             	inc    rsi
    7223:	48 ff c6             	inc    rsi
    7226:	48 ff c6             	inc    rsi
    7229:	48 ff c6             	inc    rsi
    722c:	48 ff c6             	inc    rsi
    722f:	fe 0e                	dec    BYTE PTR [rsi]
    7231:	e9 48 ff ff ff       	jmp    0x717e
    7236:	fe 06                	inc    BYTE PTR [rsi]
    7238:	48 ff c6             	inc    rsi
    723b:	48 ff c6             	inc    rsi
    723e:	48 ff c6             	inc    rsi
    7241:	48 ff c6             	inc    rsi
    7244:	48 ff c6             	inc    rsi
    7247:	48 ff c6             	inc    rsi
    724a:	48 ff c6             	inc    rsi
    724d:	48 ff c6             	inc    rsi
    7250:	48 ff c6             	inc    rsi
    7253:	48 ff c6             	inc    rsi
    7256:	48 ff c6             	inc    rsi
    7259:	48 ff c6             	inc    rsi
    725c:	48 ff c6             	inc    rsi
    725f:	48 ff c6             	inc    rsi
    7262:	48 ff c6             	inc    rsi
    7265:	48 ff c6             	inc    rsi
    7268:	48 ff c6             	inc    rsi
    726b:	48 ff c6             	inc    rsi
    726e:	48 ff c6             	inc    rsi
    7271:	48 ff c6             	inc    rsi
    7274:	48 ff c6             	inc    rsi
    7277:	fe 06                	inc    BYTE PTR [rsi]
    7279:	48 ff ce             	dec    rsi
    727c:	48 ff ce             	dec    rsi
    727f:	48 ff ce             	dec    rsi
    7282:	8a 06                	mov    al,BYTE PTR [rsi]
    7284:	84 c0                	test   al,al
    7286:	0f 84 20 00 00 00    	je     0x72ac
    728c:	48 ff ce             	dec    rsi
    728f:	48 ff ce             	dec    rsi
    7292:	48 ff ce             	dec    rsi
    7295:	48 ff ce             	dec    rsi
    7298:	48 ff ce             	dec    rsi
    729b:	48 ff ce             	dec    rsi
    729e:	48 ff ce             	dec    rsi
    72a1:	48 ff ce             	dec    rsi
    72a4:	48 ff ce             	dec    rsi
    72a7:	e9 d6 ff ff ff       	jmp    0x7282
    72ac:	48 ff c6             	inc    rsi
    72af:	48 ff c6             	inc    rsi
    72b2:	48 ff c6             	inc    rsi
    72b5:	48 ff c6             	inc    rsi
    72b8:	48 ff c6             	inc    rsi
    72bb:	48 ff c6             	inc    rsi
    72be:	48 ff c6             	inc    rsi
    72c1:	48 ff c6             	inc    rsi
    72c4:	48 ff c6             	inc    rsi
    72c7:	8a 06                	mov    al,BYTE PTR [rsi]
    72c9:	84 c0                	test   al,al
    72cb:	0f 84 49 03 00 00    	je     0x761a
    72d1:	48 ff c6             	inc    rsi
    72d4:	48 ff c6             	inc    rsi
    72d7:	48 ff c6             	inc    rsi
    72da:	8a 06                	mov    al,BYTE PTR [rsi]
    72dc:	84 c0                	test   al,al
    72de:	0f 84 1b 00 00 00    	je     0x72ff
    72e4:	fe 0e                	dec    BYTE PTR [rsi]
    72e6:	48 ff ce             	dec    rsi
    72e9:	48 ff ce             	dec    rsi
    72ec:	48 ff ce             	dec    rsi
    72ef:	fe 0e                	dec    BYTE PTR [rsi]
    72f1:	48 ff c6             	inc    rsi
    72f4:	48 ff c6             	inc    rsi
    72f7:	48 ff c6             	inc    rsi
    72fa:	e9 db ff ff ff       	jmp    0x72da
    72ff:	fe 06                	inc    BYTE PTR [rsi]
    7301:	48 ff ce             	dec    rsi
    7304:	48 ff ce             	dec    rsi
    7307:	48 ff ce             	dec    rsi
    730a:	8a 06                	mov    al,BYTE PTR [rsi]
    730c:	84 c0                	test   al,al
    730e:	0f 84 1c 01 00 00    	je     0x7430
    7314:	fe 0e                	dec    BYTE PTR [rsi]
    7316:	48 ff c6             	inc    rsi
    7319:	48 ff c6             	inc    rsi
    731c:	48 ff c6             	inc    rsi
    731f:	fe 0e                	dec    BYTE PTR [rsi]
    7321:	48 ff c6             	inc    rsi
    7324:	8a 06                	mov    al,BYTE PTR [rsi]
    7326:	84 c0                	test   al,al
    7328:	0f 84 21 00 00 00    	je     0x734f
    732e:	fe 0e                	dec    BYTE PTR [rsi]
    7330:	48 ff ce             	dec    rsi
    7333:	48 ff ce             	dec    rsi
    7336:	48 ff ce             	dec    rsi
    7339:	48 ff ce             	dec    rsi
    733c:	fe 06                	inc    BYTE PTR [rsi]
    733e:	48 ff c6             	inc    rsi
    7341:	48 ff c6             	inc    rsi
    7344:	48 ff c6             	inc    rsi
    7347:	48 ff c6             	inc    rsi
    734a:	e9 d5 ff ff ff       	jmp    0x7324
    734f:	48 ff ce             	dec    rsi
    7352:	48 ff ce             	dec    rsi
    7355:	48 ff ce             	dec    rsi
    7358:	48 ff ce             	dec    rsi
    735b:	8a 06                	mov    al,BYTE PTR [rsi]
    735d:	84 c0                	test   al,al
    735f:	0f 84 c6 00 00 00    	je     0x742b
    7365:	fe 0e                	dec    BYTE PTR [rsi]
    7367:	48 ff c6             	inc    rsi
    736a:	48 ff c6             	inc    rsi
    736d:	48 ff c6             	inc    rsi
    7370:	48 ff c6             	inc    rsi
    7373:	fe 06                	inc    BYTE PTR [rsi]
    7375:	48 ff ce             	dec    rsi
    7378:	48 ff ce             	dec    rsi
    737b:	48 ff ce             	dec    rsi
    737e:	48 ff ce             	dec    rsi
    7381:	48 ff ce             	dec    rsi
    7384:	48 ff ce             	dec    rsi
    7387:	48 ff ce             	dec    rsi
    738a:	48 ff ce             	dec    rsi
    738d:	48 ff ce             	dec    rsi
    7390:	48 ff ce             	dec    rsi
    7393:	48 ff ce             	dec    rsi
    7396:	48 ff ce             	dec    rsi
    7399:	48 ff ce             	dec    rsi
    739c:	8a 06                	mov    al,BYTE PTR [rsi]
    739e:	84 c0                	test   al,al
    73a0:	0f 84 20 00 00 00    	je     0x73c6
    73a6:	48 ff ce             	dec    rsi
    73a9:	48 ff ce             	dec    rsi
    73ac:	48 ff ce             	dec    rsi
    73af:	48 ff ce             	dec    rsi
    73b2:	48 ff ce             	dec    rsi
    73b5:	48 ff ce             	dec    rsi
    73b8:	48 ff ce             	dec    rsi
    73bb:	48 ff ce             	dec    rsi
    73be:	48 ff ce             	dec    rsi
    73c1:	e9 d6 ff ff ff       	jmp    0x739c
    73c6:	48 ff c6             	inc    rsi
    73c9:	48 ff c6             	inc    rsi
    73cc:	48 ff c6             	inc    rsi
    73cf:	48 ff c6             	inc    rsi
    73d2:	8a 06                	mov    al,BYTE PTR [rsi]
    73d4:	84 c0                	test   al,al
    73d6:	0f 84 07 00 00 00    	je     0x73e3
    73dc:	fe 0e                	dec    BYTE PTR [rsi]
    73de:	e9 ef ff ff ff       	jmp    0x73d2
    73e3:	fe 06                	inc    BYTE PTR [rsi]
    73e5:	48 ff c6             	inc    rsi
    73e8:	48 ff c6             	inc    rsi
    73eb:	48 ff c6             	inc    rsi
    73ee:	48 ff c6             	inc    rsi
    73f1:	48 ff c6             	inc    rsi
    73f4:	8a 06                	mov    al,BYTE PTR [rsi]
    73f6:	84 c0                	test   al,al
    73f8:	0f 84 20 00 00 00    	je     0x741e
    73fe:	48 ff c6             	inc    rsi
    7401:	48 ff c6             	inc    rsi
    7404:	48 ff c6             	inc    rsi
    7407:	48 ff c6             	inc    rsi
    740a:	48 ff c6             	inc    rsi
    740d:	48 ff c6             	inc    rsi
    7410:	48 ff c6             	inc    rsi
    7413:	48 ff c6             	inc    rsi
    7416:	48 ff c6             	inc    rsi
    7419:	e9 d6 ff ff ff       	jmp    0x73f4
    741e:	48 ff c6             	inc    rsi
    7421:	fe 06                	inc    BYTE PTR [rsi]
    7423:	48 ff ce             	dec    rsi
    7426:	e9 30 ff ff ff       	jmp    0x735b
    742b:	e9 da fe ff ff       	jmp    0x730a
    7430:	fe 06                	inc    BYTE PTR [rsi]
    7432:	48 ff c6             	inc    rsi
    7435:	48 ff c6             	inc    rsi
    7438:	48 ff c6             	inc    rsi
    743b:	48 ff c6             	inc    rsi
    743e:	8a 06                	mov    al,BYTE PTR [rsi]
    7440:	84 c0                	test   al,al
    7442:	0f 84 21 00 00 00    	je     0x7469
    7448:	fe 0e                	dec    BYTE PTR [rsi]
    744a:	48 ff ce             	dec    rsi
    744d:	48 ff ce             	dec    rsi
    7450:	48 ff ce             	dec    rsi
    7453:	48 ff ce             	dec    rsi
    7456:	fe 0e                	dec    BYTE PTR [rsi]
    7458:	48 ff c6             	inc    rsi
    745b:	48 ff c6             	inc    rsi
    745e:	48 ff c6             	inc    rsi
    7461:	48 ff c6             	inc    rsi
    7464:	e9 d5 ff ff ff       	jmp    0x743e
    7469:	fe 06                	inc    BYTE PTR [rsi]
    746b:	48 ff ce             	dec    rsi
    746e:	48 ff ce             	dec    rsi
    7471:	48 ff ce             	dec    rsi
    7474:	48 ff ce             	dec    rsi
    7477:	8a 06                	mov    al,BYTE PTR [rsi]
    7479:	84 c0                	test   al,al
    747b:	0f 84 21 01 00 00    	je     0x75a2
    7481:	fe 0e                	dec    BYTE PTR [rsi]
    7483:	48 ff c6             	inc    rsi
    7486:	48 ff c6             	inc    rsi
    7489:	48 ff c6             	inc    rsi
    748c:	48 ff c6             	inc    rsi
    748f:	fe 0e                	dec    BYTE PTR [rsi]
    7491:	48 ff ce             	dec    rsi
    7494:	8a 06                	mov    al,BYTE PTR [rsi]
    7496:	84 c0                	test   al,al
    7498:	0f 84 1b 00 00 00    	je     0x74b9
    749e:	fe 0e                	dec    BYTE PTR [rsi]
    74a0:	48 ff ce             	dec    rsi
    74a3:	48 ff ce             	dec    rsi
    74a6:	48 ff ce             	dec    rsi
    74a9:	fe 06                	inc    BYTE PTR [rsi]
    74ab:	48 ff c6             	inc    rsi
    74ae:	48 ff c6             	inc    rsi
    74b1:	48 ff c6             	inc    rsi
    74b4:	e9 db ff ff ff       	jmp    0x7494
    74b9:	48 ff ce             	dec    rsi
    74bc:	48 ff ce             	dec    rsi
    74bf:	48 ff ce             	dec    rsi
    74c2:	8a 06                	mov    al,BYTE PTR [rsi]
    74c4:	84 c0                	test   al,al
    74c6:	0f 84 d1 00 00 00    	je     0x759d
    74cc:	fe 0e                	dec    BYTE PTR [rsi]
    74ce:	48 ff c6             	inc    rsi
    74d1:	48 ff c6             	inc    rsi
    74d4:	48 ff c6             	inc    rsi
    74d7:	fe 06                	inc    BYTE PTR [rsi]
    74d9:	48 ff ce             	dec    rsi
    74dc:	48 ff ce             	dec    rsi
    74df:	48 ff ce             	dec    rsi
    74e2:	48 ff ce             	dec    rsi
    74e5:	48 ff ce             	dec    rsi
    74e8:	48 ff ce             	dec    rsi
    74eb:	48 ff ce             	dec    rsi
    74ee:	48 ff ce             	dec    rsi
    74f1:	48 ff ce             	dec    rsi
    74f4:	48 ff ce             	dec    rsi
    74f7:	48 ff ce             	dec    rsi
    74fa:	48 ff ce             	dec    rsi
    74fd:	8a 06                	mov    al,BYTE PTR [rsi]
    74ff:	84 c0                	test   al,al
    7501:	0f 84 20 00 00 00    	je     0x7527
    7507:	48 ff ce             	dec    rsi
    750a:	48 ff ce             	dec    rsi
    750d:	48 ff ce             	dec    rsi
    7510:	48 ff ce             	dec    rsi
    7513:	48 ff ce             	dec    rsi
    7516:	48 ff ce             	dec    rsi
    7519:	48 ff ce             	dec    rsi
    751c:	48 ff ce             	dec    rsi
    751f:	48 ff ce             	dec    rsi
    7522:	e9 d6 ff ff ff       	jmp    0x74fd
    7527:	48 ff c6             	inc    rsi
    752a:	48 ff c6             	inc    rsi
    752d:	48 ff c6             	inc    rsi
    7530:	8a 06                	mov    al,BYTE PTR [rsi]
    7532:	84 c0                	test   al,al
    7534:	0f 84 07 00 00 00    	je     0x7541
    753a:	fe 0e                	dec    BYTE PTR [rsi]
    753c:	e9 ef ff ff ff       	jmp    0x7530
    7541:	fe 06                	inc    BYTE PTR [rsi]
    7543:	48 ff c6             	inc    rsi
    7546:	48 ff c6             	inc    rsi
    7549:	48 ff c6             	inc    rsi
    754c:	48 ff c6             	inc    rsi
    754f:	48 ff c6             	inc    rsi
    7552:	48 ff c6             	inc    rsi
    7555:	8a 06                	mov    al,BYTE PTR [rsi]
    7557:	84 c0                	test   al,al
    7559:	0f 84 20 00 00 00    	je     0x757f
    755f:	48 ff c6             	inc    rsi
    7562:	48 ff c6             	inc    rsi
    7565:	48 ff c6             	inc    rsi
    7568:	48 ff c6             	inc    rsi
    756b:	48 ff c6             	inc    rsi
    756e:	48 ff c6             	inc    rsi
    7571:	48 ff c6             	inc    rsi
    7574:	48 ff c6             	inc    rsi
    7577:	48 ff c6             	inc    rsi
    757a:	e9 d6 ff ff ff       	jmp    0x7555
    757f:	48 ff c6             	inc    rsi
    7582:	8a 06                	mov    al,BYTE PTR [rsi]
    7584:	84 c0                	test   al,al
    7586:	0f 84 07 00 00 00    	je     0x7593
    758c:	fe 0e                	dec    BYTE PTR [rsi]
    758e:	e9 ef ff ff ff       	jmp    0x7582
    7593:	fe 06                	inc    BYTE PTR [rsi]
    7595:	48 ff ce             	dec    rsi
    7598:	e9 25 ff ff ff       	jmp    0x74c2
    759d:	e9 d5 fe ff ff       	jmp    0x7477
    75a2:	fe 06                	inc    BYTE PTR [rsi]
    75a4:	48 ff c6             	inc    rsi
    75a7:	8a 06                	mov    al,BYTE PTR [rsi]
    75a9:	84 c0                	test   al,al
    75ab:	0f 84 4c 00 00 00    	je     0x75fd
    75b1:	fe 0e                	dec    BYTE PTR [rsi]
    75b3:	48 ff ce             	dec    rsi
    75b6:	8a 06                	mov    al,BYTE PTR [rsi]
    75b8:	84 c0                	test   al,al
    75ba:	0f 84 20 00 00 00    	je     0x75e0
    75c0:	48 ff c6             	inc    rsi
    75c3:	48 ff c6             	inc    rsi
    75c6:	48 ff c6             	inc    rsi
    75c9:	48 ff c6             	inc    rsi
    75cc:	48 ff c6             	inc    rsi
    75cf:	48 ff c6             	inc    rsi
    75d2:	48 ff c6             	inc    rsi
    75d5:	48 ff c6             	inc    rsi
    75d8:	48 ff c6             	inc    rsi
    75db:	e9 d6 ff ff ff       	jmp    0x75b6
    75e0:	48 ff ce             	dec    rsi
    75e3:	48 ff ce             	dec    rsi
    75e6:	48 ff ce             	dec    rsi
    75e9:	48 ff ce             	dec    rsi
    75ec:	48 ff ce             	dec    rsi
    75ef:	48 ff ce             	dec    rsi
    75f2:	48 ff ce             	dec    rsi
    75f5:	48 ff ce             	dec    rsi
    75f8:	e9 aa ff ff ff       	jmp    0x75a7
    75fd:	48 ff c6             	inc    rsi
    7600:	48 ff c6             	inc    rsi
    7603:	48 ff c6             	inc    rsi
    7606:	48 ff c6             	inc    rsi
    7609:	48 ff c6             	inc    rsi
    760c:	48 ff c6             	inc    rsi
    760f:	48 ff c6             	inc    rsi
    7612:	48 ff c6             	inc    rsi
    7615:	e9 ad fc ff ff       	jmp    0x72c7
    761a:	48 ff ce             	dec    rsi
    761d:	48 ff ce             	dec    rsi
    7620:	48 ff ce             	dec    rsi
    7623:	48 ff ce             	dec    rsi
    7626:	48 ff ce             	dec    rsi
    7629:	48 ff ce             	dec    rsi
    762c:	48 ff ce             	dec    rsi
    762f:	48 ff ce             	dec    rsi
    7632:	48 ff ce             	dec    rsi
    7635:	8a 06                	mov    al,BYTE PTR [rsi]
    7637:	84 c0                	test   al,al
    7639:	0f 84 20 00 00 00    	je     0x765f
    763f:	48 ff ce             	dec    rsi
    7642:	48 ff ce             	dec    rsi
    7645:	48 ff ce             	dec    rsi
    7648:	48 ff ce             	dec    rsi
    764b:	48 ff ce             	dec    rsi
    764e:	48 ff ce             	dec    rsi
    7651:	48 ff ce             	dec    rsi
    7654:	48 ff ce             	dec    rsi
    7657:	48 ff ce             	dec    rsi
    765a:	e9 d6 ff ff ff       	jmp    0x7635
    765f:	48 ff c6             	inc    rsi
    7662:	48 ff c6             	inc    rsi
    7665:	fe 0e                	dec    BYTE PTR [rsi]
    7667:	48 ff c6             	inc    rsi
    766a:	48 ff c6             	inc    rsi
    766d:	8a 06                	mov    al,BYTE PTR [rsi]
    766f:	84 c0                	test   al,al
    7671:	0f 84 21 00 00 00    	je     0x7698
    7677:	fe 0e                	dec    BYTE PTR [rsi]
    7679:	48 ff ce             	dec    rsi
    767c:	48 ff ce             	dec    rsi
    767f:	48 ff ce             	dec    rsi
    7682:	48 ff ce             	dec    rsi
    7685:	fe 06                	inc    BYTE PTR [rsi]
    7687:	48 ff c6             	inc    rsi
    768a:	48 ff c6             	inc    rsi
    768d:	48 ff c6             	inc    rsi
    7690:	48 ff c6             	inc    rsi
    7693:	e9 d5 ff ff ff       	jmp    0x766d
    7698:	48 ff ce             	dec    rsi
    769b:	48 ff ce             	dec    rsi
    769e:	48 ff ce             	dec    rsi
    76a1:	48 ff ce             	dec    rsi
    76a4:	8a 06                	mov    al,BYTE PTR [rsi]
    76a6:	84 c0                	test   al,al
    76a8:	0f 84 32 00 00 00    	je     0x76e0
    76ae:	fe 0e                	dec    BYTE PTR [rsi]
    76b0:	48 ff c6             	inc    rsi
    76b3:	48 ff c6             	inc    rsi
    76b6:	48 ff c6             	inc    rsi
    76b9:	48 ff c6             	inc    rsi
    76bc:	fe 06                	inc    BYTE PTR [rsi]
    76be:	48 ff ce             	dec    rsi
    76c1:	48 ff ce             	dec    rsi
    76c4:	8a 06                	mov    al,BYTE PTR [rsi]
    76c6:	84 c0                	test   al,al
    76c8:	0f 84 07 00 00 00    	je     0x76d5
    76ce:	fe 0e                	dec    BYTE PTR [rsi]
    76d0:	e9 ef ff ff ff       	jmp    0x76c4
    76d5:	48 ff ce             	dec    rsi
    76d8:	48 ff ce             	dec    rsi
    76db:	e9 c4 ff ff ff       	jmp    0x76a4
    76e0:	48 ff c6             	inc    rsi
    76e3:	48 ff c6             	inc    rsi
    76e6:	e9 0f a4 ff ff       	jmp    0x1afa
    76eb:	48 ff ce             	dec    rsi
    76ee:	48 ff ce             	dec    rsi
    76f1:	fe 06                	inc    BYTE PTR [rsi]
    76f3:	48 ff c6             	inc    rsi
    76f6:	48 ff c6             	inc    rsi
    76f9:	48 ff c6             	inc    rsi
    76fc:	48 ff c6             	inc    rsi
    76ff:	8a 06                	mov    al,BYTE PTR [rsi]
    7701:	84 c0                	test   al,al
    7703:	0f 84 21 00 00 00    	je     0x772a
    7709:	fe 0e                	dec    BYTE PTR [rsi]
    770b:	48 ff ce             	dec    rsi
    770e:	48 ff ce             	dec    rsi
    7711:	48 ff ce             	dec    rsi
    7714:	48 ff ce             	dec    rsi
    7717:	fe 0e                	dec    BYTE PTR [rsi]
    7719:	48 ff c6             	inc    rsi
    771c:	48 ff c6             	inc    rsi
    771f:	48 ff c6             	inc    rsi
    7722:	48 ff c6             	inc    rsi
    7725:	e9 d5 ff ff ff       	jmp    0x76ff
    772a:	fe 06                	inc    BYTE PTR [rsi]
    772c:	48 ff ce             	dec    rsi
    772f:	48 ff ce             	dec    rsi
    7732:	48 ff ce             	dec    rsi
    7735:	48 ff ce             	dec    rsi
    7738:	8a 06                	mov    al,BYTE PTR [rsi]
    773a:	84 c0                	test   al,al
    773c:	0f 84 33 00 00 00    	je     0x7775
    7742:	fe 0e                	dec    BYTE PTR [rsi]
    7744:	48 ff c6             	inc    rsi
    7747:	48 ff c6             	inc    rsi
    774a:	48 ff c6             	inc    rsi
    774d:	48 ff c6             	inc    rsi
    7750:	fe 0e                	dec    BYTE PTR [rsi]
    7752:	48 ff ce             	dec    rsi
    7755:	48 ff ce             	dec    rsi
    7758:	48 ff ce             	dec    rsi
    775b:	48 ff ce             	dec    rsi
    775e:	48 ff ce             	dec    rsi
    7761:	48 ff ce             	dec    rsi
    7764:	48 8b 0e             	mov    rcx,QWORD PTR [rsi]
    7767:	41 ff d4             	call   r12
    776a:	48 ff c6             	inc    rsi
    776d:	48 ff c6             	inc    rsi
    7770:	e9 c3 ff ff ff       	jmp    0x7738
    7775:	48 ff c6             	inc    rsi
    7778:	48 ff c6             	inc    rsi
    777b:	48 ff c6             	inc    rsi
    777e:	48 ff c6             	inc    rsi
    7781:	8a 06                	mov    al,BYTE PTR [rsi]
    7783:	84 c0                	test   al,al
    7785:	0f 84 37 00 00 00    	je     0x77c2
    778b:	fe 0e                	dec    BYTE PTR [rsi]
    778d:	48 ff ce             	dec    rsi
    7790:	48 ff ce             	dec    rsi
    7793:	48 ff ce             	dec    rsi
    7796:	48 ff ce             	dec    rsi
    7799:	48 ff ce             	dec    rsi
    779c:	48 ff ce             	dec    rsi
    779f:	48 ff ce             	dec    rsi
    77a2:	48 8b 0e             	mov    rcx,QWORD PTR [rsi]
    77a5:	41 ff d4             	call   r12
    77a8:	48 ff c6             	inc    rsi
    77ab:	48 ff c6             	inc    rsi
    77ae:	48 ff c6             	inc    rsi
    77b1:	48 ff c6             	inc    rsi
    77b4:	48 ff c6             	inc    rsi
    77b7:	48 ff c6             	inc    rsi
    77ba:	48 ff c6             	inc    rsi
    77bd:	e9 bf ff ff ff       	jmp    0x7781
    77c2:	48 ff ce             	dec    rsi
    77c5:	48 ff ce             	dec    rsi
    77c8:	48 ff ce             	dec    rsi
    77cb:	8a 06                	mov    al,BYTE PTR [rsi]
    77cd:	84 c0                	test   al,al
    77cf:	0f 84 07 00 00 00    	je     0x77dc
    77d5:	fe 0e                	dec    BYTE PTR [rsi]
    77d7:	e9 ef ff ff ff       	jmp    0x77cb
    77dc:	48 ff c6             	inc    rsi
    77df:	8a 06                	mov    al,BYTE PTR [rsi]
    77e1:	84 c0                	test   al,al
    77e3:	0f 84 07 00 00 00    	je     0x77f0
    77e9:	fe 0e                	dec    BYTE PTR [rsi]
    77eb:	e9 ef ff ff ff       	jmp    0x77df
    77f0:	48 ff c6             	inc    rsi
    77f3:	8a 06                	mov    al,BYTE PTR [rsi]
    77f5:	84 c0                	test   al,al
    77f7:	0f 84 07 00 00 00    	je     0x7804
    77fd:	fe 0e                	dec    BYTE PTR [rsi]
    77ff:	e9 ef ff ff ff       	jmp    0x77f3
    7804:	48 ff c6             	inc    rsi
    7807:	8a 06                	mov    al,BYTE PTR [rsi]
    7809:	84 c0                	test   al,al
    780b:	0f 84 07 00 00 00    	je     0x7818
    7811:	fe 0e                	dec    BYTE PTR [rsi]
    7813:	e9 ef ff ff ff       	jmp    0x7807
    7818:	48 ff c6             	inc    rsi
    781b:	8a 06                	mov    al,BYTE PTR [rsi]
    781d:	84 c0                	test   al,al
    781f:	0f 84 07 00 00 00    	je     0x782c
    7825:	fe 0e                	dec    BYTE PTR [rsi]
    7827:	e9 ef ff ff ff       	jmp    0x781b
    782c:	48 ff c6             	inc    rsi
    782f:	8a 06                	mov    al,BYTE PTR [rsi]
    7831:	84 c0                	test   al,al
    7833:	0f 84 07 00 00 00    	je     0x7840
    7839:	fe 0e                	dec    BYTE PTR [rsi]
    783b:	e9 ef ff ff ff       	jmp    0x782f
    7840:	48 ff c6             	inc    rsi
    7843:	48 ff c6             	inc    rsi
    7846:	48 ff c6             	inc    rsi
    7849:	8a 06                	mov    al,BYTE PTR [rsi]
    784b:	84 c0                	test   al,al
    784d:	0f 84 86 00 00 00    	je     0x78d9
    7853:	48 ff c6             	inc    rsi
    7856:	8a 06                	mov    al,BYTE PTR [rsi]
    7858:	84 c0                	test   al,al
    785a:	0f 84 07 00 00 00    	je     0x7867
    7860:	fe 0e                	dec    BYTE PTR [rsi]
    7862:	e9 ef ff ff ff       	jmp    0x7856
    7867:	48 ff c6             	inc    rsi
    786a:	8a 06                	mov    al,BYTE PTR [rsi]
    786c:	84 c0                	test   al,al
    786e:	0f 84 07 00 00 00    	je     0x787b
    7874:	fe 0e                	dec    BYTE PTR [rsi]
    7876:	e9 ef ff ff ff       	jmp    0x786a
    787b:	48 ff c6             	inc    rsi
    787e:	8a 06                	mov    al,BYTE PTR [rsi]
    7880:	84 c0                	test   al,al
    7882:	0f 84 07 00 00 00    	je     0x788f
    7888:	fe 0e                	dec    BYTE PTR [rsi]
    788a:	e9 ef ff ff ff       	jmp    0x787e
    788f:	48 ff c6             	inc    rsi
    7892:	8a 06                	mov    al,BYTE PTR [rsi]
    7894:	84 c0                	test   al,al
    7896:	0f 84 07 00 00 00    	je     0x78a3
    789c:	fe 0e                	dec    BYTE PTR [rsi]
    789e:	e9 ef ff ff ff       	jmp    0x7892
    78a3:	48 ff c6             	inc    rsi
    78a6:	8a 06                	mov    al,BYTE PTR [rsi]
    78a8:	84 c0                	test   al,al
    78aa:	0f 84 07 00 00 00    	je     0x78b7
    78b0:	fe 0e                	dec    BYTE PTR [rsi]
    78b2:	e9 ef ff ff ff       	jmp    0x78a6
    78b7:	48 ff c6             	inc    rsi
    78ba:	8a 06                	mov    al,BYTE PTR [rsi]
    78bc:	84 c0                	test   al,al
    78be:	0f 84 07 00 00 00    	je     0x78cb
    78c4:	fe 0e                	dec    BYTE PTR [rsi]
    78c6:	e9 ef ff ff ff       	jmp    0x78ba
    78cb:	48 ff c6             	inc    rsi
    78ce:	48 ff c6             	inc    rsi
    78d1:	48 ff c6             	inc    rsi
    78d4:	e9 70 ff ff ff       	jmp    0x7849
    78d9:	48 ff ce             	dec    rsi
    78dc:	48 ff ce             	dec    rsi
    78df:	48 ff ce             	dec    rsi
    78e2:	48 ff ce             	dec    rsi
    78e5:	48 ff ce             	dec    rsi
    78e8:	48 ff ce             	dec    rsi
    78eb:	48 ff ce             	dec    rsi
    78ee:	48 ff ce             	dec    rsi
    78f1:	48 ff ce             	dec    rsi
    78f4:	8a 06                	mov    al,BYTE PTR [rsi]
    78f6:	84 c0                	test   al,al
    78f8:	0f 84 20 00 00 00    	je     0x791e
    78fe:	48 ff ce             	dec    rsi
    7901:	48 ff ce             	dec    rsi
    7904:	48 ff ce             	dec    rsi
    7907:	48 ff ce             	dec    rsi
    790a:	48 ff ce             	dec    rsi
    790d:	48 ff ce             	dec    rsi
    7910:	48 ff ce             	dec    rsi
    7913:	48 ff ce             	dec    rsi
    7916:	48 ff ce             	dec    rsi
    7919:	e9 d6 ff ff ff       	jmp    0x78f4
    791e:	48 ff c6             	inc    rsi
    7921:	48 ff c6             	inc    rsi
    7924:	48 ff c6             	inc    rsi
    7927:	48 ff c6             	inc    rsi
    792a:	48 ff c6             	inc    rsi
    792d:	48 ff c6             	inc    rsi
    7930:	48 ff c6             	inc    rsi
    7933:	48 ff c6             	inc    rsi
    7936:	48 ff c6             	inc    rsi
    7939:	8a 06                	mov    al,BYTE PTR [rsi]
    793b:	84 c0                	test   al,al
    793d:	0f 84 31 00 00 00    	je     0x7974
    7943:	48 ff c6             	inc    rsi
    7946:	48 ff c6             	inc    rsi
    7949:	48 ff c6             	inc    rsi
    794c:	48 ff c6             	inc    rsi
    794f:	48 ff c6             	inc    rsi
    7952:	8a 06                	mov    al,BYTE PTR [rsi]
    7954:	84 c0                	test   al,al
    7956:	0f 84 07 00 00 00    	je     0x7963
    795c:	fe 0e                	dec    BYTE PTR [rsi]
    795e:	e9 ef ff ff ff       	jmp    0x7952
    7963:	48 ff c6             	inc    rsi
    7966:	48 ff c6             	inc    rsi
    7969:	48 ff c6             	inc    rsi
    796c:	48 ff c6             	inc    rsi
    796f:	e9 c5 ff ff ff       	jmp    0x7939
    7974:	48 ff ce             	dec    rsi
    7977:	48 ff ce             	dec    rsi
    797a:	48 ff ce             	dec    rsi
    797d:	48 ff ce             	dec    rsi
    7980:	48 ff ce             	dec    rsi
    7983:	48 ff ce             	dec    rsi
    7986:	48 ff ce             	dec    rsi
    7989:	48 ff ce             	dec    rsi
    798c:	48 ff ce             	dec    rsi
    798f:	8a 06                	mov    al,BYTE PTR [rsi]
    7991:	84 c0                	test   al,al
    7993:	0f 84 20 00 00 00    	je     0x79b9
    7999:	48 ff ce             	dec    rsi
    799c:	48 ff ce             	dec    rsi
    799f:	48 ff ce             	dec    rsi
    79a2:	48 ff ce             	dec    rsi
    79a5:	48 ff ce             	dec    rsi
    79a8:	48 ff ce             	dec    rsi
    79ab:	48 ff ce             	dec    rsi
    79ae:	48 ff ce             	dec    rsi
    79b1:	48 ff ce             	dec    rsi
    79b4:	e9 d6 ff ff ff       	jmp    0x798f
    79b9:	48 ff c6             	inc    rsi
    79bc:	fe 06                	inc    BYTE PTR [rsi]
    79be:	fe 06                	inc    BYTE PTR [rsi]
    79c0:	fe 06                	inc    BYTE PTR [rsi]
    79c2:	fe 06                	inc    BYTE PTR [rsi]
    79c4:	fe 06                	inc    BYTE PTR [rsi]
    79c6:	fe 06                	inc    BYTE PTR [rsi]
    79c8:	fe 06                	inc    BYTE PTR [rsi]
    79ca:	fe 06                	inc    BYTE PTR [rsi]
    79cc:	fe 06                	inc    BYTE PTR [rsi]
    79ce:	fe 06                	inc    BYTE PTR [rsi]
    79d0:	fe 06                	inc    BYTE PTR [rsi]
    79d2:	8a 06                	mov    al,BYTE PTR [rsi]
    79d4:	84 c0                	test   al,al
    79d6:	0f 84 6b 00 00 00    	je     0x7a47
    79dc:	fe 0e                	dec    BYTE PTR [rsi]
    79de:	8a 06                	mov    al,BYTE PTR [rsi]
    79e0:	84 c0                	test   al,al
    79e2:	0f 84 3f 00 00 00    	je     0x7a27
    79e8:	fe 0e                	dec    BYTE PTR [rsi]
    79ea:	48 ff c6             	inc    rsi
    79ed:	48 ff c6             	inc    rsi
    79f0:	48 ff c6             	inc    rsi
    79f3:	48 ff c6             	inc    rsi
    79f6:	48 ff c6             	inc    rsi
    79f9:	48 ff c6             	inc    rsi
    79fc:	48 ff c6             	inc    rsi
    79ff:	48 ff c6             	inc    rsi
    7a02:	48 ff c6             	inc    rsi
    7a05:	fe 06                	inc    BYTE PTR [rsi]
    7a07:	48 ff ce             	dec    rsi
    7a0a:	48 ff ce             	dec    rsi
    7a0d:	48 ff ce             	dec    rsi
    7a10:	48 ff ce             	dec    rsi
    7a13:	48 ff ce             	dec    rsi
    7a16:	48 ff ce             	dec    rsi
    7a19:	48 ff ce             	dec    rsi
    7a1c:	48 ff ce             	dec    rsi
    7a1f:	48 ff ce             	dec    rsi
    7a22:	e9 b7 ff ff ff       	jmp    0x79de
    7a27:	48 ff c6             	inc    rsi
    7a2a:	48 ff c6             	inc    rsi
    7a2d:	48 ff c6             	inc    rsi
    7a30:	48 ff c6             	inc    rsi
    7a33:	48 ff c6             	inc    rsi
    7a36:	48 ff c6             	inc    rsi
    7a39:	48 ff c6             	inc    rsi
    7a3c:	48 ff c6             	inc    rsi
    7a3f:	48 ff c6             	inc    rsi
    7a42:	e9 8b ff ff ff       	jmp    0x79d2
    7a47:	48 ff c6             	inc    rsi
    7a4a:	48 ff c6             	inc    rsi
    7a4d:	48 ff c6             	inc    rsi
    7a50:	48 ff c6             	inc    rsi
    7a53:	fe 06                	inc    BYTE PTR [rsi]
    7a55:	48 ff c6             	inc    rsi
    7a58:	48 ff c6             	inc    rsi
    7a5b:	48 ff c6             	inc    rsi
    7a5e:	48 ff c6             	inc    rsi
    7a61:	48 ff c6             	inc    rsi
    7a64:	48 ff c6             	inc    rsi
    7a67:	48 ff c6             	inc    rsi
    7a6a:	48 ff c6             	inc    rsi
    7a6d:	48 ff c6             	inc    rsi
    7a70:	fe 06                	inc    BYTE PTR [rsi]
    7a72:	48 ff ce             	dec    rsi
    7a75:	48 ff ce             	dec    rsi
    7a78:	48 ff ce             	dec    rsi
    7a7b:	48 ff ce             	dec    rsi
    7a7e:	48 ff ce             	dec    rsi
    7a81:	48 ff ce             	dec    rsi
    7a84:	48 ff ce             	dec    rsi
    7a87:	48 ff ce             	dec    rsi
    7a8a:	48 ff ce             	dec    rsi
    7a8d:	48 ff ce             	dec    rsi
    7a90:	48 ff ce             	dec    rsi
    7a93:	48 ff ce             	dec    rsi
    7a96:	48 ff ce             	dec    rsi
    7a99:	48 ff ce             	dec    rsi
    7a9c:	8a 06                	mov    al,BYTE PTR [rsi]
    7a9e:	84 c0                	test   al,al
    7aa0:	0f 84 20 00 00 00    	je     0x7ac6
    7aa6:	48 ff ce             	dec    rsi
    7aa9:	48 ff ce             	dec    rsi
    7aac:	48 ff ce             	dec    rsi
    7aaf:	48 ff ce             	dec    rsi
    7ab2:	48 ff ce             	dec    rsi
    7ab5:	48 ff ce             	dec    rsi
    7ab8:	48 ff ce             	dec    rsi
    7abb:	48 ff ce             	dec    rsi
    7abe:	48 ff ce             	dec    rsi
    7ac1:	e9 d6 ff ff ff       	jmp    0x7a9c
    7ac6:	48 ff c6             	inc    rsi
    7ac9:	48 ff c6             	inc    rsi
    7acc:	48 ff c6             	inc    rsi
    7acf:	48 ff c6             	inc    rsi
    7ad2:	48 ff c6             	inc    rsi
    7ad5:	48 ff c6             	inc    rsi
    7ad8:	48 ff c6             	inc    rsi
    7adb:	8a 06                	mov    al,BYTE PTR [rsi]
    7add:	84 c0                	test   al,al
    7adf:	0f 84 33 00 00 00    	je     0x7b18
    7ae5:	fe 0e                	dec    BYTE PTR [rsi]
    7ae7:	48 ff ce             	dec    rsi
    7aea:	48 ff ce             	dec    rsi
    7aed:	48 ff ce             	dec    rsi
    7af0:	48 ff ce             	dec    rsi
    7af3:	48 ff ce             	dec    rsi
    7af6:	48 ff ce             	dec    rsi
    7af9:	48 ff ce             	dec    rsi
    7afc:	fe 06                	inc    BYTE PTR [rsi]
    7afe:	48 ff c6             	inc    rsi
    7b01:	48 ff c6             	inc    rsi
    7b04:	48 ff c6             	inc    rsi
    7b07:	48 ff c6             	inc    rsi
    7b0a:	48 ff c6             	inc    rsi
    7b0d:	48 ff c6             	inc    rsi
    7b10:	48 ff c6             	inc    rsi
    7b13:	e9 c3 ff ff ff       	jmp    0x7adb
    7b18:	48 ff ce             	dec    rsi
    7b1b:	48 ff ce             	dec    rsi
    7b1e:	48 ff ce             	dec    rsi
    7b21:	48 ff ce             	dec    rsi
    7b24:	48 ff ce             	dec    rsi
    7b27:	48 ff ce             	dec    rsi
    7b2a:	48 ff ce             	dec    rsi
    7b2d:	8a 06                	mov    al,BYTE PTR [rsi]
    7b2f:	84 c0                	test   al,al
    7b31:	0f 84 9a 01 00 00    	je     0x7cd1
    7b37:	fe 0e                	dec    BYTE PTR [rsi]
    7b39:	48 ff c6             	inc    rsi
    7b3c:	48 ff c6             	inc    rsi
    7b3f:	48 ff c6             	inc    rsi
    7b42:	48 ff c6             	inc    rsi
    7b45:	48 ff c6             	inc    rsi
    7b48:	48 ff c6             	inc    rsi
    7b4b:	48 ff c6             	inc    rsi
    7b4e:	fe 06                	inc    BYTE PTR [rsi]
    7b50:	8a 06                	mov    al,BYTE PTR [rsi]
    7b52:	84 c0                	test   al,al
    7b54:	0f 84 07 00 00 00    	je     0x7b61
    7b5a:	fe 0e                	dec    BYTE PTR [rsi]
    7b5c:	e9 ef ff ff ff       	jmp    0x7b50
    7b61:	48 ff c6             	inc    rsi
    7b64:	48 ff c6             	inc    rsi
    7b67:	8a 06                	mov    al,BYTE PTR [rsi]
    7b69:	84 c0                	test   al,al
    7b6b:	0f 84 20 00 00 00    	je     0x7b91
    7b71:	48 ff c6             	inc    rsi
    7b74:	48 ff c6             	inc    rsi
    7b77:	48 ff c6             	inc    rsi
    7b7a:	48 ff c6             	inc    rsi
    7b7d:	48 ff c6             	inc    rsi
    7b80:	48 ff c6             	inc    rsi
    7b83:	48 ff c6             	inc    rsi
    7b86:	48 ff c6             	inc    rsi
    7b89:	48 ff c6             	inc    rsi
    7b8c:	e9 d6 ff ff ff       	jmp    0x7b67
    7b91:	48 ff ce             	dec    rsi
    7b94:	48 ff ce             	dec    rsi
    7b97:	48 ff ce             	dec    rsi
    7b9a:	48 ff ce             	dec    rsi
    7b9d:	48 ff ce             	dec    rsi
    7ba0:	48 ff ce             	dec    rsi
    7ba3:	48 ff ce             	dec    rsi
    7ba6:	48 ff ce             	dec    rsi
    7ba9:	48 ff ce             	dec    rsi
    7bac:	8a 06                	mov    al,BYTE PTR [rsi]
    7bae:	84 c0                	test   al,al
    7bb0:	0f 84 16 01 00 00    	je     0x7ccc
    7bb6:	48 ff c6             	inc    rsi
    7bb9:	48 ff c6             	inc    rsi
    7bbc:	48 ff c6             	inc    rsi
    7bbf:	48 ff c6             	inc    rsi
    7bc2:	48 ff c6             	inc    rsi
    7bc5:	48 ff c6             	inc    rsi
    7bc8:	48 ff c6             	inc    rsi
    7bcb:	8a 06                	mov    al,BYTE PTR [rsi]
    7bcd:	84 c0                	test   al,al
    7bcf:	0f 84 2d 00 00 00    	je     0x7c02
    7bd5:	fe 0e                	dec    BYTE PTR [rsi]
    7bd7:	48 ff ce             	dec    rsi
    7bda:	48 ff ce             	dec    rsi
    7bdd:	48 ff ce             	dec    rsi
    7be0:	48 ff ce             	dec    rsi
    7be3:	48 ff ce             	dec    rsi
    7be6:	48 ff ce             	dec    rsi
    7be9:	fe 06                	inc    BYTE PTR [rsi]
    7beb:	48 ff c6             	inc    rsi
    7bee:	48 ff c6             	inc    rsi
    7bf1:	48 ff c6             	inc    rsi
    7bf4:	48 ff c6             	inc    rsi
    7bf7:	48 ff c6             	inc    rsi
    7bfa:	48 ff c6             	inc    rsi
    7bfd:	e9 c9 ff ff ff       	jmp    0x7bcb
    7c02:	48 ff ce             	dec    rsi
    7c05:	48 ff ce             	dec    rsi
    7c08:	48 ff ce             	dec    rsi
    7c0b:	48 ff ce             	dec    rsi
    7c0e:	48 ff ce             	dec    rsi
    7c11:	48 ff ce             	dec    rsi
    7c14:	8a 06                	mov    al,BYTE PTR [rsi]
    7c16:	84 c0                	test   al,al
    7c18:	0f 84 8b 00 00 00    	je     0x7ca9
    7c1e:	fe 0e                	dec    BYTE PTR [rsi]
    7c20:	48 ff c6             	inc    rsi
    7c23:	48 ff c6             	inc    rsi
    7c26:	48 ff c6             	inc    rsi
    7c29:	48 ff c6             	inc    rsi
    7c2c:	48 ff c6             	inc    rsi
    7c2f:	48 ff c6             	inc    rsi
    7c32:	fe 06                	inc    BYTE PTR [rsi]
    7c34:	48 ff ce             	dec    rsi
    7c37:	48 ff ce             	dec    rsi
    7c3a:	48 ff ce             	dec    rsi
    7c3d:	48 ff ce             	dec    rsi
    7c40:	48 ff ce             	dec    rsi
    7c43:	48 ff ce             	dec    rsi
    7c46:	48 ff ce             	dec    rsi
    7c49:	8a 06                	mov    al,BYTE PTR [rsi]
    7c4b:	84 c0                	test   al,al
    7c4d:	0f 84 20 00 00 00    	je     0x7c73
    7c53:	48 ff ce             	dec    rsi
    7c56:	48 ff ce             	dec    rsi
    7c59:	48 ff ce             	dec    rsi
    7c5c:	48 ff ce             	dec    rsi
    7c5f:	48 ff ce             	dec    rsi
    7c62:	48 ff ce             	dec    rsi
    7c65:	48 ff ce             	dec    rsi
    7c68:	48 ff ce             	dec    rsi
    7c6b:	48 ff ce             	dec    rsi
    7c6e:	e9 d6 ff ff ff       	jmp    0x7c49
    7c73:	48 ff c6             	inc    rsi
    7c76:	48 ff c6             	inc    rsi
    7c79:	48 ff c6             	inc    rsi
    7c7c:	48 ff c6             	inc    rsi
    7c7f:	48 ff c6             	inc    rsi
    7c82:	48 ff c6             	inc    rsi
    7c85:	48 ff c6             	inc    rsi
    7c88:	8a 06                	mov    al,BYTE PTR [rsi]
    7c8a:	84 c0                	test   al,al
    7c8c:	0f 84 07 00 00 00    	je     0x7c99
    7c92:	fe 0e                	dec    BYTE PTR [rsi]
    7c94:	e9 ef ff ff ff       	jmp    0x7c88
    7c99:	fe 06                	inc    BYTE PTR [rsi]
    7c9b:	48 ff c6             	inc    rsi
    7c9e:	48 ff c6             	inc    rsi
    7ca1:	48 ff c6             	inc    rsi
    7ca4:	e9 6b ff ff ff       	jmp    0x7c14
    7ca9:	48 ff ce             	dec    rsi
    7cac:	48 ff ce             	dec    rsi
    7caf:	48 ff ce             	dec    rsi
    7cb2:	48 ff ce             	dec    rsi
    7cb5:	48 ff ce             	dec    rsi
    7cb8:	48 ff ce             	dec    rsi
    7cbb:	48 ff ce             	dec    rsi
    7cbe:	48 ff ce             	dec    rsi
    7cc1:	48 ff ce             	dec    rsi
    7cc4:	48 ff ce             	dec    rsi
    7cc7:	e9 e0 fe ff ff       	jmp    0x7bac
    7ccc:	e9 5c fe ff ff       	jmp    0x7b2d
    7cd1:	48 ff c6             	inc    rsi
    7cd4:	48 ff c6             	inc    rsi
    7cd7:	48 ff c6             	inc    rsi
    7cda:	48 ff c6             	inc    rsi
    7cdd:	48 ff c6             	inc    rsi
    7ce0:	48 ff c6             	inc    rsi
    7ce3:	48 ff c6             	inc    rsi
    7ce6:	8a 06                	mov    al,BYTE PTR [rsi]
    7ce8:	84 c0                	test   al,al
    7cea:	0f 84 33 00 00 00    	je     0x7d23
    7cf0:	fe 0e                	dec    BYTE PTR [rsi]
    7cf2:	48 ff ce             	dec    rsi
    7cf5:	48 ff ce             	dec    rsi
    7cf8:	48 ff ce             	dec    rsi
    7cfb:	48 ff ce             	dec    rsi
    7cfe:	48 ff ce             	dec    rsi
    7d01:	48 ff ce             	dec    rsi
    7d04:	48 ff ce             	dec    rsi
    7d07:	fe 06                	inc    BYTE PTR [rsi]
    7d09:	48 ff c6             	inc    rsi
    7d0c:	48 ff c6             	inc    rsi
    7d0f:	48 ff c6             	inc    rsi
    7d12:	48 ff c6             	inc    rsi
    7d15:	48 ff c6             	inc    rsi
    7d18:	48 ff c6             	inc    rsi
    7d1b:	48 ff c6             	inc    rsi
    7d1e:	e9 c3 ff ff ff       	jmp    0x7ce6
    7d23:	48 ff ce             	dec    rsi
    7d26:	48 ff ce             	dec    rsi
    7d29:	48 ff ce             	dec    rsi
    7d2c:	48 ff ce             	dec    rsi
    7d2f:	48 ff ce             	dec    rsi
    7d32:	48 ff ce             	dec    rsi
    7d35:	48 ff ce             	dec    rsi
    7d38:	8a 06                	mov    al,BYTE PTR [rsi]
    7d3a:	84 c0                	test   al,al
    7d3c:	0f 84 10 03 00 00    	je     0x8052
    7d42:	fe 0e                	dec    BYTE PTR [rsi]
    7d44:	48 ff c6             	inc    rsi
    7d47:	48 ff c6             	inc    rsi
    7d4a:	48 ff c6             	inc    rsi
    7d4d:	48 ff c6             	inc    rsi
    7d50:	48 ff c6             	inc    rsi
    7d53:	48 ff c6             	inc    rsi
    7d56:	48 ff c6             	inc    rsi
    7d59:	fe 06                	inc    BYTE PTR [rsi]
    7d5b:	48 ff c6             	inc    rsi
    7d5e:	48 ff c6             	inc    rsi
    7d61:	8a 06                	mov    al,BYTE PTR [rsi]
    7d63:	84 c0                	test   al,al
    7d65:	0f 84 90 00 00 00    	je     0x7dfb
    7d6b:	48 ff c6             	inc    rsi
    7d6e:	fe 06                	inc    BYTE PTR [rsi]
    7d70:	48 ff c6             	inc    rsi
    7d73:	48 ff c6             	inc    rsi
    7d76:	48 ff c6             	inc    rsi
    7d79:	48 ff c6             	inc    rsi
    7d7c:	8a 06                	mov    al,BYTE PTR [rsi]
    7d7e:	84 c0                	test   al,al
    7d80:	0f 84 21 00 00 00    	je     0x7da7
    7d86:	fe 0e                	dec    BYTE PTR [rsi]
    7d88:	48 ff ce             	dec    rsi
    7d8b:	48 ff ce             	dec    rsi
    7d8e:	48 ff ce             	dec    rsi
    7d91:	48 ff ce             	dec    rsi
    7d94:	fe 0e                	dec    BYTE PTR [rsi]
    7d96:	48 ff c6             	inc    rsi
    7d99:	48 ff c6             	inc    rsi
    7d9c:	48 ff c6             	inc    rsi
    7d9f:	48 ff c6             	inc    rsi
    7da2:	e9 d5 ff ff ff       	jmp    0x7d7c
    7da7:	48 ff ce             	dec    rsi
    7daa:	48 ff ce             	dec    rsi
    7dad:	48 ff ce             	dec    rsi
    7db0:	48 ff ce             	dec    rsi
    7db3:	8a 06                	mov    al,BYTE PTR [rsi]
    7db5:	84 c0                	test   al,al
    7db7:	0f 84 21 00 00 00    	je     0x7dde
    7dbd:	fe 0e                	dec    BYTE PTR [rsi]
    7dbf:	48 ff c6             	inc    rsi
    7dc2:	48 ff c6             	inc    rsi
    7dc5:	48 ff c6             	inc    rsi
    7dc8:	48 ff c6             	inc    rsi
    7dcb:	fe 06                	inc    BYTE PTR [rsi]
    7dcd:	48 ff ce             	dec    rsi
    7dd0:	48 ff ce             	dec    rsi
    7dd3:	48 ff ce             	dec    rsi
    7dd6:	48 ff ce             	dec    rsi
    7dd9:	e9 d5 ff ff ff       	jmp    0x7db3
    7dde:	48 ff c6             	inc    rsi
    7de1:	48 ff c6             	inc    rsi
    7de4:	48 ff c6             	inc    rsi
    7de7:	48 ff c6             	inc    rsi
    7dea:	48 ff c6             	inc    rsi
    7ded:	48 ff c6             	inc    rsi
    7df0:	48 ff c6             	inc    rsi
    7df3:	48 ff c6             	inc    rsi
    7df6:	e9 66 ff ff ff       	jmp    0x7d61
    7dfb:	48 ff ce             	dec    rsi
    7dfe:	48 ff ce             	dec    rsi
    7e01:	fe 06                	inc    BYTE PTR [rsi]
    7e03:	48 ff ce             	dec    rsi
    7e06:	48 ff ce             	dec    rsi
    7e09:	48 ff ce             	dec    rsi
    7e0c:	48 ff ce             	dec    rsi
    7e0f:	48 ff ce             	dec    rsi
    7e12:	48 ff ce             	dec    rsi
    7e15:	48 ff ce             	dec    rsi
    7e18:	8a 06                	mov    al,BYTE PTR [rsi]
    7e1a:	84 c0                	test   al,al
    7e1c:	0f 84 5d 00 00 00    	je     0x7e7f
    7e22:	48 ff c6             	inc    rsi
    7e25:	48 ff c6             	inc    rsi
    7e28:	48 ff c6             	inc    rsi
    7e2b:	48 ff c6             	inc    rsi
    7e2e:	48 ff c6             	inc    rsi
    7e31:	8a 06                	mov    al,BYTE PTR [rsi]
    7e33:	84 c0                	test   al,al
    7e35:	0f 84 15 00 00 00    	je     0x7e50
    7e3b:	fe 0e                	dec    BYTE PTR [rsi]
    7e3d:	48 ff c6             	inc    rsi
    7e40:	48 ff c6             	inc    rsi
    7e43:	fe 06                	inc    BYTE PTR [rsi]
    7e45:	48 ff ce             	dec    rsi
    7e48:	48 ff ce             	dec    rsi
    7e4b:	e9 e1 ff ff ff       	jmp    0x7e31
    7e50:	48 ff ce             	dec    rsi
    7e53:	48 ff ce             	dec    rsi
    7e56:	48 ff ce             	dec    rsi
    7e59:	48 ff ce             	dec    rsi
    7e5c:	48 ff ce             	dec    rsi
    7e5f:	48 ff ce             	dec    rsi
    7e62:	48 ff ce             	dec    rsi
    7e65:	48 ff ce             	dec    rsi
    7e68:	48 ff ce             	dec    rsi
    7e6b:	48 ff ce             	dec    rsi
    7e6e:	48 ff ce             	dec    rsi
    7e71:	48 ff ce             	dec    rsi
    7e74:	48 ff ce             	dec    rsi
    7e77:	48 ff ce             	dec    rsi
    7e7a:	e9 99 ff ff ff       	jmp    0x7e18
    7e7f:	48 ff c6             	inc    rsi
    7e82:	48 ff c6             	inc    rsi
    7e85:	48 ff c6             	inc    rsi
    7e88:	48 ff c6             	inc    rsi
    7e8b:	48 ff c6             	inc    rsi
    7e8e:	48 ff c6             	inc    rsi
    7e91:	48 ff c6             	inc    rsi
    7e94:	48 ff c6             	inc    rsi
    7e97:	48 ff c6             	inc    rsi
    7e9a:	8a 06                	mov    al,BYTE PTR [rsi]
    7e9c:	84 c0                	test   al,al
    7e9e:	0f 84 20 00 00 00    	je     0x7ec4
    7ea4:	48 ff c6             	inc    rsi
    7ea7:	48 ff c6             	inc    rsi
    7eaa:	48 ff c6             	inc    rsi
    7ead:	48 ff c6             	inc    rsi
    7eb0:	48 ff c6             	inc    rsi
    7eb3:	48 ff c6             	inc    rsi
    7eb6:	48 ff c6             	inc    rsi
    7eb9:	48 ff c6             	inc    rsi
    7ebc:	48 ff c6             	inc    rsi
    7ebf:	e9 d6 ff ff ff       	jmp    0x7e9a
    7ec4:	48 ff ce             	dec    rsi
    7ec7:	48 ff ce             	dec    rsi
    7eca:	48 ff ce             	dec    rsi
    7ecd:	48 ff ce             	dec    rsi
    7ed0:	48 ff ce             	dec    rsi
    7ed3:	48 ff ce             	dec    rsi
    7ed6:	48 ff ce             	dec    rsi
    7ed9:	48 ff ce             	dec    rsi
    7edc:	48 ff ce             	dec    rsi
    7edf:	8a 06                	mov    al,BYTE PTR [rsi]
    7ee1:	84 c0                	test   al,al
    7ee3:	0f 84 25 01 00 00    	je     0x800e
    7ee9:	48 ff c6             	inc    rsi
    7eec:	8a 06                	mov    al,BYTE PTR [rsi]
    7eee:	84 c0                	test   al,al
    7ef0:	0f 84 07 00 00 00    	je     0x7efd
    7ef6:	fe 0e                	dec    BYTE PTR [rsi]
    7ef8:	e9 ef ff ff ff       	jmp    0x7eec
    7efd:	48 ff ce             	dec    rsi
    7f00:	fe 0e                	dec    BYTE PTR [rsi]
    7f02:	48 ff c6             	inc    rsi
    7f05:	48 ff c6             	inc    rsi
    7f08:	48 ff c6             	inc    rsi
    7f0b:	48 ff c6             	inc    rsi
    7f0e:	48 ff c6             	inc    rsi
    7f11:	48 ff c6             	inc    rsi
    7f14:	48 ff c6             	inc    rsi
    7f17:	8a 06                	mov    al,BYTE PTR [rsi]
    7f19:	84 c0                	test   al,al
    7f1b:	0f 84 7f 00 00 00    	je     0x7fa0
    7f21:	fe 0e                	dec    BYTE PTR [rsi]
    7f23:	48 ff ce             	dec    rsi
    7f26:	48 ff ce             	dec    rsi
    7f29:	48 ff ce             	dec    rsi
    7f2c:	48 ff ce             	dec    rsi
    7f2f:	48 ff ce             	dec    rsi
    7f32:	48 ff ce             	dec    rsi
    7f35:	48 ff ce             	dec    rsi
    7f38:	fe 06                	inc    BYTE PTR [rsi]
    7f3a:	48 ff c6             	inc    rsi
    7f3d:	8a 06                	mov    al,BYTE PTR [rsi]
    7f3f:	84 c0                	test   al,al
    7f41:	0f 84 23 00 00 00    	je     0x7f6a
    7f47:	48 ff ce             	dec    rsi
    7f4a:	fe 0e                	dec    BYTE PTR [rsi]
    7f4c:	48 ff c6             	inc    rsi
    7f4f:	fe 0e                	dec    BYTE PTR [rsi]
    7f51:	48 ff ce             	dec    rsi
    7f54:	48 ff ce             	dec    rsi
    7f57:	48 ff ce             	dec    rsi
    7f5a:	fe 06                	inc    BYTE PTR [rsi]
    7f5c:	48 ff c6             	inc    rsi
    7f5f:	48 ff c6             	inc    rsi
    7f62:	48 ff c6             	inc    rsi
    7f65:	e9 d3 ff ff ff       	jmp    0x7f3d
    7f6a:	48 ff ce             	dec    rsi
    7f6d:	8a 06                	mov    al,BYTE PTR [rsi]
    7f6f:	84 c0                	test   al,al
    7f71:	0f 84 0f 00 00 00    	je     0x7f86
    7f77:	fe 0e                	dec    BYTE PTR [rsi]
    7f79:	48 ff c6             	inc    rsi
    7f7c:	fe 06                	inc    BYTE PTR [rsi]
    7f7e:	48 ff ce             	dec    rsi
    7f81:	e9 e7 ff ff ff       	jmp    0x7f6d
    7f86:	48 ff c6             	inc    rsi
    7f89:	48 ff c6             	inc    rsi
    7f8c:	48 ff c6             	inc    rsi
    7f8f:	48 ff c6             	inc    rsi
    7f92:	48 ff c6             	inc    rsi
    7f95:	48 ff c6             	inc    rsi
    7f98:	48 ff c6             	inc    rsi
    7f9b:	e9 77 ff ff ff       	jmp    0x7f17
    7fa0:	48 ff ce             	dec    rsi
    7fa3:	48 ff ce             	dec    rsi
    7fa6:	48 ff ce             	dec    rsi
    7fa9:	48 ff ce             	dec    rsi
    7fac:	48 ff ce             	dec    rsi
    7faf:	48 ff ce             	dec    rsi
    7fb2:	8a 06                	mov    al,BYTE PTR [rsi]
    7fb4:	84 c0                	test   al,al
    7fb6:	0f 84 2d 00 00 00    	je     0x7fe9
    7fbc:	fe 0e                	dec    BYTE PTR [rsi]
    7fbe:	48 ff c6             	inc    rsi
    7fc1:	48 ff c6             	inc    rsi
    7fc4:	48 ff c6             	inc    rsi
    7fc7:	48 ff c6             	inc    rsi
    7fca:	48 ff c6             	inc    rsi
    7fcd:	48 ff c6             	inc    rsi
    7fd0:	fe 06                	inc    BYTE PTR [rsi]
    7fd2:	48 ff ce             	dec    rsi
    7fd5:	48 ff ce             	dec    rsi
    7fd8:	48 ff ce             	dec    rsi
    7fdb:	48 ff ce             	dec    rsi
    7fde:	48 ff ce             	dec    rsi
    7fe1:	48 ff ce             	dec    rsi
    7fe4:	e9 c9 ff ff ff       	jmp    0x7fb2
    7fe9:	48 ff ce             	dec    rsi
    7fec:	fe 06                	inc    BYTE PTR [rsi]
    7fee:	48 ff ce             	dec    rsi
    7ff1:	48 ff ce             	dec    rsi
    7ff4:	48 ff ce             	dec    rsi
    7ff7:	48 ff ce             	dec    rsi
    7ffa:	48 ff ce             	dec    rsi
    7ffd:	48 ff ce             	dec    rsi
    8000:	48 ff ce             	dec    rsi
    8003:	48 ff ce             	dec    rsi
    8006:	48 ff ce             	dec    rsi
    8009:	e9 d1 fe ff ff       	jmp    0x7edf
    800e:	48 ff c6             	inc    rsi
    8011:	48 ff c6             	inc    rsi
    8014:	48 ff c6             	inc    rsi
    8017:	48 ff c6             	inc    rsi
    801a:	48 ff c6             	inc    rsi
    801d:	48 ff c6             	inc    rsi
    8020:	48 ff c6             	inc    rsi
    8023:	fe 0e                	dec    BYTE PTR [rsi]
    8025:	48 ff ce             	dec    rsi
    8028:	48 ff ce             	dec    rsi
    802b:	48 ff ce             	dec    rsi
    802e:	48 ff ce             	dec    rsi
    8031:	8a 06                	mov    al,BYTE PTR [rsi]
    8033:	84 c0                	test   al,al
    8035:	0f 84 07 00 00 00    	je     0x8042
    803b:	fe 0e                	dec    BYTE PTR [rsi]
    803d:	e9 ef ff ff ff       	jmp    0x8031
    8042:	fe 06                	inc    BYTE PTR [rsi]
    8044:	48 ff ce             	dec    rsi
    8047:	48 ff ce             	dec    rsi
    804a:	48 ff ce             	dec    rsi
    804d:	e9 e6 fc ff ff       	jmp    0x7d38
    8052:	fe 06                	inc    BYTE PTR [rsi]
    8054:	48 ff c6             	inc    rsi
    8057:	48 ff c6             	inc    rsi
    805a:	48 ff c6             	inc    rsi
    805d:	48 ff c6             	inc    rsi
    8060:	48 ff c6             	inc    rsi
    8063:	48 ff c6             	inc    rsi
    8066:	48 ff c6             	inc    rsi
    8069:	8a 06                	mov    al,BYTE PTR [rsi]
    806b:	84 c0                	test   al,al
    806d:	0f 84 33 00 00 00    	je     0x80a6
    8073:	fe 0e                	dec    BYTE PTR [rsi]
    8075:	48 ff ce             	dec    rsi
    8078:	48 ff ce             	dec    rsi
    807b:	48 ff ce             	dec    rsi
    807e:	48 ff ce             	dec    rsi
    8081:	48 ff ce             	dec    rsi
    8084:	48 ff ce             	dec    rsi
    8087:	48 ff ce             	dec    rsi
    808a:	fe 0e                	dec    BYTE PTR [rsi]
    808c:	48 ff c6             	inc    rsi
    808f:	48 ff c6             	inc    rsi
    8092:	48 ff c6             	inc    rsi
    8095:	48 ff c6             	inc    rsi
    8098:	48 ff c6             	inc    rsi
    809b:	48 ff c6             	inc    rsi
    809e:	48 ff c6             	inc    rsi
    80a1:	e9 c3 ff ff ff       	jmp    0x8069
    80a6:	fe 06                	inc    BYTE PTR [rsi]
    80a8:	48 ff ce             	dec    rsi
    80ab:	48 ff ce             	dec    rsi
    80ae:	48 ff ce             	dec    rsi
    80b1:	48 ff ce             	dec    rsi
    80b4:	48 ff ce             	dec    rsi
    80b7:	48 ff ce             	dec    rsi
    80ba:	48 ff ce             	dec    rsi
    80bd:	8a 06                	mov    al,BYTE PTR [rsi]
    80bf:	84 c0                	test   al,al
    80c1:	0f 84 bb 07 00 00    	je     0x8882
    80c7:	fe 0e                	dec    BYTE PTR [rsi]
    80c9:	48 ff c6             	inc    rsi
    80cc:	48 ff c6             	inc    rsi
    80cf:	48 ff c6             	inc    rsi
    80d2:	48 ff c6             	inc    rsi
    80d5:	48 ff c6             	inc    rsi
    80d8:	48 ff c6             	inc    rsi
    80db:	48 ff c6             	inc    rsi
    80de:	fe 0e                	dec    BYTE PTR [rsi]
    80e0:	48 ff c6             	inc    rsi
    80e3:	48 ff c6             	inc    rsi
    80e6:	8a 06                	mov    al,BYTE PTR [rsi]
    80e8:	84 c0                	test   al,al
    80ea:	0f 84 3f 00 00 00    	je     0x812f
    80f0:	48 ff c6             	inc    rsi
    80f3:	48 ff c6             	inc    rsi
    80f6:	48 ff c6             	inc    rsi
    80f9:	48 ff c6             	inc    rsi
    80fc:	48 ff c6             	inc    rsi
    80ff:	8a 06                	mov    al,BYTE PTR [rsi]
    8101:	84 c0                	test   al,al
    8103:	0f 84 15 00 00 00    	je     0x811e
    8109:	fe 0e                	dec    BYTE PTR [rsi]
    810b:	48 ff c6             	inc    rsi
    810e:	48 ff c6             	inc    rsi
    8111:	fe 06                	inc    BYTE PTR [rsi]
    8113:	48 ff ce             	dec    rsi
    8116:	48 ff ce             	dec    rsi
    8119:	e9 e1 ff ff ff       	jmp    0x80ff
    811e:	48 ff c6             	inc    rsi
    8121:	48 ff c6             	inc    rsi
    8124:	48 ff c6             	inc    rsi
    8127:	48 ff c6             	inc    rsi
    812a:	e9 b7 ff ff ff       	jmp    0x80e6
    812f:	48 ff ce             	dec    rsi
    8132:	48 ff ce             	dec    rsi
    8135:	48 ff ce             	dec    rsi
    8138:	48 ff ce             	dec    rsi
    813b:	48 ff ce             	dec    rsi
    813e:	48 ff ce             	dec    rsi
    8141:	48 ff ce             	dec    rsi
    8144:	48 ff ce             	dec    rsi
    8147:	48 ff ce             	dec    rsi
    814a:	8a 06                	mov    al,BYTE PTR [rsi]
    814c:	84 c0                	test   al,al
    814e:	0f 84 25 01 00 00    	je     0x8279
    8154:	48 ff c6             	inc    rsi
    8157:	8a 06                	mov    al,BYTE PTR [rsi]
    8159:	84 c0                	test   al,al
    815b:	0f 84 07 00 00 00    	je     0x8168
    8161:	fe 0e                	dec    BYTE PTR [rsi]
    8163:	e9 ef ff ff ff       	jmp    0x8157
    8168:	48 ff ce             	dec    rsi
    816b:	fe 0e                	dec    BYTE PTR [rsi]
    816d:	48 ff c6             	inc    rsi
    8170:	48 ff c6             	inc    rsi
    8173:	48 ff c6             	inc    rsi
    8176:	48 ff c6             	inc    rsi
    8179:	48 ff c6             	inc    rsi
    817c:	48 ff c6             	inc    rsi
    817f:	48 ff c6             	inc    rsi
    8182:	8a 06                	mov    al,BYTE PTR [rsi]
    8184:	84 c0                	test   al,al
    8186:	0f 84 7f 00 00 00    	je     0x820b
    818c:	fe 0e                	dec    BYTE PTR [rsi]
    818e:	48 ff ce             	dec    rsi
    8191:	48 ff ce             	dec    rsi
    8194:	48 ff ce             	dec    rsi
    8197:	48 ff ce             	dec    rsi
    819a:	48 ff ce             	dec    rsi
    819d:	48 ff ce             	dec    rsi
    81a0:	48 ff ce             	dec    rsi
    81a3:	fe 06                	inc    BYTE PTR [rsi]
    81a5:	48 ff c6             	inc    rsi
    81a8:	8a 06                	mov    al,BYTE PTR [rsi]
    81aa:	84 c0                	test   al,al
    81ac:	0f 84 23 00 00 00    	je     0x81d5
    81b2:	48 ff ce             	dec    rsi
    81b5:	fe 0e                	dec    BYTE PTR [rsi]
    81b7:	48 ff c6             	inc    rsi
    81ba:	fe 0e                	dec    BYTE PTR [rsi]
    81bc:	48 ff ce             	dec    rsi
    81bf:	48 ff ce             	dec    rsi
    81c2:	48 ff ce             	dec    rsi
    81c5:	fe 06                	inc    BYTE PTR [rsi]
    81c7:	48 ff c6             	inc    rsi
    81ca:	48 ff c6             	inc    rsi
    81cd:	48 ff c6             	inc    rsi
    81d0:	e9 d3 ff ff ff       	jmp    0x81a8
    81d5:	48 ff ce             	dec    rsi
    81d8:	8a 06                	mov    al,BYTE PTR [rsi]
    81da:	84 c0                	test   al,al
    81dc:	0f 84 0f 00 00 00    	je     0x81f1
    81e2:	fe 0e                	dec    BYTE PTR [rsi]
    81e4:	48 ff c6             	inc    rsi
    81e7:	fe 06                	inc    BYTE PTR [rsi]
    81e9:	48 ff ce             	dec    rsi
    81ec:	e9 e7 ff ff ff       	jmp    0x81d8
    81f1:	48 ff c6             	inc    rsi
    81f4:	48 ff c6             	inc    rsi
    81f7:	48 ff c6             	inc    rsi
    81fa:	48 ff c6             	inc    rsi
    81fd:	48 ff c6             	inc    rsi
    8200:	48 ff c6             	inc    rsi
    8203:	48 ff c6             	inc    rsi
    8206:	e9 77 ff ff ff       	jmp    0x8182
    820b:	48 ff ce             	dec    rsi
    820e:	48 ff ce             	dec    rsi
    8211:	48 ff ce             	dec    rsi
    8214:	48 ff ce             	dec    rsi
    8217:	48 ff ce             	dec    rsi
    821a:	48 ff ce             	dec    rsi
    821d:	8a 06                	mov    al,BYTE PTR [rsi]
    821f:	84 c0                	test   al,al
    8221:	0f 84 2d 00 00 00    	je     0x8254
    8227:	fe 0e                	dec    BYTE PTR [rsi]
    8229:	48 ff c6             	inc    rsi
    822c:	48 ff c6             	inc    rsi
    822f:	48 ff c6             	inc    rsi
    8232:	48 ff c6             	inc    rsi
    8235:	48 ff c6             	inc    rsi
    8238:	48 ff c6             	inc    rsi
    823b:	fe 06                	inc    BYTE PTR [rsi]
    823d:	48 ff ce             	dec    rsi
    8240:	48 ff ce             	dec    rsi
    8243:	48 ff ce             	dec    rsi
    8246:	48 ff ce             	dec    rsi
    8249:	48 ff ce             	dec    rsi
    824c:	48 ff ce             	dec    rsi
    824f:	e9 c9 ff ff ff       	jmp    0x821d
    8254:	48 ff ce             	dec    rsi
    8257:	fe 06                	inc    BYTE PTR [rsi]
    8259:	48 ff ce             	dec    rsi
    825c:	48 ff ce             	dec    rsi
    825f:	48 ff ce             	dec    rsi
    8262:	48 ff ce             	dec    rsi
    8265:	48 ff ce             	dec    rsi
    8268:	48 ff ce             	dec    rsi
    826b:	48 ff ce             	dec    rsi
    826e:	48 ff ce             	dec    rsi
    8271:	48 ff ce             	dec    rsi
    8274:	e9 d1 fe ff ff       	jmp    0x814a
    8279:	48 ff c6             	inc    rsi
    827c:	fe 06                	inc    BYTE PTR [rsi]
    827e:	fe 06                	inc    BYTE PTR [rsi]
    8280:	fe 06                	inc    BYTE PTR [rsi]
    8282:	fe 06                	inc    BYTE PTR [rsi]
    8284:	fe 06                	inc    BYTE PTR [rsi]
    8286:	8a 06                	mov    al,BYTE PTR [rsi]
    8288:	84 c0                	test   al,al
    828a:	0f 84 6b 00 00 00    	je     0x82fb
    8290:	fe 0e                	dec    BYTE PTR [rsi]
    8292:	8a 06                	mov    al,BYTE PTR [rsi]
    8294:	84 c0                	test   al,al
    8296:	0f 84 3f 00 00 00    	je     0x82db
    829c:	fe 0e                	dec    BYTE PTR [rsi]
    829e:	48 ff c6             	inc    rsi
    82a1:	48 ff c6             	inc    rsi
    82a4:	48 ff c6             	inc    rsi
    82a7:	48 ff c6             	inc    rsi
    82aa:	48 ff c6             	inc    rsi
    82ad:	48 ff c6             	inc    rsi
    82b0:	48 ff c6             	inc    rsi
    82b3:	48 ff c6             	inc    rsi
    82b6:	48 ff c6             	inc    rsi
    82b9:	fe 06                	inc    BYTE PTR [rsi]
    82bb:	48 ff ce             	dec    rsi
    82be:	48 ff ce             	dec    rsi
    82c1:	48 ff ce             	dec    rsi
    82c4:	48 ff ce             	dec    rsi
    82c7:	48 ff ce             	dec    rsi
    82ca:	48 ff ce             	dec    rsi
    82cd:	48 ff ce             	dec    rsi
    82d0:	48 ff ce             	dec    rsi
    82d3:	48 ff ce             	dec    rsi
    82d6:	e9 b7 ff ff ff       	jmp    0x8292
    82db:	48 ff c6             	inc    rsi
    82de:	48 ff c6             	inc    rsi
    82e1:	48 ff c6             	inc    rsi
    82e4:	48 ff c6             	inc    rsi
    82e7:	48 ff c6             	inc    rsi
    82ea:	48 ff c6             	inc    rsi
    82ed:	48 ff c6             	inc    rsi
    82f0:	48 ff c6             	inc    rsi
    82f3:	48 ff c6             	inc    rsi
    82f6:	e9 8b ff ff ff       	jmp    0x8286
    82fb:	48 ff c6             	inc    rsi
    82fe:	48 ff c6             	inc    rsi
    8301:	48 ff c6             	inc    rsi
    8304:	48 ff c6             	inc    rsi
    8307:	fe 06                	inc    BYTE PTR [rsi]
    8309:	48 ff ce             	dec    rsi
    830c:	48 ff ce             	dec    rsi
    830f:	48 ff ce             	dec    rsi
    8312:	48 ff ce             	dec    rsi
    8315:	48 ff ce             	dec    rsi
    8318:	8a 06                	mov    al,BYTE PTR [rsi]
    831a:	84 c0                	test   al,al
    831c:	0f 84 20 00 00 00    	je     0x8342
    8322:	48 ff ce             	dec    rsi
    8325:	48 ff ce             	dec    rsi
    8328:	48 ff ce             	dec    rsi
    832b:	48 ff ce             	dec    rsi
    832e:	48 ff ce             	dec    rsi
    8331:	48 ff ce             	dec    rsi
    8334:	48 ff ce             	dec    rsi
    8337:	48 ff ce             	dec    rsi
    833a:	48 ff ce             	dec    rsi
    833d:	e9 d6 ff ff ff       	jmp    0x8318
    8342:	48 ff c6             	inc    rsi
    8345:	48 ff c6             	inc    rsi
    8348:	48 ff c6             	inc    rsi
    834b:	48 ff c6             	inc    rsi
    834e:	48 ff c6             	inc    rsi
    8351:	48 ff c6             	inc    rsi
    8354:	48 ff c6             	inc    rsi
    8357:	48 ff c6             	inc    rsi
    835a:	48 ff c6             	inc    rsi
    835d:	8a 06                	mov    al,BYTE PTR [rsi]
    835f:	84 c0                	test   al,al
    8361:	0f 84 e5 03 00 00    	je     0x874c
    8367:	48 ff c6             	inc    rsi
    836a:	48 ff c6             	inc    rsi
    836d:	48 ff c6             	inc    rsi
    8370:	48 ff c6             	inc    rsi
    8373:	48 ff c6             	inc    rsi
    8376:	8a 06                	mov    al,BYTE PTR [rsi]
    8378:	84 c0                	test   al,al
    837a:	0f 84 27 00 00 00    	je     0x83a7
    8380:	fe 0e                	dec    BYTE PTR [rsi]
    8382:	48 ff ce             	dec    rsi
    8385:	48 ff ce             	dec    rsi
    8388:	48 ff ce             	dec    rsi
    838b:	48 ff ce             	dec    rsi
    838e:	48 ff ce             	dec    rsi
    8391:	fe 0e                	dec    BYTE PTR [rsi]
    8393:	48 ff c6             	inc    rsi
    8396:	48 ff c6             	inc    rsi
    8399:	48 ff c6             	inc    rsi
    839c:	48 ff c6             	inc    rsi
    839f:	48 ff c6             	inc    rsi
    83a2:	e9 cf ff ff ff       	jmp    0x8376
    83a7:	fe 06                	inc    BYTE PTR [rsi]
    83a9:	48 ff ce             	dec    rsi
    83ac:	48 ff ce             	dec    rsi
    83af:	48 ff ce             	dec    rsi
    83b2:	48 ff ce             	dec    rsi
    83b5:	48 ff ce             	dec    rsi
    83b8:	8a 06                	mov    al,BYTE PTR [rsi]
    83ba:	84 c0                	test   al,al
    83bc:	0f 84 52 01 00 00    	je     0x8514
    83c2:	fe 0e                	dec    BYTE PTR [rsi]
    83c4:	48 ff c6             	inc    rsi
    83c7:	48 ff c6             	inc    rsi
    83ca:	48 ff c6             	inc    rsi
    83cd:	48 ff c6             	inc    rsi
    83d0:	48 ff c6             	inc    rsi
    83d3:	fe 0e                	dec    BYTE PTR [rsi]
    83d5:	48 ff c6             	inc    rsi
    83d8:	48 ff c6             	inc    rsi
    83db:	8a 06                	mov    al,BYTE PTR [rsi]
    83dd:	84 c0                	test   al,al
    83df:	0f 84 33 00 00 00    	je     0x8418
    83e5:	fe 0e                	dec    BYTE PTR [rsi]
    83e7:	48 ff ce             	dec    rsi
    83ea:	48 ff ce             	dec    rsi
    83ed:	48 ff ce             	dec    rsi
    83f0:	48 ff ce             	dec    rsi
    83f3:	48 ff ce             	dec    rsi
    83f6:	48 ff ce             	dec    rsi
    83f9:	48 ff ce             	dec    rsi
    83fc:	fe 06                	inc    BYTE PTR [rsi]
    83fe:	48 ff c6             	inc    rsi
    8401:	48 ff c6             	inc    rsi
    8404:	48 ff c6             	inc    rsi
    8407:	48 ff c6             	inc    rsi
    840a:	48 ff c6             	inc    rsi
    840d:	48 ff c6             	inc    rsi
    8410:	48 ff c6             	inc    rsi
    8413:	e9 c3 ff ff ff       	jmp    0x83db
    8418:	48 ff ce             	dec    rsi
    841b:	48 ff ce             	dec    rsi
    841e:	48 ff ce             	dec    rsi
    8421:	48 ff ce             	dec    rsi
    8424:	48 ff ce             	dec    rsi
    8427:	48 ff ce             	dec    rsi
    842a:	48 ff ce             	dec    rsi
    842d:	8a 06                	mov    al,BYTE PTR [rsi]
    842f:	84 c0                	test   al,al
    8431:	0f 84 d8 00 00 00    	je     0x850f
    8437:	fe 0e                	dec    BYTE PTR [rsi]
    8439:	48 ff c6             	inc    rsi
    843c:	48 ff c6             	inc    rsi
    843f:	48 ff c6             	inc    rsi
    8442:	48 ff c6             	inc    rsi
    8445:	48 ff c6             	inc    rsi
    8448:	48 ff c6             	inc    rsi
    844b:	48 ff c6             	inc    rsi
    844e:	fe 06                	inc    BYTE PTR [rsi]
    8450:	48 ff ce             	dec    rsi
    8453:	48 ff ce             	dec    rsi
    8456:	48 ff ce             	dec    rsi
    8459:	48 ff ce             	dec    rsi
    845c:	48 ff ce             	dec    rsi
    845f:	48 ff ce             	dec    rsi
    8462:	48 ff ce             	dec    rsi
    8465:	48 ff ce             	dec    rsi
    8468:	48 ff ce             	dec    rsi
    846b:	48 ff ce             	dec    rsi
    846e:	48 ff ce             	dec    rsi
    8471:	48 ff ce             	dec    rsi
    8474:	48 ff ce             	dec    rsi
    8477:	48 ff ce             	dec    rsi
    847a:	48 ff ce             	dec    rsi
    847d:	48 ff ce             	dec    rsi
    8480:	8a 06                	mov    al,BYTE PTR [rsi]
    8482:	84 c0                	test   al,al
    8484:	0f 84 20 00 00 00    	je     0x84aa
    848a:	48 ff ce             	dec    rsi
    848d:	48 ff ce             	dec    rsi
    8490:	48 ff ce             	dec    rsi
    8493:	48 ff ce             	dec    rsi
    8496:	48 ff ce             	dec    rsi
    8499:	48 ff ce             	dec    rsi
    849c:	48 ff ce             	dec    rsi
    849f:	48 ff ce             	dec    rsi
    84a2:	48 ff ce             	dec    rsi
    84a5:	e9 d6 ff ff ff       	jmp    0x8480
    84aa:	48 ff c6             	inc    rsi
    84ad:	48 ff c6             	inc    rsi
    84b0:	48 ff c6             	inc    rsi
    84b3:	48 ff c6             	inc    rsi
    84b6:	8a 06                	mov    al,BYTE PTR [rsi]
    84b8:	84 c0                	test   al,al
    84ba:	0f 84 07 00 00 00    	je     0x84c7
    84c0:	fe 0e                	dec    BYTE PTR [rsi]
    84c2:	e9 ef ff ff ff       	jmp    0x84b6
    84c7:	fe 06                	inc    BYTE PTR [rsi]
    84c9:	48 ff c6             	inc    rsi
    84cc:	48 ff c6             	inc    rsi
    84cf:	48 ff c6             	inc    rsi
    84d2:	48 ff c6             	inc    rsi
    84d5:	48 ff c6             	inc    rsi
    84d8:	8a 06                	mov    al,BYTE PTR [rsi]
    84da:	84 c0                	test   al,al
    84dc:	0f 84 20 00 00 00    	je     0x8502
    84e2:	48 ff c6             	inc    rsi
    84e5:	48 ff c6             	inc    rsi
    84e8:	48 ff c6             	inc    rsi
    84eb:	48 ff c6             	inc    rsi
    84ee:	48 ff c6             	inc    rsi
    84f1:	48 ff c6             	inc    rsi
    84f4:	48 ff c6             	inc    rsi
    84f7:	48 ff c6             	inc    rsi
    84fa:	48 ff c6             	inc    rsi
    84fd:	e9 d6 ff ff ff       	jmp    0x84d8
    8502:	48 ff c6             	inc    rsi
    8505:	fe 06                	inc    BYTE PTR [rsi]
    8507:	48 ff ce             	dec    rsi
    850a:	e9 1e ff ff ff       	jmp    0x842d
    850f:	e9 a4 fe ff ff       	jmp    0x83b8
    8514:	fe 06                	inc    BYTE PTR [rsi]
    8516:	48 ff c6             	inc    rsi
    8519:	48 ff c6             	inc    rsi
    851c:	48 ff c6             	inc    rsi
    851f:	48 ff c6             	inc    rsi
    8522:	48 ff c6             	inc    rsi
    8525:	48 ff c6             	inc    rsi
    8528:	48 ff c6             	inc    rsi
    852b:	8a 06                	mov    al,BYTE PTR [rsi]
    852d:	84 c0                	test   al,al
    852f:	0f 84 33 00 00 00    	je     0x8568
    8535:	fe 0e                	dec    BYTE PTR [rsi]
    8537:	48 ff ce             	dec    rsi
    853a:	48 ff ce             	dec    rsi
    853d:	48 ff ce             	dec    rsi
    8540:	48 ff ce             	dec    rsi
    8543:	48 ff ce             	dec    rsi
    8546:	48 ff ce             	dec    rsi
    8549:	48 ff ce             	dec    rsi
    854c:	fe 0e                	dec    BYTE PTR [rsi]
    854e:	48 ff c6             	inc    rsi
    8551:	48 ff c6             	inc    rsi
    8554:	48 ff c6             	inc    rsi
    8557:	48 ff c6             	inc    rsi
    855a:	48 ff c6             	inc    rsi
    855d:	48 ff c6             	inc    rsi
    8560:	48 ff c6             	inc    rsi
    8563:	e9 c3 ff ff ff       	jmp    0x852b
    8568:	fe 06                	inc    BYTE PTR [rsi]
    856a:	48 ff ce             	dec    rsi
    856d:	48 ff ce             	dec    rsi
    8570:	48 ff ce             	dec    rsi
    8573:	48 ff ce             	dec    rsi
    8576:	48 ff ce             	dec    rsi
    8579:	48 ff ce             	dec    rsi
    857c:	48 ff ce             	dec    rsi
    857f:	8a 06                	mov    al,BYTE PTR [rsi]
    8581:	84 c0                	test   al,al
    8583:	0f 84 4b 01 00 00    	je     0x86d4
    8589:	fe 0e                	dec    BYTE PTR [rsi]
    858b:	48 ff c6             	inc    rsi
    858e:	48 ff c6             	inc    rsi
    8591:	48 ff c6             	inc    rsi
    8594:	48 ff c6             	inc    rsi
    8597:	48 ff c6             	inc    rsi
    859a:	48 ff c6             	inc    rsi
    859d:	48 ff c6             	inc    rsi
    85a0:	fe 0e                	dec    BYTE PTR [rsi]
    85a2:	48 ff ce             	dec    rsi
    85a5:	48 ff ce             	dec    rsi
    85a8:	8a 06                	mov    al,BYTE PTR [rsi]
    85aa:	84 c0                	test   al,al
    85ac:	0f 84 27 00 00 00    	je     0x85d9
    85b2:	fe 0e                	dec    BYTE PTR [rsi]
    85b4:	48 ff ce             	dec    rsi
    85b7:	48 ff ce             	dec    rsi
    85ba:	48 ff ce             	dec    rsi
    85bd:	48 ff ce             	dec    rsi
    85c0:	48 ff ce             	dec    rsi
    85c3:	fe 06                	inc    BYTE PTR [rsi]
    85c5:	48 ff c6             	inc    rsi
    85c8:	48 ff c6             	inc    rsi
    85cb:	48 ff c6             	inc    rsi
    85ce:	48 ff c6             	inc    rsi
    85d1:	48 ff c6             	inc    rsi
    85d4:	e9 cf ff ff ff       	jmp    0x85a8
    85d9:	48 ff ce             	dec    rsi
    85dc:	48 ff ce             	dec    rsi
    85df:	48 ff ce             	dec    rsi
    85e2:	48 ff ce             	dec    rsi
    85e5:	48 ff ce             	dec    rsi
    85e8:	8a 06                	mov    al,BYTE PTR [rsi]
    85ea:	84 c0                	test   al,al
    85ec:	0f 84 dd 00 00 00    	je     0x86cf
    85f2:	fe 0e                	dec    BYTE PTR [rsi]
    85f4:	48 ff c6             	inc    rsi
    85f7:	48 ff c6             	inc    rsi
    85fa:	48 ff c6             	inc    rsi
    85fd:	48 ff c6             	inc    rsi
    8600:	48 ff c6             	inc    rsi
    8603:	fe 06                	inc    BYTE PTR [rsi]
    8605:	48 ff ce             	dec    rsi
    8608:	48 ff ce             	dec    rsi
    860b:	48 ff ce             	dec    rsi
    860e:	48 ff ce             	dec    rsi
    8611:	48 ff ce             	dec    rsi
    8614:	48 ff ce             	dec    rsi
    8617:	48 ff ce             	dec    rsi
    861a:	48 ff ce             	dec    rsi
    861d:	48 ff ce             	dec    rsi
    8620:	48 ff ce             	dec    rsi
    8623:	48 ff ce             	dec    rsi
    8626:	48 ff ce             	dec    rsi
    8629:	48 ff ce             	dec    rsi
    862c:	48 ff ce             	dec    rsi
    862f:	8a 06                	mov    al,BYTE PTR [rsi]
    8631:	84 c0                	test   al,al
    8633:	0f 84 20 00 00 00    	je     0x8659
    8639:	48 ff ce             	dec    rsi
    863c:	48 ff ce             	dec    rsi
    863f:	48 ff ce             	dec    rsi
    8642:	48 ff ce             	dec    rsi
    8645:	48 ff ce             	dec    rsi
    8648:	48 ff ce             	dec    rsi
    864b:	48 ff ce             	dec    rsi
    864e:	48 ff ce             	dec    rsi
    8651:	48 ff ce             	dec    rsi
    8654:	e9 d6 ff ff ff       	jmp    0x862f
    8659:	48 ff c6             	inc    rsi
    865c:	48 ff c6             	inc    rsi
    865f:	48 ff c6             	inc    rsi
    8662:	8a 06                	mov    al,BYTE PTR [rsi]
    8664:	84 c0                	test   al,al
    8666:	0f 84 07 00 00 00    	je     0x8673
    866c:	fe 0e                	dec    BYTE PTR [rsi]
    866e:	e9 ef ff ff ff       	jmp    0x8662
    8673:	fe 06                	inc    BYTE PTR [rsi]
    8675:	48 ff c6             	inc    rsi
    8678:	48 ff c6             	inc    rsi
    867b:	48 ff c6             	inc    rsi
    867e:	48 ff c6             	inc    rsi
    8681:	48 ff c6             	inc    rsi
    8684:	48 ff c6             	inc    rsi
    8687:	8a 06                	mov    al,BYTE PTR [rsi]
    8689:	84 c0                	test   al,al
    868b:	0f 84 20 00 00 00    	je     0x86b1
    8691:	48 ff c6             	inc    rsi
    8694:	48 ff c6             	inc    rsi
    8697:	48 ff c6             	inc    rsi
    869a:	48 ff c6             	inc    rsi
    869d:	48 ff c6             	inc    rsi
    86a0:	48 ff c6             	inc    rsi
    86a3:	48 ff c6             	inc    rsi
    86a6:	48 ff c6             	inc    rsi
    86a9:	48 ff c6             	inc    rsi
    86ac:	e9 d6 ff ff ff       	jmp    0x8687
    86b1:	48 ff c6             	inc    rsi
    86b4:	8a 06                	mov    al,BYTE PTR [rsi]
    86b6:	84 c0                	test   al,al
    86b8:	0f 84 07 00 00 00    	je     0x86c5
    86be:	fe 0e                	dec    BYTE PTR [rsi]
    86c0:	e9 ef ff ff ff       	jmp    0x86b4
    86c5:	fe 06                	inc    BYTE PTR [rsi]
    86c7:	48 ff ce             	dec    rsi
    86ca:	e9 19 ff ff ff       	jmp    0x85e8
    86cf:	e9 ab fe ff ff       	jmp    0x857f
    86d4:	fe 06                	inc    BYTE PTR [rsi]
    86d6:	48 ff c6             	inc    rsi
    86d9:	8a 06                	mov    al,BYTE PTR [rsi]
    86db:	84 c0                	test   al,al
    86dd:	0f 84 4c 00 00 00    	je     0x872f
    86e3:	fe 0e                	dec    BYTE PTR [rsi]
    86e5:	48 ff ce             	dec    rsi
    86e8:	8a 06                	mov    al,BYTE PTR [rsi]
    86ea:	84 c0                	test   al,al
    86ec:	0f 84 20 00 00 00    	je     0x8712
    86f2:	48 ff c6             	inc    rsi
    86f5:	48 ff c6             	inc    rsi
    86f8:	48 ff c6             	inc    rsi
    86fb:	48 ff c6             	inc    rsi
    86fe:	48 ff c6             	inc    rsi
    8701:	48 ff c6             	inc    rsi
    8704:	48 ff c6             	inc    rsi
    8707:	48 ff c6             	inc    rsi
    870a:	48 ff c6             	inc    rsi
    870d:	e9 d6 ff ff ff       	jmp    0x86e8
    8712:	48 ff ce             	dec    rsi
    8715:	48 ff ce             	dec    rsi
    8718:	48 ff ce             	dec    rsi
    871b:	48 ff ce             	dec    rsi
    871e:	48 ff ce             	dec    rsi
    8721:	48 ff ce             	dec    rsi
    8724:	48 ff ce             	dec    rsi
    8727:	48 ff ce             	dec    rsi
    872a:	e9 aa ff ff ff       	jmp    0x86d9
    872f:	48 ff c6             	inc    rsi
    8732:	48 ff c6             	inc    rsi
    8735:	48 ff c6             	inc    rsi
    8738:	48 ff c6             	inc    rsi
    873b:	48 ff c6             	inc    rsi
    873e:	48 ff c6             	inc    rsi
    8741:	48 ff c6             	inc    rsi
    8744:	48 ff c6             	inc    rsi
    8747:	e9 11 fc ff ff       	jmp    0x835d
    874c:	48 ff ce             	dec    rsi
    874f:	48 ff ce             	dec    rsi
    8752:	48 ff ce             	dec    rsi
    8755:	48 ff ce             	dec    rsi
    8758:	48 ff ce             	dec    rsi
    875b:	48 ff ce             	dec    rsi
    875e:	48 ff ce             	dec    rsi
    8761:	48 ff ce             	dec    rsi
    8764:	48 ff ce             	dec    rsi
    8767:	8a 06                	mov    al,BYTE PTR [rsi]
    8769:	84 c0                	test   al,al
    876b:	0f 84 20 00 00 00    	je     0x8791
    8771:	48 ff ce             	dec    rsi
    8774:	48 ff ce             	dec    rsi
    8777:	48 ff ce             	dec    rsi
    877a:	48 ff ce             	dec    rsi
    877d:	48 ff ce             	dec    rsi
    8780:	48 ff ce             	dec    rsi
    8783:	48 ff ce             	dec    rsi
    8786:	48 ff ce             	dec    rsi
    8789:	48 ff ce             	dec    rsi
    878c:	e9 d6 ff ff ff       	jmp    0x8767
    8791:	48 ff c6             	inc    rsi
    8794:	48 ff c6             	inc    rsi
    8797:	48 ff c6             	inc    rsi
    879a:	48 ff c6             	inc    rsi
    879d:	8a 06                	mov    al,BYTE PTR [rsi]
    879f:	84 c0                	test   al,al
    87a1:	0f 84 07 00 00 00    	je     0x87ae
    87a7:	fe 0e                	dec    BYTE PTR [rsi]
    87a9:	e9 ef ff ff ff       	jmp    0x879d
    87ae:	48 ff ce             	dec    rsi
    87b1:	48 ff ce             	dec    rsi
    87b4:	48 ff ce             	dec    rsi
    87b7:	fe 06                	inc    BYTE PTR [rsi]
    87b9:	fe 06                	inc    BYTE PTR [rsi]
    87bb:	fe 06                	inc    BYTE PTR [rsi]
    87bd:	fe 06                	inc    BYTE PTR [rsi]
    87bf:	fe 06                	inc    BYTE PTR [rsi]
    87c1:	8a 06                	mov    al,BYTE PTR [rsi]
    87c3:	84 c0                	test   al,al
    87c5:	0f 84 6b 00 00 00    	je     0x8836
    87cb:	fe 0e                	dec    BYTE PTR [rsi]
    87cd:	8a 06                	mov    al,BYTE PTR [rsi]
    87cf:	84 c0                	test   al,al
    87d1:	0f 84 3f 00 00 00    	je     0x8816
    87d7:	fe 0e                	dec    BYTE PTR [rsi]
    87d9:	48 ff c6             	inc    rsi
    87dc:	48 ff c6             	inc    rsi
    87df:	48 ff c6             	inc    rsi
    87e2:	48 ff c6             	inc    rsi
    87e5:	48 ff c6             	inc    rsi
    87e8:	48 ff c6             	inc    rsi
    87eb:	48 ff c6             	inc    rsi
    87ee:	48 ff c6             	inc    rsi
    87f1:	48 ff c6             	inc    rsi
    87f4:	fe 06                	inc    BYTE PTR [rsi]
    87f6:	48 ff ce             	dec    rsi
    87f9:	48 ff ce             	dec    rsi
    87fc:	48 ff ce             	dec    rsi
    87ff:	48 ff ce             	dec    rsi
    8802:	48 ff ce             	dec    rsi
    8805:	48 ff ce             	dec    rsi
    8808:	48 ff ce             	dec    rsi
    880b:	48 ff ce             	dec    rsi
    880e:	48 ff ce             	dec    rsi
    8811:	e9 b7 ff ff ff       	jmp    0x87cd
    8816:	48 ff c6             	inc    rsi
    8819:	48 ff c6             	inc    rsi
    881c:	48 ff c6             	inc    rsi
    881f:	48 ff c6             	inc    rsi
    8822:	48 ff c6             	inc    rsi
    8825:	48 ff c6             	inc    rsi
    8828:	48 ff c6             	inc    rsi
    882b:	48 ff c6             	inc    rsi
    882e:	48 ff c6             	inc    rsi
    8831:	e9 8b ff ff ff       	jmp    0x87c1
    8836:	48 ff c6             	inc    rsi
    8839:	48 ff c6             	inc    rsi
    883c:	48 ff c6             	inc    rsi
    883f:	48 ff c6             	inc    rsi
    8842:	fe 0e                	dec    BYTE PTR [rsi]
    8844:	48 ff ce             	dec    rsi
    8847:	48 ff ce             	dec    rsi
    884a:	48 ff ce             	dec    rsi
    884d:	48 ff ce             	dec    rsi
    8850:	48 ff ce             	dec    rsi
    8853:	8a 06                	mov    al,BYTE PTR [rsi]
    8855:	84 c0                	test   al,al
    8857:	0f 84 20 00 00 00    	je     0x887d
    885d:	48 ff ce             	dec    rsi
    8860:	48 ff ce             	dec    rsi
    8863:	48 ff ce             	dec    rsi
    8866:	48 ff ce             	dec    rsi
    8869:	48 ff ce             	dec    rsi
    886c:	48 ff ce             	dec    rsi
    886f:	48 ff ce             	dec    rsi
    8872:	48 ff ce             	dec    rsi
    8875:	48 ff ce             	dec    rsi
    8878:	e9 d6 ff ff ff       	jmp    0x8853
    887d:	e9 3b f8 ff ff       	jmp    0x80bd
    8882:	48 ff c6             	inc    rsi
    8885:	48 ff c6             	inc    rsi
    8888:	48 ff c6             	inc    rsi
    888b:	e9 6e 7d ff ff       	jmp    0x5fe
    8890:	48 ff ce             	dec    rsi
    8893:	48 ff ce             	dec    rsi
    8896:	48 ff ce             	dec    rsi
    8899:	48 ff ce             	dec    rsi
    889c:	48 8b 0e             	mov    rcx,QWORD PTR [rsi]
    889f:	41 ff d4             	call   r12
    88a2:	48 ff c6             	inc    rsi
    88a5:	48 ff c6             	inc    rsi
    88a8:	48 ff c6             	inc    rsi
    88ab:	48 ff c6             	inc    rsi
    88ae:	48 ff c6             	inc    rsi
    88b1:	48 ff c6             	inc    rsi
    88b4:	48 ff c6             	inc    rsi
    88b7:	48 ff c6             	inc    rsi
    88ba:	48 ff c6             	inc    rsi
    88bd:	48 ff c6             	inc    rsi
    88c0:	8a 06                	mov    al,BYTE PTR [rsi]
    88c2:	84 c0                	test   al,al
    88c4:	0f 84 31 00 00 00    	je     0x88fb
    88ca:	48 ff c6             	inc    rsi
    88cd:	48 ff c6             	inc    rsi
    88d0:	48 ff c6             	inc    rsi
    88d3:	48 ff c6             	inc    rsi
    88d6:	48 ff c6             	inc    rsi
    88d9:	48 ff c6             	inc    rsi
    88dc:	8a 06                	mov    al,BYTE PTR [rsi]
    88de:	84 c0                	test   al,al
    88e0:	0f 84 07 00 00 00    	je     0x88ed
    88e6:	fe 0e                	dec    BYTE PTR [rsi]
    88e8:	e9 ef ff ff ff       	jmp    0x88dc
    88ed:	48 ff c6             	inc    rsi
    88f0:	48 ff c6             	inc    rsi
    88f3:	48 ff c6             	inc    rsi
    88f6:	e9 c5 ff ff ff       	jmp    0x88c0
    88fb:	48 ff ce             	dec    rsi
    88fe:	48 ff ce             	dec    rsi
    8901:	48 ff ce             	dec    rsi
    8904:	48 ff ce             	dec    rsi
    8907:	48 ff ce             	dec    rsi
    890a:	48 ff ce             	dec    rsi
    890d:	48 ff ce             	dec    rsi
    8910:	48 ff ce             	dec    rsi
    8913:	48 ff ce             	dec    rsi
    8916:	8a 06                	mov    al,BYTE PTR [rsi]
    8918:	84 c0                	test   al,al
    891a:	0f 84 20 00 00 00    	je     0x8940
    8920:	48 ff ce             	dec    rsi
    8923:	48 ff ce             	dec    rsi
    8926:	48 ff ce             	dec    rsi
    8929:	48 ff ce             	dec    rsi
    892c:	48 ff ce             	dec    rsi
    892f:	48 ff ce             	dec    rsi
    8932:	48 ff ce             	dec    rsi
    8935:	48 ff ce             	dec    rsi
    8938:	48 ff ce             	dec    rsi
    893b:	e9 d6 ff ff ff       	jmp    0x8916
    8940:	48 ff c6             	inc    rsi
    8943:	fe 06                	inc    BYTE PTR [rsi]
    8945:	fe 06                	inc    BYTE PTR [rsi]
    8947:	fe 06                	inc    BYTE PTR [rsi]
    8949:	fe 06                	inc    BYTE PTR [rsi]
    894b:	fe 06                	inc    BYTE PTR [rsi]
    894d:	fe 06                	inc    BYTE PTR [rsi]
    894f:	fe 06                	inc    BYTE PTR [rsi]
    8951:	fe 06                	inc    BYTE PTR [rsi]
    8953:	fe 06                	inc    BYTE PTR [rsi]
    8955:	fe 06                	inc    BYTE PTR [rsi]
    8957:	8a 06                	mov    al,BYTE PTR [rsi]
    8959:	84 c0                	test   al,al
    895b:	0f 84 6b 00 00 00    	je     0x89cc
    8961:	fe 0e                	dec    BYTE PTR [rsi]
    8963:	8a 06                	mov    al,BYTE PTR [rsi]
    8965:	84 c0                	test   al,al
    8967:	0f 84 3f 00 00 00    	je     0x89ac
    896d:	fe 0e                	dec    BYTE PTR [rsi]
    896f:	48 ff c6             	inc    rsi
    8972:	48 ff c6             	inc    rsi
    8975:	48 ff c6             	inc    rsi
    8978:	48 ff c6             	inc    rsi
    897b:	48 ff c6             	inc    rsi
    897e:	48 ff c6             	inc    rsi
    8981:	48 ff c6             	inc    rsi
    8984:	48 ff c6             	inc    rsi
    8987:	48 ff c6             	inc    rsi
    898a:	fe 06                	inc    BYTE PTR [rsi]
    898c:	48 ff ce             	dec    rsi
    898f:	48 ff ce             	dec    rsi
    8992:	48 ff ce             	dec    rsi
    8995:	48 ff ce             	dec    rsi
    8998:	48 ff ce             	dec    rsi
    899b:	48 ff ce             	dec    rsi
    899e:	48 ff ce             	dec    rsi
    89a1:	48 ff ce             	dec    rsi
    89a4:	48 ff ce             	dec    rsi
    89a7:	e9 b7 ff ff ff       	jmp    0x8963
    89ac:	48 ff c6             	inc    rsi
    89af:	48 ff c6             	inc    rsi
    89b2:	48 ff c6             	inc    rsi
    89b5:	48 ff c6             	inc    rsi
    89b8:	48 ff c6             	inc    rsi
    89bb:	48 ff c6             	inc    rsi
    89be:	48 ff c6             	inc    rsi
    89c1:	48 ff c6             	inc    rsi
    89c4:	48 ff c6             	inc    rsi
    89c7:	e9 8b ff ff ff       	jmp    0x8957
    89cc:	48 ff c6             	inc    rsi
    89cf:	48 ff c6             	inc    rsi
    89d2:	48 ff c6             	inc    rsi
    89d5:	48 ff c6             	inc    rsi
    89d8:	48 ff c6             	inc    rsi
    89db:	fe 06                	inc    BYTE PTR [rsi]
    89dd:	48 ff c6             	inc    rsi
    89e0:	48 ff c6             	inc    rsi
    89e3:	48 ff c6             	inc    rsi
    89e6:	48 ff c6             	inc    rsi
    89e9:	48 ff c6             	inc    rsi
    89ec:	48 ff c6             	inc    rsi
    89ef:	48 ff c6             	inc    rsi
    89f2:	48 ff c6             	inc    rsi
    89f5:	48 ff c6             	inc    rsi
    89f8:	fe 06                	inc    BYTE PTR [rsi]
    89fa:	48 ff ce             	dec    rsi
    89fd:	48 ff ce             	dec    rsi
    8a00:	48 ff ce             	dec    rsi
    8a03:	48 ff ce             	dec    rsi
    8a06:	48 ff ce             	dec    rsi
    8a09:	48 ff ce             	dec    rsi
    8a0c:	48 ff ce             	dec    rsi
    8a0f:	48 ff ce             	dec    rsi
    8a12:	48 ff ce             	dec    rsi
    8a15:	48 ff ce             	dec    rsi
    8a18:	48 ff ce             	dec    rsi
    8a1b:	48 ff ce             	dec    rsi
    8a1e:	48 ff ce             	dec    rsi
    8a21:	48 ff ce             	dec    rsi
    8a24:	48 ff ce             	dec    rsi
    8a27:	8a 06                	mov    al,BYTE PTR [rsi]
    8a29:	84 c0                	test   al,al
    8a2b:	0f 84 20 00 00 00    	je     0x8a51
    8a31:	48 ff ce             	dec    rsi
    8a34:	48 ff ce             	dec    rsi
    8a37:	48 ff ce             	dec    rsi
    8a3a:	48 ff ce             	dec    rsi
    8a3d:	48 ff ce             	dec    rsi
    8a40:	48 ff ce             	dec    rsi
    8a43:	48 ff ce             	dec    rsi
    8a46:	48 ff ce             	dec    rsi
    8a49:	48 ff ce             	dec    rsi
    8a4c:	e9 d6 ff ff ff       	jmp    0x8a27
    8a51:	48 ff c6             	inc    rsi
    8a54:	48 ff c6             	inc    rsi
    8a57:	48 ff c6             	inc    rsi
    8a5a:	48 ff c6             	inc    rsi
    8a5d:	48 ff c6             	inc    rsi
    8a60:	48 ff c6             	inc    rsi
    8a63:	48 ff c6             	inc    rsi
    8a66:	48 ff c6             	inc    rsi
    8a69:	8a 06                	mov    al,BYTE PTR [rsi]
    8a6b:	84 c0                	test   al,al
    8a6d:	0f 84 39 00 00 00    	je     0x8aac
    8a73:	fe 0e                	dec    BYTE PTR [rsi]
    8a75:	48 ff ce             	dec    rsi
    8a78:	48 ff ce             	dec    rsi
    8a7b:	48 ff ce             	dec    rsi
    8a7e:	48 ff ce             	dec    rsi
    8a81:	48 ff ce             	dec    rsi
    8a84:	48 ff ce             	dec    rsi
    8a87:	48 ff ce             	dec    rsi
    8a8a:	48 ff ce             	dec    rsi
    8a8d:	fe 06                	inc    BYTE PTR [rsi]
    8a8f:	48 ff c6             	inc    rsi
    8a92:	48 ff c6             	inc    rsi
    8a95:	48 ff c6             	inc    rsi
    8a98:	48 ff c6             	inc    rsi
    8a9b:	48 ff c6             	inc    rsi
    8a9e:	48 ff c6             	inc    rsi
    8aa1:	48 ff c6             	inc    rsi
    8aa4:	48 ff c6             	inc    rsi
    8aa7:	e9 bd ff ff ff       	jmp    0x8a69
    8aac:	48 ff ce             	dec    rsi
    8aaf:	48 ff ce             	dec    rsi
    8ab2:	48 ff ce             	dec    rsi
    8ab5:	48 ff ce             	dec    rsi
    8ab8:	48 ff ce             	dec    rsi
    8abb:	48 ff ce             	dec    rsi
    8abe:	48 ff ce             	dec    rsi
    8ac1:	48 ff ce             	dec    rsi
    8ac4:	8a 06                	mov    al,BYTE PTR [rsi]
    8ac6:	84 c0                	test   al,al
    8ac8:	0f 84 ac 01 00 00    	je     0x8c7a
    8ace:	fe 0e                	dec    BYTE PTR [rsi]
    8ad0:	48 ff c6             	inc    rsi
    8ad3:	48 ff c6             	inc    rsi
    8ad6:	48 ff c6             	inc    rsi
    8ad9:	48 ff c6             	inc    rsi
    8adc:	48 ff c6             	inc    rsi
    8adf:	48 ff c6             	inc    rsi
    8ae2:	48 ff c6             	inc    rsi
    8ae5:	48 ff c6             	inc    rsi
    8ae8:	fe 06                	inc    BYTE PTR [rsi]
    8aea:	8a 06                	mov    al,BYTE PTR [rsi]
    8aec:	84 c0                	test   al,al
    8aee:	0f 84 07 00 00 00    	je     0x8afb
    8af4:	fe 0e                	dec    BYTE PTR [rsi]
    8af6:	e9 ef ff ff ff       	jmp    0x8aea
    8afb:	48 ff c6             	inc    rsi
    8afe:	8a 06                	mov    al,BYTE PTR [rsi]
    8b00:	84 c0                	test   al,al
    8b02:	0f 84 20 00 00 00    	je     0x8b28
    8b08:	48 ff c6             	inc    rsi
    8b0b:	48 ff c6             	inc    rsi
    8b0e:	48 ff c6             	inc    rsi
    8b11:	48 ff c6             	inc    rsi
    8b14:	48 ff c6             	inc    rsi
    8b17:	48 ff c6             	inc    rsi
    8b1a:	48 ff c6             	inc    rsi
    8b1d:	48 ff c6             	inc    rsi
    8b20:	48 ff c6             	inc    rsi
    8b23:	e9 d6 ff ff ff       	jmp    0x8afe
    8b28:	48 ff ce             	dec    rsi
    8b2b:	48 ff ce             	dec    rsi
    8b2e:	48 ff ce             	dec    rsi
    8b31:	48 ff ce             	dec    rsi
    8b34:	48 ff ce             	dec    rsi
    8b37:	48 ff ce             	dec    rsi
    8b3a:	48 ff ce             	dec    rsi
    8b3d:	48 ff ce             	dec    rsi
    8b40:	48 ff ce             	dec    rsi
    8b43:	8a 06                	mov    al,BYTE PTR [rsi]
    8b45:	84 c0                	test   al,al
    8b47:	0f 84 28 01 00 00    	je     0x8c75
    8b4d:	48 ff c6             	inc    rsi
    8b50:	48 ff c6             	inc    rsi
    8b53:	48 ff c6             	inc    rsi
    8b56:	48 ff c6             	inc    rsi
    8b59:	48 ff c6             	inc    rsi
    8b5c:	48 ff c6             	inc    rsi
    8b5f:	48 ff c6             	inc    rsi
    8b62:	48 ff c6             	inc    rsi
    8b65:	8a 06                	mov    al,BYTE PTR [rsi]
    8b67:	84 c0                	test   al,al
    8b69:	0f 84 33 00 00 00    	je     0x8ba2
    8b6f:	fe 0e                	dec    BYTE PTR [rsi]
    8b71:	48 ff ce             	dec    rsi
    8b74:	48 ff ce             	dec    rsi
    8b77:	48 ff ce             	dec    rsi
    8b7a:	48 ff ce             	dec    rsi
    8b7d:	48 ff ce             	dec    rsi
    8b80:	48 ff ce             	dec    rsi
    8b83:	48 ff ce             	dec    rsi
    8b86:	fe 06                	inc    BYTE PTR [rsi]
    8b88:	48 ff c6             	inc    rsi
    8b8b:	48 ff c6             	inc    rsi
    8b8e:	48 ff c6             	inc    rsi
    8b91:	48 ff c6             	inc    rsi
    8b94:	48 ff c6             	inc    rsi
    8b97:	48 ff c6             	inc    rsi
    8b9a:	48 ff c6             	inc    rsi
    8b9d:	e9 c3 ff ff ff       	jmp    0x8b65
    8ba2:	48 ff ce             	dec    rsi
    8ba5:	48 ff ce             	dec    rsi
    8ba8:	48 ff ce             	dec    rsi
    8bab:	48 ff ce             	dec    rsi
    8bae:	48 ff ce             	dec    rsi
    8bb1:	48 ff ce             	dec    rsi
    8bb4:	48 ff ce             	dec    rsi
    8bb7:	8a 06                	mov    al,BYTE PTR [rsi]
    8bb9:	84 c0                	test   al,al
    8bbb:	0f 84 91 00 00 00    	je     0x8c52
    8bc1:	fe 0e                	dec    BYTE PTR [rsi]
    8bc3:	48 ff c6             	inc    rsi
    8bc6:	48 ff c6             	inc    rsi
    8bc9:	48 ff c6             	inc    rsi
    8bcc:	48 ff c6             	inc    rsi
    8bcf:	48 ff c6             	inc    rsi
    8bd2:	48 ff c6             	inc    rsi
    8bd5:	48 ff c6             	inc    rsi
    8bd8:	fe 06                	inc    BYTE PTR [rsi]
    8bda:	48 ff ce             	dec    rsi
    8bdd:	48 ff ce             	dec    rsi
    8be0:	48 ff ce             	dec    rsi
    8be3:	48 ff ce             	dec    rsi
    8be6:	48 ff ce             	dec    rsi
    8be9:	48 ff ce             	dec    rsi
    8bec:	48 ff ce             	dec    rsi
    8bef:	48 ff ce             	dec    rsi
    8bf2:	8a 06                	mov    al,BYTE PTR [rsi]
    8bf4:	84 c0                	test   al,al
    8bf6:	0f 84 20 00 00 00    	je     0x8c1c
    8bfc:	48 ff ce             	dec    rsi
    8bff:	48 ff ce             	dec    rsi
    8c02:	48 ff ce             	dec    rsi
    8c05:	48 ff ce             	dec    rsi
    8c08:	48 ff ce             	dec    rsi
    8c0b:	48 ff ce             	dec    rsi
    8c0e:	48 ff ce             	dec    rsi
    8c11:	48 ff ce             	dec    rsi
    8c14:	48 ff ce             	dec    rsi
    8c17:	e9 d6 ff ff ff       	jmp    0x8bf2
    8c1c:	48 ff c6             	inc    rsi
    8c1f:	48 ff c6             	inc    rsi
    8c22:	48 ff c6             	inc    rsi
    8c25:	48 ff c6             	inc    rsi
    8c28:	48 ff c6             	inc    rsi
    8c2b:	48 ff c6             	inc    rsi
    8c2e:	48 ff c6             	inc    rsi
    8c31:	48 ff c6             	inc    rsi
    8c34:	8a 06                	mov    al,BYTE PTR [rsi]
    8c36:	84 c0                	test   al,al
    8c38:	0f 84 07 00 00 00    	je     0x8c45
    8c3e:	fe 0e                	dec    BYTE PTR [rsi]
    8c40:	e9 ef ff ff ff       	jmp    0x8c34
    8c45:	fe 06                	inc    BYTE PTR [rsi]
    8c47:	48 ff c6             	inc    rsi
    8c4a:	48 ff c6             	inc    rsi
    8c4d:	e9 65 ff ff ff       	jmp    0x8bb7
    8c52:	48 ff ce             	dec    rsi
    8c55:	48 ff ce             	dec    rsi
    8c58:	48 ff ce             	dec    rsi
    8c5b:	48 ff ce             	dec    rsi
    8c5e:	48 ff ce             	dec    rsi
    8c61:	48 ff ce             	dec    rsi
    8c64:	48 ff ce             	dec    rsi
    8c67:	48 ff ce             	dec    rsi
    8c6a:	48 ff ce             	dec    rsi
    8c6d:	48 ff ce             	dec    rsi
    8c70:	e9 ce fe ff ff       	jmp    0x8b43
    8c75:	e9 4a fe ff ff       	jmp    0x8ac4
    8c7a:	48 ff c6             	inc    rsi
    8c7d:	48 ff c6             	inc    rsi
    8c80:	48 ff c6             	inc    rsi
    8c83:	48 ff c6             	inc    rsi
    8c86:	48 ff c6             	inc    rsi
    8c89:	48 ff c6             	inc    rsi
    8c8c:	48 ff c6             	inc    rsi
    8c8f:	48 ff c6             	inc    rsi
    8c92:	8a 06                	mov    al,BYTE PTR [rsi]
    8c94:	84 c0                	test   al,al
    8c96:	0f 84 39 00 00 00    	je     0x8cd5
    8c9c:	fe 0e                	dec    BYTE PTR [rsi]
    8c9e:	48 ff ce             	dec    rsi
    8ca1:	48 ff ce             	dec    rsi
    8ca4:	48 ff ce             	dec    rsi
    8ca7:	48 ff ce             	dec    rsi
    8caa:	48 ff ce             	dec    rsi
    8cad:	48 ff ce             	dec    rsi
    8cb0:	48 ff ce             	dec    rsi
    8cb3:	48 ff ce             	dec    rsi
    8cb6:	fe 06                	inc    BYTE PTR [rsi]
    8cb8:	48 ff c6             	inc    rsi
    8cbb:	48 ff c6             	inc    rsi
    8cbe:	48 ff c6             	inc    rsi
    8cc1:	48 ff c6             	inc    rsi
    8cc4:	48 ff c6             	inc    rsi
    8cc7:	48 ff c6             	inc    rsi
    8cca:	48 ff c6             	inc    rsi
    8ccd:	48 ff c6             	inc    rsi
    8cd0:	e9 bd ff ff ff       	jmp    0x8c92
    8cd5:	48 ff ce             	dec    rsi
    8cd8:	48 ff ce             	dec    rsi
    8cdb:	48 ff ce             	dec    rsi
    8cde:	48 ff ce             	dec    rsi
    8ce1:	48 ff ce             	dec    rsi
    8ce4:	48 ff ce             	dec    rsi
    8ce7:	48 ff ce             	dec    rsi
    8cea:	48 ff ce             	dec    rsi
    8ced:	8a 06                	mov    al,BYTE PTR [rsi]
    8cef:	84 c0                	test   al,al
    8cf1:	0f 84 3a 03 00 00    	je     0x9031
    8cf7:	fe 0e                	dec    BYTE PTR [rsi]
    8cf9:	48 ff c6             	inc    rsi
    8cfc:	48 ff c6             	inc    rsi
    8cff:	48 ff c6             	inc    rsi
    8d02:	48 ff c6             	inc    rsi
    8d05:	48 ff c6             	inc    rsi
    8d08:	48 ff c6             	inc    rsi
    8d0b:	48 ff c6             	inc    rsi
    8d0e:	48 ff c6             	inc    rsi
    8d11:	fe 06                	inc    BYTE PTR [rsi]
    8d13:	48 ff c6             	inc    rsi
    8d16:	8a 06                	mov    al,BYTE PTR [rsi]
    8d18:	84 c0                	test   al,al
    8d1a:	0f 84 a2 00 00 00    	je     0x8dc2
    8d20:	48 ff c6             	inc    rsi
    8d23:	fe 06                	inc    BYTE PTR [rsi]
    8d25:	48 ff c6             	inc    rsi
    8d28:	48 ff c6             	inc    rsi
    8d2b:	48 ff c6             	inc    rsi
    8d2e:	48 ff c6             	inc    rsi
    8d31:	48 ff c6             	inc    rsi
    8d34:	8a 06                	mov    al,BYTE PTR [rsi]
    8d36:	84 c0                	test   al,al
    8d38:	0f 84 27 00 00 00    	je     0x8d65
    8d3e:	fe 0e                	dec    BYTE PTR [rsi]
    8d40:	48 ff ce             	dec    rsi
    8d43:	48 ff ce             	dec    rsi
    8d46:	48 ff ce             	dec    rsi
    8d49:	48 ff ce             	dec    rsi
    8d4c:	48 ff ce             	dec    rsi
    8d4f:	fe 0e                	dec    BYTE PTR [rsi]
    8d51:	48 ff c6             	inc    rsi
    8d54:	48 ff c6             	inc    rsi
    8d57:	48 ff c6             	inc    rsi
    8d5a:	48 ff c6             	inc    rsi
    8d5d:	48 ff c6             	inc    rsi
    8d60:	e9 cf ff ff ff       	jmp    0x8d34
    8d65:	48 ff ce             	dec    rsi
    8d68:	48 ff ce             	dec    rsi
    8d6b:	48 ff ce             	dec    rsi
    8d6e:	48 ff ce             	dec    rsi
    8d71:	48 ff ce             	dec    rsi
    8d74:	8a 06                	mov    al,BYTE PTR [rsi]
    8d76:	84 c0                	test   al,al
    8d78:	0f 84 27 00 00 00    	je     0x8da5
    8d7e:	fe 0e                	dec    BYTE PTR [rsi]
    8d80:	48 ff c6             	inc    rsi
    8d83:	48 ff c6             	inc    rsi
    8d86:	48 ff c6             	inc    rsi
    8d89:	48 ff c6             	inc    rsi
    8d8c:	48 ff c6             	inc    rsi
    8d8f:	fe 06                	inc    BYTE PTR [rsi]
    8d91:	48 ff ce             	dec    rsi
    8d94:	48 ff ce             	dec    rsi
    8d97:	48 ff ce             	dec    rsi
    8d9a:	48 ff ce             	dec    rsi
    8d9d:	48 ff ce             	dec    rsi
    8da0:	e9 cf ff ff ff       	jmp    0x8d74
    8da5:	48 ff c6             	inc    rsi
    8da8:	48 ff c6             	inc    rsi
    8dab:	48 ff c6             	inc    rsi
    8dae:	48 ff c6             	inc    rsi
    8db1:	48 ff c6             	inc    rsi
    8db4:	48 ff c6             	inc    rsi
    8db7:	48 ff c6             	inc    rsi
    8dba:	48 ff c6             	inc    rsi
    8dbd:	e9 54 ff ff ff       	jmp    0x8d16
    8dc2:	48 ff ce             	dec    rsi
    8dc5:	fe 06                	inc    BYTE PTR [rsi]
    8dc7:	48 ff ce             	dec    rsi
    8dca:	48 ff ce             	dec    rsi
    8dcd:	48 ff ce             	dec    rsi
    8dd0:	48 ff ce             	dec    rsi
    8dd3:	48 ff ce             	dec    rsi
    8dd6:	48 ff ce             	dec    rsi
    8dd9:	48 ff ce             	dec    rsi
    8ddc:	48 ff ce             	dec    rsi
    8ddf:	8a 06                	mov    al,BYTE PTR [rsi]
    8de1:	84 c0                	test   al,al
    8de3:	0f 84 63 00 00 00    	je     0x8e4c
    8de9:	48 ff c6             	inc    rsi
    8dec:	48 ff c6             	inc    rsi
    8def:	48 ff c6             	inc    rsi
    8df2:	48 ff c6             	inc    rsi
    8df5:	48 ff c6             	inc    rsi
    8df8:	48 ff c6             	inc    rsi
    8dfb:	8a 06                	mov    al,BYTE PTR [rsi]
    8dfd:	84 c0                	test   al,al
    8dff:	0f 84 15 00 00 00    	je     0x8e1a
    8e05:	fe 0e                	dec    BYTE PTR [rsi]
    8e07:	48 ff c6             	inc    rsi
    8e0a:	48 ff c6             	inc    rsi
    8e0d:	fe 06                	inc    BYTE PTR [rsi]
    8e0f:	48 ff ce             	dec    rsi
    8e12:	48 ff ce             	dec    rsi
    8e15:	e9 e1 ff ff ff       	jmp    0x8dfb
    8e1a:	48 ff ce             	dec    rsi
    8e1d:	48 ff ce             	dec    rsi
    8e20:	48 ff ce             	dec    rsi
    8e23:	48 ff ce             	dec    rsi
    8e26:	48 ff ce             	dec    rsi
    8e29:	48 ff ce             	dec    rsi
    8e2c:	48 ff ce             	dec    rsi
    8e2f:	48 ff ce             	dec    rsi
    8e32:	48 ff ce             	dec    rsi
    8e35:	48 ff ce             	dec    rsi
    8e38:	48 ff ce             	dec    rsi
    8e3b:	48 ff ce             	dec    rsi
    8e3e:	48 ff ce             	dec    rsi
    8e41:	48 ff ce             	dec    rsi
    8e44:	48 ff ce             	dec    rsi
    8e47:	e9 93 ff ff ff       	jmp    0x8ddf
    8e4c:	48 ff c6             	inc    rsi
    8e4f:	48 ff c6             	inc    rsi
    8e52:	48 ff c6             	inc    rsi
    8e55:	48 ff c6             	inc    rsi
    8e58:	48 ff c6             	inc    rsi
    8e5b:	48 ff c6             	inc    rsi
    8e5e:	48 ff c6             	inc    rsi
    8e61:	48 ff c6             	inc    rsi
    8e64:	48 ff c6             	inc    rsi
    8e67:	8a 06                	mov    al,BYTE PTR [rsi]
    8e69:	84 c0                	test   al,al
    8e6b:	0f 84 20 00 00 00    	je     0x8e91
    8e71:	48 ff c6             	inc    rsi
    8e74:	48 ff c6             	inc    rsi
    8e77:	48 ff c6             	inc    rsi
    8e7a:	48 ff c6             	inc    rsi
    8e7d:	48 ff c6             	inc    rsi
    8e80:	48 ff c6             	inc    rsi
    8e83:	48 ff c6             	inc    rsi
    8e86:	48 ff c6             	inc    rsi
    8e89:	48 ff c6             	inc    rsi
    8e8c:	e9 d6 ff ff ff       	jmp    0x8e67
    8e91:	48 ff ce             	dec    rsi
    8e94:	48 ff ce             	dec    rsi
    8e97:	48 ff ce             	dec    rsi
    8e9a:	48 ff ce             	dec    rsi
    8e9d:	48 ff ce             	dec    rsi
    8ea0:	48 ff ce             	dec    rsi
    8ea3:	48 ff ce             	dec    rsi
    8ea6:	48 ff ce             	dec    rsi
    8ea9:	48 ff ce             	dec    rsi
    8eac:	8a 06                	mov    al,BYTE PTR [rsi]
    8eae:	84 c0                	test   al,al
    8eb0:	0f 84 31 01 00 00    	je     0x8fe7
    8eb6:	48 ff c6             	inc    rsi
    8eb9:	8a 06                	mov    al,BYTE PTR [rsi]
    8ebb:	84 c0                	test   al,al
    8ebd:	0f 84 07 00 00 00    	je     0x8eca
    8ec3:	fe 0e                	dec    BYTE PTR [rsi]
    8ec5:	e9 ef ff ff ff       	jmp    0x8eb9
    8eca:	48 ff ce             	dec    rsi
    8ecd:	fe 0e                	dec    BYTE PTR [rsi]
    8ecf:	48 ff c6             	inc    rsi
    8ed2:	48 ff c6             	inc    rsi
    8ed5:	48 ff c6             	inc    rsi
    8ed8:	48 ff c6             	inc    rsi
    8edb:	48 ff c6             	inc    rsi
    8ede:	48 ff c6             	inc    rsi
    8ee1:	48 ff c6             	inc    rsi
    8ee4:	48 ff c6             	inc    rsi
    8ee7:	8a 06                	mov    al,BYTE PTR [rsi]
    8ee9:	84 c0                	test   al,al
    8eeb:	0f 84 7f 00 00 00    	je     0x8f70
    8ef1:	fe 0e                	dec    BYTE PTR [rsi]
    8ef3:	48 ff ce             	dec    rsi
    8ef6:	48 ff ce             	dec    rsi
    8ef9:	48 ff ce             	dec    rsi
    8efc:	48 ff ce             	dec    rsi
    8eff:	48 ff ce             	dec    rsi
    8f02:	48 ff ce             	dec    rsi
    8f05:	48 ff ce             	dec    rsi
    8f08:	48 ff ce             	dec    rsi
    8f0b:	fe 06                	inc    BYTE PTR [rsi]
    8f0d:	48 ff c6             	inc    rsi
    8f10:	8a 06                	mov    al,BYTE PTR [rsi]
    8f12:	84 c0                	test   al,al
    8f14:	0f 84 1d 00 00 00    	je     0x8f37
    8f1a:	48 ff ce             	dec    rsi
    8f1d:	fe 0e                	dec    BYTE PTR [rsi]
    8f1f:	48 ff c6             	inc    rsi
    8f22:	fe 0e                	dec    BYTE PTR [rsi]
    8f24:	48 ff ce             	dec    rsi
    8f27:	48 ff ce             	dec    rsi
    8f2a:	fe 06                	inc    BYTE PTR [rsi]
    8f2c:	48 ff c6             	inc    rsi
    8f2f:	48 ff c6             	inc    rsi
    8f32:	e9 d9 ff ff ff       	jmp    0x8f10
    8f37:	48 ff ce             	dec    rsi
    8f3a:	8a 06                	mov    al,BYTE PTR [rsi]
    8f3c:	84 c0                	test   al,al
    8f3e:	0f 84 0f 00 00 00    	je     0x8f53
    8f44:	fe 0e                	dec    BYTE PTR [rsi]
    8f46:	48 ff c6             	inc    rsi
    8f49:	fe 06                	inc    BYTE PTR [rsi]
    8f4b:	48 ff ce             	dec    rsi
    8f4e:	e9 e7 ff ff ff       	jmp    0x8f3a
    8f53:	48 ff c6             	inc    rsi
    8f56:	48 ff c6             	inc    rsi
    8f59:	48 ff c6             	inc    rsi
    8f5c:	48 ff c6             	inc    rsi
    8f5f:	48 ff c6             	inc    rsi
    8f62:	48 ff c6             	inc    rsi
    8f65:	48 ff c6             	inc    rsi
    8f68:	48 ff c6             	inc    rsi
    8f6b:	e9 77 ff ff ff       	jmp    0x8ee7
    8f70:	48 ff ce             	dec    rsi
    8f73:	48 ff ce             	dec    rsi
    8f76:	48 ff ce             	dec    rsi
    8f79:	48 ff ce             	dec    rsi
    8f7c:	48 ff ce             	dec    rsi
    8f7f:	48 ff ce             	dec    rsi
    8f82:	48 ff ce             	dec    rsi
    8f85:	8a 06                	mov    al,BYTE PTR [rsi]
    8f87:	84 c0                	test   al,al
    8f89:	0f 84 33 00 00 00    	je     0x8fc2
    8f8f:	fe 0e                	dec    BYTE PTR [rsi]
    8f91:	48 ff c6             	inc    rsi
    8f94:	48 ff c6             	inc    rsi
    8f97:	48 ff c6             	inc    rsi
    8f9a:	48 ff c6             	inc    rsi
    8f9d:	48 ff c6             	inc    rsi
    8fa0:	48 ff c6             	inc    rsi
    8fa3:	48 ff c6             	inc    rsi
    8fa6:	fe 06                	inc    BYTE PTR [rsi]
    8fa8:	48 ff ce             	dec    rsi
    8fab:	48 ff ce             	dec    rsi
    8fae:	48 ff ce             	dec    rsi
    8fb1:	48 ff ce             	dec    rsi
    8fb4:	48 ff ce             	dec    rsi
    8fb7:	48 ff ce             	dec    rsi
    8fba:	48 ff ce             	dec    rsi
    8fbd:	e9 c3 ff ff ff       	jmp    0x8f85
    8fc2:	48 ff ce             	dec    rsi
    8fc5:	fe 06                	inc    BYTE PTR [rsi]
    8fc7:	48 ff ce             	dec    rsi
    8fca:	48 ff ce             	dec    rsi
    8fcd:	48 ff ce             	dec    rsi
    8fd0:	48 ff ce             	dec    rsi
    8fd3:	48 ff ce             	dec    rsi
    8fd6:	48 ff ce             	dec    rsi
    8fd9:	48 ff ce             	dec    rsi
    8fdc:	48 ff ce             	dec    rsi
    8fdf:	48 ff ce             	dec    rsi
    8fe2:	e9 c5 fe ff ff       	jmp    0x8eac
    8fe7:	48 ff c6             	inc    rsi
    8fea:	48 ff c6             	inc    rsi
    8fed:	48 ff c6             	inc    rsi
    8ff0:	48 ff c6             	inc    rsi
    8ff3:	48 ff c6             	inc    rsi
    8ff6:	48 ff c6             	inc    rsi
    8ff9:	48 ff c6             	inc    rsi
    8ffc:	48 ff c6             	inc    rsi
    8fff:	fe 0e                	dec    BYTE PTR [rsi]
    9001:	48 ff ce             	dec    rsi
    9004:	48 ff ce             	dec    rsi
    9007:	48 ff ce             	dec    rsi
    900a:	48 ff ce             	dec    rsi
    900d:	48 ff ce             	dec    rsi
    9010:	8a 06                	mov    al,BYTE PTR [rsi]
    9012:	84 c0                	test   al,al
    9014:	0f 84 07 00 00 00    	je     0x9021
    901a:	fe 0e                	dec    BYTE PTR [rsi]
    901c:	e9 ef ff ff ff       	jmp    0x9010
    9021:	fe 06                	inc    BYTE PTR [rsi]
    9023:	48 ff ce             	dec    rsi
    9026:	48 ff ce             	dec    rsi
    9029:	48 ff ce             	dec    rsi
    902c:	e9 bc fc ff ff       	jmp    0x8ced
    9031:	fe 06                	inc    BYTE PTR [rsi]
    9033:	48 ff c6             	inc    rsi
    9036:	48 ff c6             	inc    rsi
    9039:	48 ff c6             	inc    rsi
    903c:	48 ff c6             	inc    rsi
    903f:	48 ff c6             	inc    rsi
    9042:	48 ff c6             	inc    rsi
    9045:	48 ff c6             	inc    rsi
    9048:	48 ff c6             	inc    rsi
    904b:	8a 06                	mov    al,BYTE PTR [rsi]
    904d:	84 c0                	test   al,al
    904f:	0f 84 39 00 00 00    	je     0x908e
    9055:	fe 0e                	dec    BYTE PTR [rsi]
    9057:	48 ff ce             	dec    rsi
    905a:	48 ff ce             	dec    rsi
    905d:	48 ff ce             	dec    rsi
    9060:	48 ff ce             	dec    rsi
    9063:	48 ff ce             	dec    rsi
    9066:	48 ff ce             	dec    rsi
    9069:	48 ff ce             	dec    rsi
    906c:	48 ff ce             	dec    rsi
    906f:	fe 0e                	dec    BYTE PTR [rsi]
    9071:	48 ff c6             	inc    rsi
    9074:	48 ff c6             	inc    rsi
    9077:	48 ff c6             	inc    rsi
    907a:	48 ff c6             	inc    rsi
    907d:	48 ff c6             	inc    rsi
    9080:	48 ff c6             	inc    rsi
    9083:	48 ff c6             	inc    rsi
    9086:	48 ff c6             	inc    rsi
    9089:	e9 bd ff ff ff       	jmp    0x904b
    908e:	fe 06                	inc    BYTE PTR [rsi]
    9090:	48 ff ce             	dec    rsi
    9093:	48 ff ce             	dec    rsi
    9096:	48 ff ce             	dec    rsi
    9099:	48 ff ce             	dec    rsi
    909c:	48 ff ce             	dec    rsi
    909f:	48 ff ce             	dec    rsi
    90a2:	48 ff ce             	dec    rsi
    90a5:	48 ff ce             	dec    rsi
    90a8:	8a 06                	mov    al,BYTE PTR [rsi]
    90aa:	84 c0                	test   al,al
    90ac:	0f 84 b5 08 00 00    	je     0x9967
    90b2:	fe 0e                	dec    BYTE PTR [rsi]
    90b4:	48 ff c6             	inc    rsi
    90b7:	48 ff c6             	inc    rsi
    90ba:	48 ff c6             	inc    rsi
    90bd:	48 ff c6             	inc    rsi
    90c0:	48 ff c6             	inc    rsi
    90c3:	48 ff c6             	inc    rsi
    90c6:	48 ff c6             	inc    rsi
    90c9:	48 ff c6             	inc    rsi
    90cc:	fe 0e                	dec    BYTE PTR [rsi]
    90ce:	48 ff c6             	inc    rsi
    90d1:	8a 06                	mov    al,BYTE PTR [rsi]
    90d3:	84 c0                	test   al,al
    90d5:	0f 84 3f 00 00 00    	je     0x911a
    90db:	48 ff c6             	inc    rsi
    90de:	48 ff c6             	inc    rsi
    90e1:	48 ff c6             	inc    rsi
    90e4:	48 ff c6             	inc    rsi
    90e7:	48 ff c6             	inc    rsi
    90ea:	48 ff c6             	inc    rsi
    90ed:	8a 06                	mov    al,BYTE PTR [rsi]
    90ef:	84 c0                	test   al,al
    90f1:	0f 84 15 00 00 00    	je     0x910c
    90f7:	fe 0e                	dec    BYTE PTR [rsi]
    90f9:	48 ff c6             	inc    rsi
    90fc:	48 ff c6             	inc    rsi
    90ff:	fe 06                	inc    BYTE PTR [rsi]
    9101:	48 ff ce             	dec    rsi
    9104:	48 ff ce             	dec    rsi
    9107:	e9 e1 ff ff ff       	jmp    0x90ed
    910c:	48 ff c6             	inc    rsi
    910f:	48 ff c6             	inc    rsi
    9112:	48 ff c6             	inc    rsi
    9115:	e9 b7 ff ff ff       	jmp    0x90d1
    911a:	48 ff ce             	dec    rsi
    911d:	48 ff ce             	dec    rsi
    9120:	48 ff ce             	dec    rsi
    9123:	48 ff ce             	dec    rsi
    9126:	48 ff ce             	dec    rsi
    9129:	48 ff ce             	dec    rsi
    912c:	48 ff ce             	dec    rsi
    912f:	48 ff ce             	dec    rsi
    9132:	48 ff ce             	dec    rsi
    9135:	8a 06                	mov    al,BYTE PTR [rsi]
    9137:	84 c0                	test   al,al
    9139:	0f 84 31 01 00 00    	je     0x9270
    913f:	48 ff c6             	inc    rsi
    9142:	8a 06                	mov    al,BYTE PTR [rsi]
    9144:	84 c0                	test   al,al
    9146:	0f 84 07 00 00 00    	je     0x9153
    914c:	fe 0e                	dec    BYTE PTR [rsi]
    914e:	e9 ef ff ff ff       	jmp    0x9142
    9153:	48 ff ce             	dec    rsi
    9156:	fe 0e                	dec    BYTE PTR [rsi]
    9158:	48 ff c6             	inc    rsi
    915b:	48 ff c6             	inc    rsi
    915e:	48 ff c6             	inc    rsi
    9161:	48 ff c6             	inc    rsi
    9164:	48 ff c6             	inc    rsi
    9167:	48 ff c6             	inc    rsi
    916a:	48 ff c6             	inc    rsi
    916d:	48 ff c6             	inc    rsi
    9170:	8a 06                	mov    al,BYTE PTR [rsi]
    9172:	84 c0                	test   al,al
    9174:	0f 84 7f 00 00 00    	je     0x91f9
    917a:	fe 0e                	dec    BYTE PTR [rsi]
    917c:	48 ff ce             	dec    rsi
    917f:	48 ff ce             	dec    rsi
    9182:	48 ff ce             	dec    rsi
    9185:	48 ff ce             	dec    rsi
    9188:	48 ff ce             	dec    rsi
    918b:	48 ff ce             	dec    rsi
    918e:	48 ff ce             	dec    rsi
    9191:	48 ff ce             	dec    rsi
    9194:	fe 06                	inc    BYTE PTR [rsi]
    9196:	48 ff c6             	inc    rsi
    9199:	8a 06                	mov    al,BYTE PTR [rsi]
    919b:	84 c0                	test   al,al
    919d:	0f 84 1d 00 00 00    	je     0x91c0
    91a3:	48 ff ce             	dec    rsi
    91a6:	fe 0e                	dec    BYTE PTR [rsi]
    91a8:	48 ff c6             	inc    rsi
    91ab:	fe 0e                	dec    BYTE PTR [rsi]
    91ad:	48 ff ce             	dec    rsi
    91b0:	48 ff ce             	dec    rsi
    91b3:	fe 06                	inc    BYTE PTR [rsi]
    91b5:	48 ff c6             	inc    rsi
    91b8:	48 ff c6             	inc    rsi
    91bb:	e9 d9 ff ff ff       	jmp    0x9199
    91c0:	48 ff ce             	dec    rsi
    91c3:	8a 06                	mov    al,BYTE PTR [rsi]
    91c5:	84 c0                	test   al,al
    91c7:	0f 84 0f 00 00 00    	je     0x91dc
    91cd:	fe 0e                	dec    BYTE PTR [rsi]
    91cf:	48 ff c6             	inc    rsi
    91d2:	fe 06                	inc    BYTE PTR [rsi]
    91d4:	48 ff ce             	dec    rsi
    91d7:	e9 e7 ff ff ff       	jmp    0x91c3
    91dc:	48 ff c6             	inc    rsi
    91df:	48 ff c6             	inc    rsi
    91e2:	48 ff c6             	inc    rsi
    91e5:	48 ff c6             	inc    rsi
    91e8:	48 ff c6             	inc    rsi
    91eb:	48 ff c6             	inc    rsi
    91ee:	48 ff c6             	inc    rsi
    91f1:	48 ff c6             	inc    rsi
    91f4:	e9 77 ff ff ff       	jmp    0x9170
    91f9:	48 ff ce             	dec    rsi
    91fc:	48 ff ce             	dec    rsi
    91ff:	48 ff ce             	dec    rsi
    9202:	48 ff ce             	dec    rsi
    9205:	48 ff ce             	dec    rsi
    9208:	48 ff ce             	dec    rsi
    920b:	48 ff ce             	dec    rsi
    920e:	8a 06                	mov    al,BYTE PTR [rsi]
    9210:	84 c0                	test   al,al
    9212:	0f 84 33 00 00 00    	je     0x924b
    9218:	fe 0e                	dec    BYTE PTR [rsi]
    921a:	48 ff c6             	inc    rsi
    921d:	48 ff c6             	inc    rsi
    9220:	48 ff c6             	inc    rsi
    9223:	48 ff c6             	inc    rsi
    9226:	48 ff c6             	inc    rsi
    9229:	48 ff c6             	inc    rsi
    922c:	48 ff c6             	inc    rsi
    922f:	fe 06                	inc    BYTE PTR [rsi]
    9231:	48 ff ce             	dec    rsi
    9234:	48 ff ce             	dec    rsi
    9237:	48 ff ce             	dec    rsi
    923a:	48 ff ce             	dec    rsi
    923d:	48 ff ce             	dec    rsi
    9240:	48 ff ce             	dec    rsi
    9243:	48 ff ce             	dec    rsi
    9246:	e9 c3 ff ff ff       	jmp    0x920e
    924b:	48 ff ce             	dec    rsi
    924e:	fe 06                	inc    BYTE PTR [rsi]
    9250:	48 ff ce             	dec    rsi
    9253:	48 ff ce             	dec    rsi
    9256:	48 ff ce             	dec    rsi
    9259:	48 ff ce             	dec    rsi
    925c:	48 ff ce             	dec    rsi
    925f:	48 ff ce             	dec    rsi
    9262:	48 ff ce             	dec    rsi
    9265:	48 ff ce             	dec    rsi
    9268:	48 ff ce             	dec    rsi
    926b:	e9 c5 fe ff ff       	jmp    0x9135
    9270:	48 ff c6             	inc    rsi
    9273:	fe 06                	inc    BYTE PTR [rsi]
    9275:	fe 06                	inc    BYTE PTR [rsi]
    9277:	fe 06                	inc    BYTE PTR [rsi]
    9279:	fe 06                	inc    BYTE PTR [rsi]
    927b:	fe 06                	inc    BYTE PTR [rsi]
    927d:	8a 06                	mov    al,BYTE PTR [rsi]
    927f:	84 c0                	test   al,al
    9281:	0f 84 6b 00 00 00    	je     0x92f2
    9287:	fe 0e                	dec    BYTE PTR [rsi]
    9289:	8a 06                	mov    al,BYTE PTR [rsi]
    928b:	84 c0                	test   al,al
    928d:	0f 84 3f 00 00 00    	je     0x92d2
    9293:	fe 0e                	dec    BYTE PTR [rsi]
    9295:	48 ff c6             	inc    rsi
    9298:	48 ff c6             	inc    rsi
    929b:	48 ff c6             	inc    rsi
    929e:	48 ff c6             	inc    rsi
    92a1:	48 ff c6             	inc    rsi
    92a4:	48 ff c6             	inc    rsi
    92a7:	48 ff c6             	inc    rsi
    92aa:	48 ff c6             	inc    rsi
    92ad:	48 ff c6             	inc    rsi
    92b0:	fe 06                	inc    BYTE PTR [rsi]
    92b2:	48 ff ce             	dec    rsi
    92b5:	48 ff ce             	dec    rsi
    92b8:	48 ff ce             	dec    rsi
    92bb:	48 ff ce             	dec    rsi
    92be:	48 ff ce             	dec    rsi
    92c1:	48 ff ce             	dec    rsi
    92c4:	48 ff ce             	dec    rsi
    92c7:	48 ff ce             	dec    rsi
    92ca:	48 ff ce             	dec    rsi
    92cd:	e9 b7 ff ff ff       	jmp    0x9289
    92d2:	48 ff c6             	inc    rsi
    92d5:	48 ff c6             	inc    rsi
    92d8:	48 ff c6             	inc    rsi
    92db:	48 ff c6             	inc    rsi
    92de:	48 ff c6             	inc    rsi
    92e1:	48 ff c6             	inc    rsi
    92e4:	48 ff c6             	inc    rsi
    92e7:	48 ff c6             	inc    rsi
    92ea:	48 ff c6             	inc    rsi
    92ed:	e9 8b ff ff ff       	jmp    0x927d
    92f2:	48 ff c6             	inc    rsi
    92f5:	48 ff c6             	inc    rsi
    92f8:	48 ff c6             	inc    rsi
    92fb:	48 ff c6             	inc    rsi
    92fe:	48 ff c6             	inc    rsi
    9301:	fe 06                	inc    BYTE PTR [rsi]
    9303:	48 ff c6             	inc    rsi
    9306:	48 ff c6             	inc    rsi
    9309:	48 ff c6             	inc    rsi
    930c:	48 ff c6             	inc    rsi
    930f:	48 ff c6             	inc    rsi
    9312:	48 ff c6             	inc    rsi
    9315:	48 ff c6             	inc    rsi
    9318:	48 ff c6             	inc    rsi
    931b:	48 ff c6             	inc    rsi
    931e:	48 ff c6             	inc    rsi
    9321:	48 ff c6             	inc    rsi
    9324:	48 ff c6             	inc    rsi
    9327:	48 ff c6             	inc    rsi
    932a:	48 ff c6             	inc    rsi
    932d:	48 ff c6             	inc    rsi
    9330:	48 ff c6             	inc    rsi
    9333:	48 ff c6             	inc    rsi
    9336:	48 ff c6             	inc    rsi
    9339:	48 ff c6             	inc    rsi
    933c:	48 ff c6             	inc    rsi
    933f:	48 ff c6             	inc    rsi
    9342:	48 ff c6             	inc    rsi
    9345:	48 ff c6             	inc    rsi
    9348:	48 ff c6             	inc    rsi
    934b:	48 ff c6             	inc    rsi
    934e:	48 ff c6             	inc    rsi
    9351:	48 ff c6             	inc    rsi
    9354:	fe 06                	inc    BYTE PTR [rsi]
    9356:	48 ff ce             	dec    rsi
    9359:	48 ff ce             	dec    rsi
    935c:	48 ff ce             	dec    rsi
    935f:	48 ff ce             	dec    rsi
    9362:	48 ff ce             	dec    rsi
    9365:	48 ff ce             	dec    rsi
    9368:	8a 06                	mov    al,BYTE PTR [rsi]
    936a:	84 c0                	test   al,al
    936c:	0f 84 20 00 00 00    	je     0x9392
    9372:	48 ff ce             	dec    rsi
    9375:	48 ff ce             	dec    rsi
    9378:	48 ff ce             	dec    rsi
    937b:	48 ff ce             	dec    rsi
    937e:	48 ff ce             	dec    rsi
    9381:	48 ff ce             	dec    rsi
    9384:	48 ff ce             	dec    rsi
    9387:	48 ff ce             	dec    rsi
    938a:	48 ff ce             	dec    rsi
    938d:	e9 d6 ff ff ff       	jmp    0x9368
    9392:	48 ff c6             	inc    rsi
    9395:	48 ff c6             	inc    rsi
    9398:	48 ff c6             	inc    rsi
    939b:	48 ff c6             	inc    rsi
    939e:	48 ff c6             	inc    rsi
    93a1:	48 ff c6             	inc    rsi
    93a4:	48 ff c6             	inc    rsi
    93a7:	48 ff c6             	inc    rsi
    93aa:	48 ff c6             	inc    rsi
    93ad:	8a 06                	mov    al,BYTE PTR [rsi]
    93af:	84 c0                	test   al,al
    93b1:	0f 84 21 04 00 00    	je     0x97d8
    93b7:	48 ff c6             	inc    rsi
    93ba:	48 ff c6             	inc    rsi
    93bd:	48 ff c6             	inc    rsi
    93c0:	48 ff c6             	inc    rsi
    93c3:	48 ff c6             	inc    rsi
    93c6:	48 ff c6             	inc    rsi
    93c9:	8a 06                	mov    al,BYTE PTR [rsi]
    93cb:	84 c0                	test   al,al
    93cd:	0f 84 2d 00 00 00    	je     0x9400
    93d3:	fe 0e                	dec    BYTE PTR [rsi]
    93d5:	48 ff ce             	dec    rsi
    93d8:	48 ff ce             	dec    rsi
    93db:	48 ff ce             	dec    rsi
    93de:	48 ff ce             	dec    rsi
    93e1:	48 ff ce             	dec    rsi
    93e4:	48 ff ce             	dec    rsi
    93e7:	fe 0e                	dec    BYTE PTR [rsi]
    93e9:	48 ff c6             	inc    rsi
    93ec:	48 ff c6             	inc    rsi
    93ef:	48 ff c6             	inc    rsi
    93f2:	48 ff c6             	inc    rsi
    93f5:	48 ff c6             	inc    rsi
    93f8:	48 ff c6             	inc    rsi
    93fb:	e9 c9 ff ff ff       	jmp    0x93c9
    9400:	fe 06                	inc    BYTE PTR [rsi]
    9402:	48 ff ce             	dec    rsi
    9405:	48 ff ce             	dec    rsi
    9408:	48 ff ce             	dec    rsi
    940b:	48 ff ce             	dec    rsi
    940e:	48 ff ce             	dec    rsi
    9411:	48 ff ce             	dec    rsi
    9414:	8a 06                	mov    al,BYTE PTR [rsi]
    9416:	84 c0                	test   al,al
    9418:	0f 84 64 01 00 00    	je     0x9582
    941e:	fe 0e                	dec    BYTE PTR [rsi]
    9420:	48 ff c6             	inc    rsi
    9423:	48 ff c6             	inc    rsi
    9426:	48 ff c6             	inc    rsi
    9429:	48 ff c6             	inc    rsi
    942c:	48 ff c6             	inc    rsi
    942f:	48 ff c6             	inc    rsi
    9432:	fe 0e                	dec    BYTE PTR [rsi]
    9434:	48 ff c6             	inc    rsi
    9437:	48 ff c6             	inc    rsi
    943a:	8a 06                	mov    al,BYTE PTR [rsi]
    943c:	84 c0                	test   al,al
    943e:	0f 84 39 00 00 00    	je     0x947d
    9444:	fe 0e                	dec    BYTE PTR [rsi]
    9446:	48 ff ce             	dec    rsi
    9449:	48 ff ce             	dec    rsi
    944c:	48 ff ce             	dec    rsi
    944f:	48 ff ce             	dec    rsi
    9452:	48 ff ce             	dec    rsi
    9455:	48 ff ce             	dec    rsi
    9458:	48 ff ce             	dec    rsi
    945b:	48 ff ce             	dec    rsi
    945e:	fe 06                	inc    BYTE PTR [rsi]
    9460:	48 ff c6             	inc    rsi
    9463:	48 ff c6             	inc    rsi
    9466:	48 ff c6             	inc    rsi
    9469:	48 ff c6             	inc    rsi
    946c:	48 ff c6             	inc    rsi
    946f:	48 ff c6             	inc    rsi
    9472:	48 ff c6             	inc    rsi
    9475:	48 ff c6             	inc    rsi
    9478:	e9 bd ff ff ff       	jmp    0x943a
    947d:	48 ff ce             	dec    rsi
    9480:	48 ff ce             	dec    rsi
    9483:	48 ff ce             	dec    rsi
    9486:	48 ff ce             	dec    rsi
    9489:	48 ff ce             	dec    rsi
    948c:	48 ff ce             	dec    rsi
    948f:	48 ff ce             	dec    rsi
    9492:	48 ff ce             	dec    rsi
    9495:	8a 06                	mov    al,BYTE PTR [rsi]
    9497:	84 c0                	test   al,al
    9499:	0f 84 de 00 00 00    	je     0x957d
    949f:	fe 0e                	dec    BYTE PTR [rsi]
    94a1:	48 ff c6             	inc    rsi
    94a4:	48 ff c6             	inc    rsi
    94a7:	48 ff c6             	inc    rsi
    94aa:	48 ff c6             	inc    rsi
    94ad:	48 ff c6             	inc    rsi
    94b0:	48 ff c6             	inc    rsi
    94b3:	48 ff c6             	inc    rsi
    94b6:	48 ff c6             	inc    rsi
    94b9:	fe 06                	inc    BYTE PTR [rsi]
    94bb:	48 ff ce             	dec    rsi
    94be:	48 ff ce             	dec    rsi
    94c1:	48 ff ce             	dec    rsi
    94c4:	48 ff ce             	dec    rsi
    94c7:	48 ff ce             	dec    rsi
    94ca:	48 ff ce             	dec    rsi
    94cd:	48 ff ce             	dec    rsi
    94d0:	48 ff ce             	dec    rsi
    94d3:	48 ff ce             	dec    rsi
    94d6:	48 ff ce             	dec    rsi
    94d9:	48 ff ce             	dec    rsi
    94dc:	48 ff ce             	dec    rsi
    94df:	48 ff ce             	dec    rsi
    94e2:	48 ff ce             	dec    rsi
    94e5:	48 ff ce             	dec    rsi
    94e8:	48 ff ce             	dec    rsi
    94eb:	48 ff ce             	dec    rsi
    94ee:	8a 06                	mov    al,BYTE PTR [rsi]
    94f0:	84 c0                	test   al,al
    94f2:	0f 84 20 00 00 00    	je     0x9518
    94f8:	48 ff ce             	dec    rsi
    94fb:	48 ff ce             	dec    rsi
    94fe:	48 ff ce             	dec    rsi
    9501:	48 ff ce             	dec    rsi
    9504:	48 ff ce             	dec    rsi
    9507:	48 ff ce             	dec    rsi
    950a:	48 ff ce             	dec    rsi
    950d:	48 ff ce             	dec    rsi
    9510:	48 ff ce             	dec    rsi
    9513:	e9 d6 ff ff ff       	jmp    0x94ee
    9518:	48 ff c6             	inc    rsi
    951b:	48 ff c6             	inc    rsi
    951e:	48 ff c6             	inc    rsi
    9521:	48 ff c6             	inc    rsi
    9524:	8a 06                	mov    al,BYTE PTR [rsi]
    9526:	84 c0                	test   al,al
    9528:	0f 84 07 00 00 00    	je     0x9535
    952e:	fe 0e                	dec    BYTE PTR [rsi]
    9530:	e9 ef ff ff ff       	jmp    0x9524
    9535:	fe 06                	inc    BYTE PTR [rsi]
    9537:	48 ff c6             	inc    rsi
    953a:	48 ff c6             	inc    rsi
    953d:	48 ff c6             	inc    rsi
    9540:	48 ff c6             	inc    rsi
    9543:	48 ff c6             	inc    rsi
    9546:	8a 06                	mov    al,BYTE PTR [rsi]
    9548:	84 c0                	test   al,al
    954a:	0f 84 20 00 00 00    	je     0x9570
    9550:	48 ff c6             	inc    rsi
    9553:	48 ff c6             	inc    rsi
    9556:	48 ff c6             	inc    rsi
    9559:	48 ff c6             	inc    rsi
    955c:	48 ff c6             	inc    rsi
    955f:	48 ff c6             	inc    rsi
    9562:	48 ff c6             	inc    rsi
    9565:	48 ff c6             	inc    rsi
    9568:	48 ff c6             	inc    rsi
    956b:	e9 d6 ff ff ff       	jmp    0x9546
    9570:	48 ff c6             	inc    rsi
    9573:	fe 06                	inc    BYTE PTR [rsi]
    9575:	48 ff ce             	dec    rsi
    9578:	e9 18 ff ff ff       	jmp    0x9495
    957d:	e9 92 fe ff ff       	jmp    0x9414
    9582:	fe 06                	inc    BYTE PTR [rsi]
    9584:	48 ff c6             	inc    rsi
    9587:	48 ff c6             	inc    rsi
    958a:	48 ff c6             	inc    rsi
    958d:	48 ff c6             	inc    rsi
    9590:	48 ff c6             	inc    rsi
    9593:	48 ff c6             	inc    rsi
    9596:	48 ff c6             	inc    rsi
    9599:	48 ff c6             	inc    rsi
    959c:	8a 06                	mov    al,BYTE PTR [rsi]
    959e:	84 c0                	test   al,al
    95a0:	0f 84 39 00 00 00    	je     0x95df
    95a6:	fe 0e                	dec    BYTE PTR [rsi]
    95a8:	48 ff ce             	dec    rsi
    95ab:	48 ff ce             	dec    rsi
    95ae:	48 ff ce             	dec    rsi
    95b1:	48 ff ce             	dec    rsi
    95b4:	48 ff ce             	dec    rsi
    95b7:	48 ff ce             	dec    rsi
    95ba:	48 ff ce             	dec    rsi
    95bd:	48 ff ce             	dec    rsi
    95c0:	fe 0e                	dec    BYTE PTR [rsi]
    95c2:	48 ff c6             	inc    rsi
    95c5:	48 ff c6             	inc    rsi
    95c8:	48 ff c6             	inc    rsi
    95cb:	48 ff c6             	inc    rsi
    95ce:	48 ff c6             	inc    rsi
    95d1:	48 ff c6             	inc    rsi
    95d4:	48 ff c6             	inc    rsi
    95d7:	48 ff c6             	inc    rsi
    95da:	e9 bd ff ff ff       	jmp    0x959c
    95df:	fe 06                	inc    BYTE PTR [rsi]
    95e1:	48 ff ce             	dec    rsi
    95e4:	48 ff ce             	dec    rsi
    95e7:	48 ff ce             	dec    rsi
    95ea:	48 ff ce             	dec    rsi
    95ed:	48 ff ce             	dec    rsi
    95f0:	48 ff ce             	dec    rsi
    95f3:	48 ff ce             	dec    rsi
    95f6:	48 ff ce             	dec    rsi
    95f9:	8a 06                	mov    al,BYTE PTR [rsi]
    95fb:	84 c0                	test   al,al
    95fd:	0f 84 5d 01 00 00    	je     0x9760
    9603:	fe 0e                	dec    BYTE PTR [rsi]
    9605:	48 ff c6             	inc    rsi
    9608:	48 ff c6             	inc    rsi
    960b:	48 ff c6             	inc    rsi
    960e:	48 ff c6             	inc    rsi
    9611:	48 ff c6             	inc    rsi
    9614:	48 ff c6             	inc    rsi
    9617:	48 ff c6             	inc    rsi
    961a:	48 ff c6             	inc    rsi
    961d:	fe 0e                	dec    BYTE PTR [rsi]
    961f:	48 ff ce             	dec    rsi
    9622:	48 ff ce             	dec    rsi
    9625:	8a 06                	mov    al,BYTE PTR [rsi]
    9627:	84 c0                	test   al,al
    9629:	0f 84 2d 00 00 00    	je     0x965c
    962f:	fe 0e                	dec    BYTE PTR [rsi]
    9631:	48 ff ce             	dec    rsi
    9634:	48 ff ce             	dec    rsi
    9637:	48 ff ce             	dec    rsi
    963a:	48 ff ce             	dec    rsi
    963d:	48 ff ce             	dec    rsi
    9640:	48 ff ce             	dec    rsi
    9643:	fe 06                	inc    BYTE PTR [rsi]
    9645:	48 ff c6             	inc    rsi
    9648:	48 ff c6             	inc    rsi
    964b:	48 ff c6             	inc    rsi
    964e:	48 ff c6             	inc    rsi
    9651:	48 ff c6             	inc    rsi
    9654:	48 ff c6             	inc    rsi
    9657:	e9 c9 ff ff ff       	jmp    0x9625
    965c:	48 ff ce             	dec    rsi
    965f:	48 ff ce             	dec    rsi
    9662:	48 ff ce             	dec    rsi
    9665:	48 ff ce             	dec    rsi
    9668:	48 ff ce             	dec    rsi
    966b:	48 ff ce             	dec    rsi
    966e:	8a 06                	mov    al,BYTE PTR [rsi]
    9670:	84 c0                	test   al,al
    9672:	0f 84 e3 00 00 00    	je     0x975b
    9678:	fe 0e                	dec    BYTE PTR [rsi]
    967a:	48 ff c6             	inc    rsi
    967d:	48 ff c6             	inc    rsi
    9680:	48 ff c6             	inc    rsi
    9683:	48 ff c6             	inc    rsi
    9686:	48 ff c6             	inc    rsi
    9689:	48 ff c6             	inc    rsi
    968c:	fe 06                	inc    BYTE PTR [rsi]
    968e:	48 ff ce             	dec    rsi
    9691:	48 ff ce             	dec    rsi
    9694:	48 ff ce             	dec    rsi
    9697:	48 ff ce             	dec    rsi
    969a:	48 ff ce             	dec    rsi
    969d:	48 ff ce             	dec    rsi
    96a0:	48 ff ce             	dec    rsi
    96a3:	48 ff ce             	dec    rsi
    96a6:	48 ff ce             	dec    rsi
    96a9:	48 ff ce             	dec    rsi
    96ac:	48 ff ce             	dec    rsi
    96af:	48 ff ce             	dec    rsi
    96b2:	48 ff ce             	dec    rsi
    96b5:	48 ff ce             	dec    rsi
    96b8:	48 ff ce             	dec    rsi
    96bb:	8a 06                	mov    al,BYTE PTR [rsi]
    96bd:	84 c0                	test   al,al
    96bf:	0f 84 20 00 00 00    	je     0x96e5
    96c5:	48 ff ce             	dec    rsi
    96c8:	48 ff ce             	dec    rsi
    96cb:	48 ff ce             	dec    rsi
    96ce:	48 ff ce             	dec    rsi
    96d1:	48 ff ce             	dec    rsi
    96d4:	48 ff ce             	dec    rsi
    96d7:	48 ff ce             	dec    rsi
    96da:	48 ff ce             	dec    rsi
    96dd:	48 ff ce             	dec    rsi
    96e0:	e9 d6 ff ff ff       	jmp    0x96bb
    96e5:	48 ff c6             	inc    rsi
    96e8:	48 ff c6             	inc    rsi
    96eb:	48 ff c6             	inc    rsi
    96ee:	8a 06                	mov    al,BYTE PTR [rsi]
    96f0:	84 c0                	test   al,al
    96f2:	0f 84 07 00 00 00    	je     0x96ff
    96f8:	fe 0e                	dec    BYTE PTR [rsi]
    96fa:	e9 ef ff ff ff       	jmp    0x96ee
    96ff:	fe 06                	inc    BYTE PTR [rsi]
    9701:	48 ff c6             	inc    rsi
    9704:	48 ff c6             	inc    rsi
    9707:	48 ff c6             	inc    rsi
    970a:	48 ff c6             	inc    rsi
    970d:	48 ff c6             	inc    rsi
    9710:	48 ff c6             	inc    rsi
    9713:	8a 06                	mov    al,BYTE PTR [rsi]
    9715:	84 c0                	test   al,al
    9717:	0f 84 20 00 00 00    	je     0x973d
    971d:	48 ff c6             	inc    rsi
    9720:	48 ff c6             	inc    rsi
    9723:	48 ff c6             	inc    rsi
    9726:	48 ff c6             	inc    rsi
    9729:	48 ff c6             	inc    rsi
    972c:	48 ff c6             	inc    rsi
    972f:	48 ff c6             	inc    rsi
    9732:	48 ff c6             	inc    rsi
    9735:	48 ff c6             	inc    rsi
    9738:	e9 d6 ff ff ff       	jmp    0x9713
    973d:	48 ff c6             	inc    rsi
    9740:	8a 06                	mov    al,BYTE PTR [rsi]
    9742:	84 c0                	test   al,al
    9744:	0f 84 07 00 00 00    	je     0x9751
    974a:	fe 0e                	dec    BYTE PTR [rsi]
    974c:	e9 ef ff ff ff       	jmp    0x9740
    9751:	fe 06                	inc    BYTE PTR [rsi]
    9753:	48 ff ce             	dec    rsi
    9756:	e9 13 ff ff ff       	jmp    0x966e
    975b:	e9 99 fe ff ff       	jmp    0x95f9
    9760:	fe 06                	inc    BYTE PTR [rsi]
    9762:	48 ff c6             	inc    rsi
    9765:	8a 06                	mov    al,BYTE PTR [rsi]
    9767:	84 c0                	test   al,al
    9769:	0f 84 4c 00 00 00    	je     0x97bb
    976f:	fe 0e                	dec    BYTE PTR [rsi]
    9771:	48 ff ce             	dec    rsi
    9774:	8a 06                	mov    al,BYTE PTR [rsi]
    9776:	84 c0                	test   al,al
    9778:	0f 84 20 00 00 00    	je     0x979e
    977e:	48 ff c6             	inc    rsi
    9781:	48 ff c6             	inc    rsi
    9784:	48 ff c6             	inc    rsi
    9787:	48 ff c6             	inc    rsi
    978a:	48 ff c6             	inc    rsi
    978d:	48 ff c6             	inc    rsi
    9790:	48 ff c6             	inc    rsi
    9793:	48 ff c6             	inc    rsi
    9796:	48 ff c6             	inc    rsi
    9799:	e9 d6 ff ff ff       	jmp    0x9774
    979e:	48 ff ce             	dec    rsi
    97a1:	48 ff ce             	dec    rsi
    97a4:	48 ff ce             	dec    rsi
    97a7:	48 ff ce             	dec    rsi
    97aa:	48 ff ce             	dec    rsi
    97ad:	48 ff ce             	dec    rsi
    97b0:	48 ff ce             	dec    rsi
    97b3:	48 ff ce             	dec    rsi
    97b6:	e9 aa ff ff ff       	jmp    0x9765
    97bb:	48 ff c6             	inc    rsi
    97be:	48 ff c6             	inc    rsi
    97c1:	48 ff c6             	inc    rsi
    97c4:	48 ff c6             	inc    rsi
    97c7:	48 ff c6             	inc    rsi
    97ca:	48 ff c6             	inc    rsi
    97cd:	48 ff c6             	inc    rsi
    97d0:	48 ff c6             	inc    rsi
    97d3:	e9 d5 fb ff ff       	jmp    0x93ad
    97d8:	48 ff ce             	dec    rsi
    97db:	48 ff ce             	dec    rsi
    97de:	48 ff ce             	dec    rsi
    97e1:	48 ff ce             	dec    rsi
    97e4:	48 ff ce             	dec    rsi
    97e7:	48 ff ce             	dec    rsi
    97ea:	48 ff ce             	dec    rsi
    97ed:	48 ff ce             	dec    rsi
    97f0:	48 ff ce             	dec    rsi
    97f3:	8a 06                	mov    al,BYTE PTR [rsi]
    97f5:	84 c0                	test   al,al
    97f7:	0f 84 20 00 00 00    	je     0x981d
    97fd:	48 ff ce             	dec    rsi
    9800:	48 ff ce             	dec    rsi
    9803:	48 ff ce             	dec    rsi
    9806:	48 ff ce             	dec    rsi
    9809:	48 ff ce             	dec    rsi
    980c:	48 ff ce             	dec    rsi
    980f:	48 ff ce             	dec    rsi
    9812:	48 ff ce             	dec    rsi
    9815:	48 ff ce             	dec    rsi
    9818:	e9 d6 ff ff ff       	jmp    0x97f3
    981d:	48 ff c6             	inc    rsi
    9820:	48 ff c6             	inc    rsi
    9823:	48 ff c6             	inc    rsi
    9826:	48 ff c6             	inc    rsi
    9829:	8a 06                	mov    al,BYTE PTR [rsi]
    982b:	84 c0                	test   al,al
    982d:	0f 84 07 00 00 00    	je     0x983a
    9833:	fe 0e                	dec    BYTE PTR [rsi]
    9835:	e9 ef ff ff ff       	jmp    0x9829
    983a:	48 ff ce             	dec    rsi
    983d:	48 ff ce             	dec    rsi
    9840:	48 ff ce             	dec    rsi
    9843:	fe 06                	inc    BYTE PTR [rsi]
    9845:	fe 06                	inc    BYTE PTR [rsi]
    9847:	fe 06                	inc    BYTE PTR [rsi]
    9849:	fe 06                	inc    BYTE PTR [rsi]
    984b:	fe 06                	inc    BYTE PTR [rsi]
    984d:	8a 06                	mov    al,BYTE PTR [rsi]
    984f:	84 c0                	test   al,al
    9851:	0f 84 6b 00 00 00    	je     0x98c2
    9857:	fe 0e                	dec    BYTE PTR [rsi]
    9859:	8a 06                	mov    al,BYTE PTR [rsi]
    985b:	84 c0                	test   al,al
    985d:	0f 84 3f 00 00 00    	je     0x98a2
    9863:	fe 0e                	dec    BYTE PTR [rsi]
    9865:	48 ff c6             	inc    rsi
    9868:	48 ff c6             	inc    rsi
    986b:	48 ff c6             	inc    rsi
    986e:	48 ff c6             	inc    rsi
    9871:	48 ff c6             	inc    rsi
    9874:	48 ff c6             	inc    rsi
    9877:	48 ff c6             	inc    rsi
    987a:	48 ff c6             	inc    rsi
    987d:	48 ff c6             	inc    rsi
    9880:	fe 06                	inc    BYTE PTR [rsi]
    9882:	48 ff ce             	dec    rsi
    9885:	48 ff ce             	dec    rsi
    9888:	48 ff ce             	dec    rsi
    988b:	48 ff ce             	dec    rsi
    988e:	48 ff ce             	dec    rsi
    9891:	48 ff ce             	dec    rsi
    9894:	48 ff ce             	dec    rsi
    9897:	48 ff ce             	dec    rsi
    989a:	48 ff ce             	dec    rsi
    989d:	e9 b7 ff ff ff       	jmp    0x9859
    98a2:	48 ff c6             	inc    rsi
    98a5:	48 ff c6             	inc    rsi
    98a8:	48 ff c6             	inc    rsi
    98ab:	48 ff c6             	inc    rsi
    98ae:	48 ff c6             	inc    rsi
    98b1:	48 ff c6             	inc    rsi
    98b4:	48 ff c6             	inc    rsi
    98b7:	48 ff c6             	inc    rsi
    98ba:	48 ff c6             	inc    rsi
    98bd:	e9 8b ff ff ff       	jmp    0x984d
    98c2:	48 ff c6             	inc    rsi
    98c5:	48 ff c6             	inc    rsi
    98c8:	48 ff c6             	inc    rsi
    98cb:	48 ff c6             	inc    rsi
    98ce:	48 ff c6             	inc    rsi
    98d1:	fe 0e                	dec    BYTE PTR [rsi]
    98d3:	48 ff c6             	inc    rsi
    98d6:	48 ff c6             	inc    rsi
    98d9:	48 ff c6             	inc    rsi
    98dc:	48 ff c6             	inc    rsi
    98df:	48 ff c6             	inc    rsi
    98e2:	48 ff c6             	inc    rsi
    98e5:	48 ff c6             	inc    rsi
    98e8:	48 ff c6             	inc    rsi
    98eb:	48 ff c6             	inc    rsi
    98ee:	48 ff c6             	inc    rsi
    98f1:	48 ff c6             	inc    rsi
    98f4:	48 ff c6             	inc    rsi
    98f7:	48 ff c6             	inc    rsi
    98fa:	48 ff c6             	inc    rsi
    98fd:	48 ff c6             	inc    rsi
    9900:	48 ff c6             	inc    rsi
    9903:	48 ff c6             	inc    rsi
    9906:	48 ff c6             	inc    rsi
    9909:	48 ff c6             	inc    rsi
    990c:	48 ff c6             	inc    rsi
    990f:	48 ff c6             	inc    rsi
    9912:	48 ff c6             	inc    rsi
    9915:	48 ff c6             	inc    rsi
    9918:	48 ff c6             	inc    rsi
    991b:	48 ff c6             	inc    rsi
    991e:	48 ff c6             	inc    rsi
    9921:	48 ff c6             	inc    rsi
    9924:	fe 0e                	dec    BYTE PTR [rsi]
    9926:	48 ff ce             	dec    rsi
    9929:	48 ff ce             	dec    rsi
    992c:	48 ff ce             	dec    rsi
    992f:	48 ff ce             	dec    rsi
    9932:	48 ff ce             	dec    rsi
    9935:	48 ff ce             	dec    rsi
    9938:	8a 06                	mov    al,BYTE PTR [rsi]
    993a:	84 c0                	test   al,al
    993c:	0f 84 20 00 00 00    	je     0x9962
    9942:	48 ff ce             	dec    rsi
    9945:	48 ff ce             	dec    rsi
    9948:	48 ff ce             	dec    rsi
    994b:	48 ff ce             	dec    rsi
    994e:	48 ff ce             	dec    rsi
    9951:	48 ff ce             	dec    rsi
    9954:	48 ff ce             	dec    rsi
    9957:	48 ff ce             	dec    rsi
    995a:	48 ff ce             	dec    rsi
    995d:	e9 d6 ff ff ff       	jmp    0x9938
    9962:	e9 41 f7 ff ff       	jmp    0x90a8
    9967:	48 ff c6             	inc    rsi
    996a:	48 ff c6             	inc    rsi
    996d:	48 ff c6             	inc    rsi
    9970:	e9 16 6a ff ff       	jmp    0x38b
    9975:	48 83 c4 20          	add    rsp,0x20
    9979:	c3                   	ret    
